
C:/Users/Deize/Documents/ERICK/Embarcatech/Tarefa W3/CEPEDIU4T1/build/U4T1.elf:     file format elf32-littlearm

Sections:
Idx Name          Size      VMA       LMA       File off  Algn
  0 .boot2        00000100  10000000  10000000  00001000  2**0
                  CONTENTS, ALLOC, LOAD, READONLY, CODE
  1 .text         0000462c  10000100  10000100  00001100  2**3
                  CONTENTS, ALLOC, LOAD, READONLY, CODE
  2 .rodata       0000044c  1000472c  1000472c  0000572c  2**2
                  CONTENTS, ALLOC, LOAD, READONLY, DATA
  3 .binary_info  00000024  10004b78  10004b78  00005b78  2**2
                  CONTENTS, ALLOC, LOAD, READONLY, DATA
  4 .ram_vector_table 000000c0  20000000  20000000  00008000  2**2
                  ALLOC
  5 .uninitialized_data 00000000  200000c0  200000c0  00007060  2**0
                  CONTENTS
  6 .data         00000fa0  200000c0  10004b9c  000060c0  2**4
                  CONTENTS, ALLOC, LOAD, READONLY, CODE
  7 .tdata        00000000  20001060  20001060  00007060  2**0
                  CONTENTS, ALLOC, LOAD, DATA, THREAD_LOCAL
  8 .tbss         00000000  20001060  20001060  00000000  2**0
                  ALLOC, THREAD_LOCAL
  9 .bss          00001078  20001060  10005b3c  00007060  2**3
                  ALLOC
 10 .heap         00000800  200020d8  200020d8  00007060  2**2
                  CONTENTS, READONLY
 11 .scratch_x    00000000  20040000  20040000  00007860  2**0
                  CONTENTS
 12 .scratch_y    00000000  20041000  20041000  00007860  2**0
                  CONTENTS
 13 .stack_dummy  00000800  20041000  20041000  00007860  2**5
                  CONTENTS, READONLY
 14 .ARM.attributes 00000028  00000000  00000000  00008060  2**0
                  CONTENTS, READONLY
 15 .comment      00000045  00000000  00000000  00008088  2**0
                  CONTENTS, READONLY
 16 .debug_info   0003103d  00000000  00000000  000080cd  2**0
                  CONTENTS, READONLY, DEBUGGING, OCTETS
 17 .debug_abbrev 00008ebd  00000000  00000000  0003910a  2**0
                  CONTENTS, READONLY, DEBUGGING, OCTETS
 18 .debug_loclists 00019965  00000000  00000000  00041fc7  2**0
                  CONTENTS, READONLY, DEBUGGING, OCTETS
 19 .debug_aranges 000015c8  00000000  00000000  0005b930  2**3
                  CONTENTS, READONLY, DEBUGGING, OCTETS
 20 .debug_rnglists 00004364  00000000  00000000  0005cef8  2**0
                  CONTENTS, READONLY, DEBUGGING, OCTETS
 21 .debug_line   00023c71  00000000  00000000  0006125c  2**0
                  CONTENTS, READONLY, DEBUGGING, OCTETS
 22 .debug_str    000086e1  00000000  00000000  00084ecd  2**0
                  CONTENTS, READONLY, DEBUGGING, OCTETS
 23 .debug_frame  00002ee4  00000000  00000000  0008d5b0  2**2
                  CONTENTS, READONLY, DEBUGGING, OCTETS
 24 .debug_line_str 0000035c  00000000  00000000  00090494  2**0
                  CONTENTS, READONLY, DEBUGGING, OCTETS

C:/Users/Deize/Documents/ERICK/Embarcatech/Tarefa W3/CEPEDIU4T1/build/U4T1.elf:     file format elf32-littlearm


Disassembly of section .boot2:

10000000 <__boot2_start__>:
10000000:	4b32b500 	.word	0x4b32b500
10000004:	60582021 	.word	0x60582021
10000008:	21026898 	.word	0x21026898
1000000c:	60984388 	.word	0x60984388
10000010:	611860d8 	.word	0x611860d8
10000014:	4b2e6158 	.word	0x4b2e6158
10000018:	60992100 	.word	0x60992100
1000001c:	61592102 	.word	0x61592102
10000020:	22f02101 	.word	0x22f02101
10000024:	492b5099 	.word	0x492b5099
10000028:	21016019 	.word	0x21016019
1000002c:	20356099 	.word	0x20356099
10000030:	f844f000 	.word	0xf844f000
10000034:	42902202 	.word	0x42902202
10000038:	2106d014 	.word	0x2106d014
1000003c:	f0006619 	.word	0xf0006619
10000040:	6e19f834 	.word	0x6e19f834
10000044:	66192101 	.word	0x66192101
10000048:	66182000 	.word	0x66182000
1000004c:	f000661a 	.word	0xf000661a
10000050:	6e19f82c 	.word	0x6e19f82c
10000054:	6e196e19 	.word	0x6e196e19
10000058:	f0002005 	.word	0xf0002005
1000005c:	2101f82f 	.word	0x2101f82f
10000060:	d1f94208 	.word	0xd1f94208
10000064:	60992100 	.word	0x60992100
10000068:	6019491b 	.word	0x6019491b
1000006c:	60592100 	.word	0x60592100
10000070:	481b491a 	.word	0x481b491a
10000074:	21016001 	.word	0x21016001
10000078:	21eb6099 	.word	0x21eb6099
1000007c:	21a06619 	.word	0x21a06619
10000080:	f0006619 	.word	0xf0006619
10000084:	2100f812 	.word	0x2100f812
10000088:	49166099 	.word	0x49166099
1000008c:	60014814 	.word	0x60014814
10000090:	60992101 	.word	0x60992101
10000094:	2800bc01 	.word	0x2800bc01
10000098:	4700d000 	.word	0x4700d000
1000009c:	49134812 	.word	0x49134812
100000a0:	c8036008 	.word	0xc8036008
100000a4:	8808f380 	.word	0x8808f380
100000a8:	b5034708 	.word	0xb5034708
100000ac:	20046a99 	.word	0x20046a99
100000b0:	d0fb4201 	.word	0xd0fb4201
100000b4:	42012001 	.word	0x42012001
100000b8:	bd03d1f8 	.word	0xbd03d1f8
100000bc:	6618b502 	.word	0x6618b502
100000c0:	f7ff6618 	.word	0xf7ff6618
100000c4:	6e18fff2 	.word	0x6e18fff2
100000c8:	bd026e18 	.word	0xbd026e18
100000cc:	40020000 	.word	0x40020000
100000d0:	18000000 	.word	0x18000000
100000d4:	00070000 	.word	0x00070000
100000d8:	005f0300 	.word	0x005f0300
100000dc:	00002221 	.word	0x00002221
100000e0:	180000f4 	.word	0x180000f4
100000e4:	a0002022 	.word	0xa0002022
100000e8:	10000100 	.word	0x10000100
100000ec:	e000ed08 	.word	0xe000ed08
	...
100000fc:	7a4eb274 	.word	0x7a4eb274

Disassembly of section .text:

10000100 <__VECTOR_TABLE>:
10000100:	20042000 	.word	0x20042000
10000104:	100001f7 	.word	0x100001f7
10000108:	100001c3 	.word	0x100001c3
1000010c:	100001c5 	.word	0x100001c5
10000110:	100001c1 	.word	0x100001c1
10000114:	100001c1 	.word	0x100001c1
10000118:	100001c1 	.word	0x100001c1
1000011c:	100001c1 	.word	0x100001c1
10000120:	100001c1 	.word	0x100001c1
10000124:	100001c1 	.word	0x100001c1
10000128:	100001c1 	.word	0x100001c1
1000012c:	100001c7 	.word	0x100001c7
10000130:	100001c1 	.word	0x100001c1
10000134:	100001c1 	.word	0x100001c1
10000138:	100001c9 	.word	0x100001c9
1000013c:	100001cb 	.word	0x100001cb
10000140:	100001cd 	.word	0x100001cd
10000144:	100001cd 	.word	0x100001cd
10000148:	100001cd 	.word	0x100001cd
1000014c:	100001cd 	.word	0x100001cd
10000150:	100001cd 	.word	0x100001cd
10000154:	100001cd 	.word	0x100001cd
10000158:	100001cd 	.word	0x100001cd
1000015c:	100001cd 	.word	0x100001cd
10000160:	100001cd 	.word	0x100001cd
10000164:	100001cd 	.word	0x100001cd
10000168:	100001cd 	.word	0x100001cd
1000016c:	100001cd 	.word	0x100001cd
10000170:	100001cd 	.word	0x100001cd
10000174:	100001cd 	.word	0x100001cd
10000178:	100001cd 	.word	0x100001cd
1000017c:	100001cd 	.word	0x100001cd
10000180:	100001cd 	.word	0x100001cd
10000184:	100001cd 	.word	0x100001cd
10000188:	100001cd 	.word	0x100001cd
1000018c:	100001cd 	.word	0x100001cd
10000190:	100001cd 	.word	0x100001cd
10000194:	100001cd 	.word	0x100001cd
10000198:	100001cd 	.word	0x100001cd
1000019c:	100001cd 	.word	0x100001cd
100001a0:	100001cd 	.word	0x100001cd
100001a4:	100001cd 	.word	0x100001cd
100001a8:	100001cd 	.word	0x100001cd
100001ac:	100001cd 	.word	0x100001cd
100001b0:	100001cd 	.word	0x100001cd
100001b4:	100001cd 	.word	0x100001cd
100001b8:	100001cd 	.word	0x100001cd
100001bc:	100001cd 	.word	0x100001cd

100001c0 <isr_invalid>:
100001c0:	be00      	bkpt	0x0000

100001c2 <isr_nmi>:
100001c2:	be00      	bkpt	0x0000

100001c4 <isr_hardfault>:
100001c4:	be00      	bkpt	0x0000

100001c6 <isr_svcall>:
100001c6:	be00      	bkpt	0x0000

100001c8 <isr_pendsv>:
100001c8:	be00      	bkpt	0x0000

100001ca <isr_systick>:
100001ca:	be00      	bkpt	0x0000

100001cc <__unhandled_user_irq>:
100001cc:	f3ef 8005 	mrs	r0, IPSR
100001d0:	3810      	subs	r0, #16

100001d2 <unhandled_user_irq_num_in_r0>:
100001d2:	be00      	bkpt	0x0000

100001d4 <binary_info_header>:
100001d4:	7188ebf2 	.word	0x7188ebf2
100001d8:	10004b78 	.word	0x10004b78
100001dc:	10004b9c 	.word	0x10004b9c
100001e0:	10000238 	.word	0x10000238
100001e4:	e71aa390 	.word	0xe71aa390

100001e8 <_entry_point>:
100001e8:	481e      	ldr	r0, [pc, #120]	@ (10000264 <data_cpy_table+0x2c>)

100001ea <_enter_vtable_in_r0>:
100001ea:	491f      	ldr	r1, [pc, #124]	@ (10000268 <data_cpy_table+0x30>)
100001ec:	6008      	str	r0, [r1, #0]
100001ee:	c806      	ldmia	r0!, {r1, r2}
100001f0:	f381 8808 	msr	MSP, r1
100001f4:	4710      	bx	r2

100001f6 <_reset_handler>:
100001f6:	481d      	ldr	r0, [pc, #116]	@ (1000026c <data_cpy_table+0x34>)
100001f8:	6800      	ldr	r0, [r0, #0]
100001fa:	2800      	cmp	r0, #0
100001fc:	d001      	beq.n	10000202 <hold_non_core0_in_bootrom+0x4>

100001fe <hold_non_core0_in_bootrom>:
100001fe:	4819      	ldr	r0, [pc, #100]	@ (10000264 <data_cpy_table+0x2c>)
10000200:	e7f3      	b.n	100001ea <_enter_vtable_in_r0>
10000202:	a40d      	add	r4, pc, #52	@ (adr r4, 10000238 <data_cpy_table>)
10000204:	cc0e      	ldmia	r4!, {r1, r2, r3}
10000206:	2900      	cmp	r1, #0
10000208:	d002      	beq.n	10000210 <hold_non_core0_in_bootrom+0x12>
1000020a:	f000 f812 	bl	10000232 <data_cpy>
1000020e:	e7f9      	b.n	10000204 <hold_non_core0_in_bootrom+0x6>
10000210:	4917      	ldr	r1, [pc, #92]	@ (10000270 <data_cpy_table+0x38>)
10000212:	4a18      	ldr	r2, [pc, #96]	@ (10000274 <data_cpy_table+0x3c>)
10000214:	2000      	movs	r0, #0
10000216:	e000      	b.n	1000021a <bss_fill_test>

10000218 <bss_fill_loop>:
10000218:	c101      	stmia	r1!, {r0}

1000021a <bss_fill_test>:
1000021a:	4291      	cmp	r1, r2
1000021c:	d1fc      	bne.n	10000218 <bss_fill_loop>

1000021e <platform_entry>:
1000021e:	4916      	ldr	r1, [pc, #88]	@ (10000278 <data_cpy_table+0x40>)
10000220:	4788      	blx	r1
10000222:	4916      	ldr	r1, [pc, #88]	@ (1000027c <data_cpy_table+0x44>)
10000224:	4788      	blx	r1
10000226:	4916      	ldr	r1, [pc, #88]	@ (10000280 <data_cpy_table+0x48>)
10000228:	4788      	blx	r1
1000022a:	be00      	bkpt	0x0000
1000022c:	e7fd      	b.n	1000022a <platform_entry+0xc>

1000022e <data_cpy_loop>:
1000022e:	c901      	ldmia	r1!, {r0}
10000230:	c201      	stmia	r2!, {r0}

10000232 <data_cpy>:
10000232:	429a      	cmp	r2, r3
10000234:	d3fb      	bcc.n	1000022e <data_cpy_loop>
10000236:	4770      	bx	lr

10000238 <data_cpy_table>:
10000238:	10004b9c 	.word	0x10004b9c
1000023c:	200000c0 	.word	0x200000c0
10000240:	20001060 	.word	0x20001060
10000244:	10005b3c 	.word	0x10005b3c
10000248:	20040000 	.word	0x20040000
1000024c:	20040000 	.word	0x20040000
10000250:	10005b3c 	.word	0x10005b3c
10000254:	20041000 	.word	0x20041000
10000258:	20041000 	.word	0x20041000
1000025c:	00000000 	.word	0x00000000
10000260:	4770      	bx	lr
10000262:	0000      	.short	0x0000
10000264:	00000000 	.word	0x00000000
10000268:	e000ed08 	.word	0xe000ed08
1000026c:	d0000000 	.word	0xd0000000
10000270:	20001060 	.word	0x20001060
10000274:	200020d8 	.word	0x200020d8
10000278:	10001b65 	.word	0x10001b65
1000027c:	1000030d 	.word	0x1000030d
10000280:	10001b5d 	.word	0x10001b5d

10000284 <_init>:
10000284:	b5f8      	push	{r3, r4, r5, r6, r7, lr}
10000286:	46c0      	nop			@ (mov r8, r8)

10000288 <register_tm_clones>:
10000288:	4806      	ldr	r0, [pc, #24]	@ (100002a4 <register_tm_clones+0x1c>)
1000028a:	4907      	ldr	r1, [pc, #28]	@ (100002a8 <register_tm_clones+0x20>)
1000028c:	1a09      	subs	r1, r1, r0
1000028e:	108b      	asrs	r3, r1, #2
10000290:	0fc9      	lsrs	r1, r1, #31
10000292:	18c9      	adds	r1, r1, r3
10000294:	b510      	push	{r4, lr}
10000296:	1049      	asrs	r1, r1, #1
10000298:	d003      	beq.n	100002a2 <register_tm_clones+0x1a>
1000029a:	4b04      	ldr	r3, [pc, #16]	@ (100002ac <register_tm_clones+0x24>)
1000029c:	2b00      	cmp	r3, #0
1000029e:	d000      	beq.n	100002a2 <register_tm_clones+0x1a>
100002a0:	4798      	blx	r3
100002a2:	bd10      	pop	{r4, pc}
100002a4:	20001060 	.word	0x20001060
100002a8:	20001060 	.word	0x20001060
100002ac:	00000000 	.word	0x00000000

100002b0 <frame_dummy>:
100002b0:	4b05      	ldr	r3, [pc, #20]	@ (100002c8 <frame_dummy+0x18>)
100002b2:	b510      	push	{r4, lr}
100002b4:	2b00      	cmp	r3, #0
100002b6:	d003      	beq.n	100002c0 <frame_dummy+0x10>
100002b8:	4904      	ldr	r1, [pc, #16]	@ (100002cc <frame_dummy+0x1c>)
100002ba:	4805      	ldr	r0, [pc, #20]	@ (100002d0 <frame_dummy+0x20>)
100002bc:	e000      	b.n	100002c0 <frame_dummy+0x10>
100002be:	bf00      	nop
100002c0:	f7ff ffe2 	bl	10000288 <register_tm_clones>
100002c4:	bd10      	pop	{r4, pc}
100002c6:	46c0      	nop			@ (mov r8, r8)
100002c8:	00000000 	.word	0x00000000
100002cc:	20001f74 	.word	0x20001f74
100002d0:	1000472c 	.word	0x1000472c

100002d4 <initGpio>:
100002d4:	b510      	push	{r4, lr}
100002d6:	200c      	movs	r0, #12
100002d8:	f000 f918 	bl	1000050c <gpio_init>
100002dc:	200b      	movs	r0, #11
100002de:	f000 f915 	bl	1000050c <gpio_init>
100002e2:	200d      	movs	r0, #13
100002e4:	f000 f912 	bl	1000050c <gpio_init>
100002e8:	2015      	movs	r0, #21
100002ea:	f000 f90f 	bl	1000050c <gpio_init>
100002ee:	23d0      	movs	r3, #208	@ 0xd0
100002f0:	2280      	movs	r2, #128	@ 0x80
100002f2:	061b      	lsls	r3, r3, #24
100002f4:	0152      	lsls	r2, r2, #5
100002f6:	625a      	str	r2, [r3, #36]	@ 0x24
100002f8:	2280      	movs	r2, #128	@ 0x80
100002fa:	0112      	lsls	r2, r2, #4
100002fc:	625a      	str	r2, [r3, #36]	@ 0x24
100002fe:	2280      	movs	r2, #128	@ 0x80
10000300:	0192      	lsls	r2, r2, #6
10000302:	625a      	str	r2, [r3, #36]	@ 0x24
10000304:	2280      	movs	r2, #128	@ 0x80
10000306:	0392      	lsls	r2, r2, #14
10000308:	625a      	str	r2, [r3, #36]	@ 0x24
1000030a:	bd10      	pop	{r4, pc}

1000030c <main>:
1000030c:	b510      	push	{r4, lr}
1000030e:	f001 fd29 	bl	10001d64 <stdio_init_all>
10000312:	f7ff ffdf 	bl	100002d4 <initGpio>
10000316:	f000 f81b 	bl	10000350 <initKeypad>
1000031a:	e008      	b.n	1000032e <main+0x22>
1000031c:	2833      	cmp	r0, #51	@ 0x33
1000031e:	d010      	beq.n	10000342 <main+0x36>
10000320:	2835      	cmp	r0, #53	@ 0x35
10000322:	d101      	bne.n	10000328 <main+0x1c>
10000324:	f000 f892 	bl	1000044c <tecla5>
10000328:	2064      	movs	r0, #100	@ 0x64
1000032a:	f000 ff73 	bl	10001214 <sleep_ms>
1000032e:	f000 f843 	bl	100003b8 <getKey>
10000332:	2837      	cmp	r0, #55	@ 0x37
10000334:	d008      	beq.n	10000348 <main+0x3c>
10000336:	d9f1      	bls.n	1000031c <main+0x10>
10000338:	2838      	cmp	r0, #56	@ 0x38
1000033a:	d1f5      	bne.n	10000328 <main+0x1c>
1000033c:	f000 f8c2 	bl	100004c4 <Tecla8>
10000340:	e7f2      	b.n	10000328 <main+0x1c>
10000342:	f000 f877 	bl	10000434 <tecla3>
10000346:	e7ef      	b.n	10000328 <main+0x1c>
10000348:	f000 f88c 	bl	10000464 <Tecla7>
1000034c:	e7ec      	b.n	10000328 <main+0x1c>
1000034e:	46c0      	nop			@ (mov r8, r8)

10000350 <initKeypad>:
10000350:	b5f0      	push	{r4, r5, r6, r7, lr}
10000352:	46c6      	mov	lr, r8
10000354:	2012      	movs	r0, #18
10000356:	b500      	push	{lr}
10000358:	f000 f8d8 	bl	1000050c <gpio_init>
1000035c:	26d0      	movs	r6, #208	@ 0xd0
1000035e:	2380      	movs	r3, #128	@ 0x80
10000360:	0636      	lsls	r6, r6, #24
10000362:	02db      	lsls	r3, r3, #11
10000364:	2013      	movs	r0, #19
10000366:	6273      	str	r3, [r6, #36]	@ 0x24
10000368:	f000 f8d0 	bl	1000050c <gpio_init>
1000036c:	2380      	movs	r3, #128	@ 0x80
1000036e:	031b      	lsls	r3, r3, #12
10000370:	2014      	movs	r0, #20
10000372:	6273      	str	r3, [r6, #36]	@ 0x24
10000374:	f000 f8ca 	bl	1000050c <gpio_init>
10000378:	2380      	movs	r3, #128	@ 0x80
1000037a:	035b      	lsls	r3, r3, #13
1000037c:	6273      	str	r3, [r6, #36]	@ 0x24
1000037e:	2004      	movs	r0, #4
10000380:	f000 f8c4 	bl	1000050c <gpio_init>
10000384:	2310      	movs	r3, #16
10000386:	4c0b      	ldr	r4, [pc, #44]	@ (100003b4 <initKeypad+0x64>)
10000388:	6273      	str	r3, [r6, #36]	@ 0x24
1000038a:	1d23      	adds	r3, r4, #4
1000038c:	4698      	mov	r8, r3
1000038e:	2701      	movs	r7, #1
10000390:	7825      	ldrb	r5, [r4, #0]
10000392:	3401      	adds	r4, #1
10000394:	0028      	movs	r0, r5
10000396:	f000 f8b9 	bl	1000050c <gpio_init>
1000039a:	003b      	movs	r3, r7
1000039c:	40ab      	lsls	r3, r5
1000039e:	2200      	movs	r2, #0
100003a0:	2101      	movs	r1, #1
100003a2:	0028      	movs	r0, r5
100003a4:	62b3      	str	r3, [r6, #40]	@ 0x28
100003a6:	f000 f89d 	bl	100004e4 <gpio_set_pulls>
100003aa:	4544      	cmp	r4, r8
100003ac:	d1f0      	bne.n	10000390 <initKeypad+0x40>
100003ae:	bc80      	pop	{r7}
100003b0:	46b8      	mov	r8, r7
100003b2:	bdf0      	pop	{r4, r5, r6, r7, pc}
100003b4:	10004740 	.word	0x10004740

100003b8 <getKey>:
100003b8:	b5f8      	push	{r3, r4, r5, r6, r7, lr}
100003ba:	4b1c      	ldr	r3, [pc, #112]	@ (1000042c <getKey+0x74>)
100003bc:	4647      	mov	r7, r8
100003be:	46ce      	mov	lr, r9
100003c0:	4699      	mov	r9, r3
100003c2:	2301      	movs	r3, #1
100003c4:	24d0      	movs	r4, #208	@ 0xd0
100003c6:	b580      	push	{r7, lr}
100003c8:	2780      	movs	r7, #128	@ 0x80
100003ca:	2500      	movs	r5, #0
100003cc:	4698      	mov	r8, r3
100003ce:	0624      	lsls	r4, r4, #24
100003d0:	027f      	lsls	r7, r7, #9
100003d2:	464b      	mov	r3, r9
100003d4:	4646      	mov	r6, r8
100003d6:	5d5b      	ldrb	r3, [r3, r5]
100003d8:	2001      	movs	r0, #1
100003da:	409e      	lsls	r6, r3
100003dc:	61a6      	str	r6, [r4, #24]
100003de:	f000 ff19 	bl	10001214 <sleep_ms>
100003e2:	6863      	ldr	r3, [r4, #4]
100003e4:	423b      	tst	r3, r7
100003e6:	d011      	beq.n	1000040c <getKey+0x54>
100003e8:	6863      	ldr	r3, [r4, #4]
100003ea:	039b      	lsls	r3, r3, #14
100003ec:	d517      	bpl.n	1000041e <getKey+0x66>
100003ee:	6863      	ldr	r3, [r4, #4]
100003f0:	059b      	lsls	r3, r3, #22
100003f2:	d516      	bpl.n	10000422 <getKey+0x6a>
100003f4:	6863      	ldr	r3, [r4, #4]
100003f6:	05db      	lsls	r3, r3, #23
100003f8:	d515      	bpl.n	10000426 <getKey+0x6e>
100003fa:	3501      	adds	r5, #1
100003fc:	6166      	str	r6, [r4, #20]
100003fe:	2d04      	cmp	r5, #4
10000400:	d1e7      	bne.n	100003d2 <getKey+0x1a>
10000402:	2020      	movs	r0, #32
10000404:	bcc0      	pop	{r6, r7}
10000406:	46b9      	mov	r9, r7
10000408:	46b0      	mov	r8, r6
1000040a:	bdf8      	pop	{r3, r4, r5, r6, r7, pc}
1000040c:	2200      	movs	r2, #0
1000040e:	23d0      	movs	r3, #208	@ 0xd0
10000410:	061b      	lsls	r3, r3, #24
10000412:	615e      	str	r6, [r3, #20]
10000414:	4b06      	ldr	r3, [pc, #24]	@ (10000430 <getKey+0x78>)
10000416:	0092      	lsls	r2, r2, #2
10000418:	189b      	adds	r3, r3, r2
1000041a:	5d58      	ldrb	r0, [r3, r5]
1000041c:	e7f2      	b.n	10000404 <getKey+0x4c>
1000041e:	2201      	movs	r2, #1
10000420:	e7f5      	b.n	1000040e <getKey+0x56>
10000422:	2202      	movs	r2, #2
10000424:	e7f3      	b.n	1000040e <getKey+0x56>
10000426:	2203      	movs	r2, #3
10000428:	e7f1      	b.n	1000040e <getKey+0x56>
1000042a:	46c0      	nop			@ (mov r8, r8)
1000042c:	1000473c 	.word	0x1000473c
10000430:	1000472c 	.word	0x1000472c

10000434 <tecla3>:
10000434:	b570      	push	{r4, r5, r6, lr}
10000436:	24d0      	movs	r4, #208	@ 0xd0
10000438:	2580      	movs	r5, #128	@ 0x80
1000043a:	20fa      	movs	r0, #250	@ 0xfa
1000043c:	016d      	lsls	r5, r5, #5
1000043e:	0624      	lsls	r4, r4, #24
10000440:	6165      	str	r5, [r4, #20]
10000442:	00c0      	lsls	r0, r0, #3
10000444:	f000 fee6 	bl	10001214 <sleep_ms>
10000448:	61a5      	str	r5, [r4, #24]
1000044a:	bd70      	pop	{r4, r5, r6, pc}

1000044c <tecla5>:
1000044c:	b570      	push	{r4, r5, r6, lr}
1000044e:	24d0      	movs	r4, #208	@ 0xd0
10000450:	2580      	movs	r5, #128	@ 0x80
10000452:	20fa      	movs	r0, #250	@ 0xfa
10000454:	03ad      	lsls	r5, r5, #14
10000456:	0624      	lsls	r4, r4, #24
10000458:	6165      	str	r5, [r4, #20]
1000045a:	00c0      	lsls	r0, r0, #3
1000045c:	f000 feda 	bl	10001214 <sleep_ms>
10000460:	61a5      	str	r5, [r4, #24]
10000462:	bd70      	pop	{r4, r5, r6, pc}

10000464 <Tecla7>:
10000464:	b570      	push	{r4, r5, r6, lr}
10000466:	25d0      	movs	r5, #208	@ 0xd0
10000468:	2680      	movs	r6, #128	@ 0x80
1000046a:	24fa      	movs	r4, #250	@ 0xfa
1000046c:	062d      	lsls	r5, r5, #24
1000046e:	01b6      	lsls	r6, r6, #6
10000470:	00a4      	lsls	r4, r4, #2
10000472:	616e      	str	r6, [r5, #20]
10000474:	0020      	movs	r0, r4
10000476:	f000 fecd 	bl	10001214 <sleep_ms>
1000047a:	61ae      	str	r6, [r5, #24]
1000047c:	0020      	movs	r0, r4
1000047e:	f000 fec9 	bl	10001214 <sleep_ms>
10000482:	616e      	str	r6, [r5, #20]
10000484:	0020      	movs	r0, r4
10000486:	f000 fec5 	bl	10001214 <sleep_ms>
1000048a:	61ae      	str	r6, [r5, #24]
1000048c:	0020      	movs	r0, r4
1000048e:	f000 fec1 	bl	10001214 <sleep_ms>
10000492:	616e      	str	r6, [r5, #20]
10000494:	0020      	movs	r0, r4
10000496:	f000 febd 	bl	10001214 <sleep_ms>
1000049a:	61ae      	str	r6, [r5, #24]
1000049c:	0020      	movs	r0, r4
1000049e:	f000 feb9 	bl	10001214 <sleep_ms>
100004a2:	616e      	str	r6, [r5, #20]
100004a4:	0020      	movs	r0, r4
100004a6:	f000 feb5 	bl	10001214 <sleep_ms>
100004aa:	61ae      	str	r6, [r5, #24]
100004ac:	0020      	movs	r0, r4
100004ae:	f000 feb1 	bl	10001214 <sleep_ms>
100004b2:	616e      	str	r6, [r5, #20]
100004b4:	0020      	movs	r0, r4
100004b6:	f000 fead 	bl	10001214 <sleep_ms>
100004ba:	61ae      	str	r6, [r5, #24]
100004bc:	0020      	movs	r0, r4
100004be:	f000 fea9 	bl	10001214 <sleep_ms>
100004c2:	bd70      	pop	{r4, r5, r6, pc}

100004c4 <Tecla8>:
100004c4:	b570      	push	{r4, r5, r6, lr}
100004c6:	24d0      	movs	r4, #208	@ 0xd0
100004c8:	2580      	movs	r5, #128	@ 0x80
100004ca:	20fa      	movs	r0, #250	@ 0xfa
100004cc:	016d      	lsls	r5, r5, #5
100004ce:	0624      	lsls	r4, r4, #24
100004d0:	6165      	str	r5, [r4, #20]
100004d2:	00c0      	lsls	r0, r0, #3
100004d4:	f000 fe9e 	bl	10001214 <sleep_ms>
100004d8:	20fa      	movs	r0, #250	@ 0xfa
100004da:	61a5      	str	r5, [r4, #24]
100004dc:	0080      	lsls	r0, r0, #2
100004de:	f000 fe99 	bl	10001214 <sleep_ms>
100004e2:	bd70      	pop	{r4, r5, r6, pc}

100004e4 <gpio_set_pulls>:
100004e4:	4b07      	ldr	r3, [pc, #28]	@ (10000504 <gpio_set_pulls+0x20>)
100004e6:	0080      	lsls	r0, r0, #2
100004e8:	18c3      	adds	r3, r0, r3
100004ea:	681b      	ldr	r3, [r3, #0]
100004ec:	00c9      	lsls	r1, r1, #3
100004ee:	0092      	lsls	r2, r2, #2
100004f0:	430a      	orrs	r2, r1
100004f2:	405a      	eors	r2, r3
100004f4:	230c      	movs	r3, #12
100004f6:	4013      	ands	r3, r2
100004f8:	4a03      	ldr	r2, [pc, #12]	@ (10000508 <gpio_set_pulls+0x24>)
100004fa:	4694      	mov	ip, r2
100004fc:	4460      	add	r0, ip
100004fe:	6003      	str	r3, [r0, #0]
10000500:	4770      	bx	lr
10000502:	46c0      	nop			@ (mov r8, r8)
10000504:	4001c004 	.word	0x4001c004
10000508:	4001d004 	.word	0x4001d004

1000050c <gpio_init>:
1000050c:	2301      	movs	r3, #1
1000050e:	22d0      	movs	r2, #208	@ 0xd0
10000510:	4083      	lsls	r3, r0
10000512:	0612      	lsls	r2, r2, #24
10000514:	6293      	str	r3, [r2, #40]	@ 0x28
10000516:	6193      	str	r3, [r2, #24]
10000518:	4a09      	ldr	r2, [pc, #36]	@ (10000540 <gpio_init+0x34>)
1000051a:	0083      	lsls	r3, r0, #2
1000051c:	189a      	adds	r2, r3, r2
1000051e:	6811      	ldr	r1, [r2, #0]
10000520:	2240      	movs	r2, #64	@ 0x40
10000522:	4051      	eors	r1, r2
10000524:	3280      	adds	r2, #128	@ 0x80
10000526:	400a      	ands	r2, r1
10000528:	4906      	ldr	r1, [pc, #24]	@ (10000544 <gpio_init+0x38>)
1000052a:	00c0      	lsls	r0, r0, #3
1000052c:	468c      	mov	ip, r1
1000052e:	4463      	add	r3, ip
10000530:	601a      	str	r2, [r3, #0]
10000532:	4b05      	ldr	r3, [pc, #20]	@ (10000548 <gpio_init+0x3c>)
10000534:	469c      	mov	ip, r3
10000536:	2305      	movs	r3, #5
10000538:	4460      	add	r0, ip
1000053a:	6043      	str	r3, [r0, #4]
1000053c:	4770      	bx	lr
1000053e:	46c0      	nop			@ (mov r8, r8)
10000540:	4001c004 	.word	0x4001c004
10000544:	4001d004 	.word	0x4001d004
10000548:	40014000 	.word	0x40014000

1000054c <rp2040_chip_version>:
1000054c:	2380      	movs	r3, #128	@ 0x80
1000054e:	05db      	lsls	r3, r3, #23
10000550:	6818      	ldr	r0, [r3, #0]
10000552:	0f00      	lsrs	r0, r0, #28
10000554:	4770      	bx	lr
10000556:	46c0      	nop			@ (mov r8, r8)

10000558 <panic>:
10000558:	b40f      	push	{r0, r1, r2, r3}
1000055a:	b500      	push	{lr}
1000055c:	4808      	ldr	r0, [pc, #32]	@ (10000580 <panic+0x28>)
1000055e:	b083      	sub	sp, #12
10000560:	f001 fc50 	bl	10001e04 <__wrap_puts>
10000564:	9b04      	ldr	r3, [sp, #16]
10000566:	2b00      	cmp	r3, #0
10000568:	d007      	beq.n	1000057a <panic+0x22>
1000056a:	a905      	add	r1, sp, #20
1000056c:	0018      	movs	r0, r3
1000056e:	9101      	str	r1, [sp, #4]
10000570:	f001 fada 	bl	10001b28 <weak_raw_vprintf>
10000574:	4803      	ldr	r0, [pc, #12]	@ (10000584 <panic+0x2c>)
10000576:	f001 fc45 	bl	10001e04 <__wrap_puts>
1000057a:	2001      	movs	r0, #1
1000057c:	f001 faec 	bl	10001b58 <_exit>
10000580:	10004744 	.word	0x10004744
10000584:	10004754 	.word	0x10004754

10000588 <hw_claim_or_assert>:
10000588:	b570      	push	{r4, r5, r6, lr}
1000058a:	f3ef 8c10 	mrs	ip, PRIMASK
1000058e:	b672      	cpsid	i
10000590:	4d0d      	ldr	r5, [pc, #52]	@ (100005c8 <hw_claim_or_assert+0x40>)
10000592:	682b      	ldr	r3, [r5, #0]
10000594:	2b00      	cmp	r3, #0
10000596:	d0fc      	beq.n	10000592 <hw_claim_or_assert+0xa>
10000598:	f3bf 8f5f 	dmb	sy
1000059c:	2407      	movs	r4, #7
1000059e:	08cb      	lsrs	r3, r1, #3
100005a0:	18c6      	adds	r6, r0, r3
100005a2:	5cc0      	ldrb	r0, [r0, r3]
100005a4:	2301      	movs	r3, #1
100005a6:	400c      	ands	r4, r1
100005a8:	40a3      	lsls	r3, r4
100005aa:	001c      	movs	r4, r3
100005ac:	4004      	ands	r4, r0
100005ae:	4203      	tst	r3, r0
100005b0:	d107      	bne.n	100005c2 <hw_claim_or_assert+0x3a>
100005b2:	4318      	orrs	r0, r3
100005b4:	7030      	strb	r0, [r6, #0]
100005b6:	f3bf 8f5f 	dmb	sy
100005ba:	602c      	str	r4, [r5, #0]
100005bc:	f38c 8810 	msr	PRIMASK, ip
100005c0:	bd70      	pop	{r4, r5, r6, pc}
100005c2:	0010      	movs	r0, r2
100005c4:	f7ff ffc8 	bl	10000558 <panic>
100005c8:	d000012c 	.word	0xd000012c

100005cc <hw_claim_unused_from_range>:
100005cc:	b5f8      	push	{r3, r4, r5, r6, r7, lr}
100005ce:	4647      	mov	r7, r8
100005d0:	46ce      	mov	lr, r9
100005d2:	4688      	mov	r8, r1
100005d4:	b580      	push	{r7, lr}
100005d6:	f3ef 8c10 	mrs	ip, PRIMASK
100005da:	b672      	cpsid	i
100005dc:	4d21      	ldr	r5, [pc, #132]	@ (10000664 <hw_claim_unused_from_range+0x98>)
100005de:	682c      	ldr	r4, [r5, #0]
100005e0:	2c00      	cmp	r4, #0
100005e2:	d0fc      	beq.n	100005de <hw_claim_unused_from_range+0x12>
100005e4:	f3bf 8f5f 	dmb	sy
100005e8:	429a      	cmp	r2, r3
100005ea:	d82c      	bhi.n	10000646 <hw_claim_unused_from_range+0x7a>
100005ec:	08d4      	lsrs	r4, r2, #3
100005ee:	2707      	movs	r7, #7
100005f0:	5d05      	ldrb	r5, [r0, r4]
100005f2:	1906      	adds	r6, r0, r4
100005f4:	2401      	movs	r4, #1
100005f6:	4017      	ands	r7, r2
100005f8:	40bc      	lsls	r4, r7
100005fa:	422c      	tst	r4, r5
100005fc:	d01f      	beq.n	1000063e <hw_claim_unused_from_range+0x72>
100005fe:	2107      	movs	r1, #7
10000600:	2701      	movs	r7, #1
10000602:	4689      	mov	r9, r1
10000604:	e009      	b.n	1000061a <hw_claim_unused_from_range+0x4e>
10000606:	08d4      	lsrs	r4, r2, #3
10000608:	5d05      	ldrb	r5, [r0, r4]
1000060a:	1906      	adds	r6, r0, r4
1000060c:	464c      	mov	r4, r9
1000060e:	0039      	movs	r1, r7
10000610:	4014      	ands	r4, r2
10000612:	40a1      	lsls	r1, r4
10000614:	000c      	movs	r4, r1
10000616:	4229      	tst	r1, r5
10000618:	d011      	beq.n	1000063e <hw_claim_unused_from_range+0x72>
1000061a:	3201      	adds	r2, #1
1000061c:	4293      	cmp	r3, r2
1000061e:	d2f2      	bcs.n	10000606 <hw_claim_unused_from_range+0x3a>
10000620:	2001      	movs	r0, #1
10000622:	4240      	negs	r0, r0
10000624:	f3bf 8f5f 	dmb	sy
10000628:	2200      	movs	r2, #0
1000062a:	4b0e      	ldr	r3, [pc, #56]	@ (10000664 <hw_claim_unused_from_range+0x98>)
1000062c:	601a      	str	r2, [r3, #0]
1000062e:	f38c 8810 	msr	PRIMASK, ip
10000632:	2800      	cmp	r0, #0
10000634:	db0f      	blt.n	10000656 <hw_claim_unused_from_range+0x8a>
10000636:	bcc0      	pop	{r6, r7}
10000638:	46b9      	mov	r9, r7
1000063a:	46b0      	mov	r8, r6
1000063c:	bdf8      	pop	{r3, r4, r5, r6, r7, pc}
1000063e:	4325      	orrs	r5, r4
10000640:	0010      	movs	r0, r2
10000642:	7035      	strb	r5, [r6, #0]
10000644:	e7ee      	b.n	10000624 <hw_claim_unused_from_range+0x58>
10000646:	f3bf 8f5f 	dmb	sy
1000064a:	2300      	movs	r3, #0
1000064c:	602b      	str	r3, [r5, #0]
1000064e:	f38c 8810 	msr	PRIMASK, ip
10000652:	2001      	movs	r0, #1
10000654:	4240      	negs	r0, r0
10000656:	4643      	mov	r3, r8
10000658:	2b00      	cmp	r3, #0
1000065a:	d0ec      	beq.n	10000636 <hw_claim_unused_from_range+0x6a>
1000065c:	9808      	ldr	r0, [sp, #32]
1000065e:	f7ff ff7b 	bl	10000558 <panic>
10000662:	46c0      	nop			@ (mov r8, r8)
10000664:	d000012c 	.word	0xd000012c

10000668 <next_striped_spin_lock_num>:
10000668:	4a04      	ldr	r2, [pc, #16]	@ (1000067c <next_striped_spin_lock_num+0x14>)
1000066a:	7810      	ldrb	r0, [r2, #0]
1000066c:	1c43      	adds	r3, r0, #1
1000066e:	b2db      	uxtb	r3, r3
10000670:	2b17      	cmp	r3, #23
10000672:	d900      	bls.n	10000676 <next_striped_spin_lock_num+0xe>
10000674:	2310      	movs	r3, #16
10000676:	7013      	strb	r3, [r2, #0]
10000678:	4770      	bx	lr
1000067a:	46c0      	nop			@ (mov r8, r8)
1000067c:	20000f98 	.word	0x20000f98

10000680 <spin_lock_claim_unused>:
10000680:	b510      	push	{r4, lr}
10000682:	4b06      	ldr	r3, [pc, #24]	@ (1000069c <spin_lock_claim_unused+0x1c>)
10000684:	4c06      	ldr	r4, [pc, #24]	@ (100006a0 <spin_lock_claim_unused+0x20>)
10000686:	b082      	sub	sp, #8
10000688:	0001      	movs	r1, r0
1000068a:	9300      	str	r3, [sp, #0]
1000068c:	2218      	movs	r2, #24
1000068e:	231f      	movs	r3, #31
10000690:	0020      	movs	r0, r4
10000692:	f7ff ff9b 	bl	100005cc <hw_claim_unused_from_range>
10000696:	b002      	add	sp, #8
10000698:	bd10      	pop	{r4, pc}
1000069a:	46c0      	nop			@ (mov r8, r8)
1000069c:	10004758 	.word	0x10004758
100006a0:	20001b04 	.word	0x20001b04

100006a4 <spin_locks_reset>:
100006a4:	2100      	movs	r1, #0
100006a6:	4b04      	ldr	r3, [pc, #16]	@ (100006b8 <spin_locks_reset+0x14>)
100006a8:	4a04      	ldr	r2, [pc, #16]	@ (100006bc <spin_locks_reset+0x18>)
100006aa:	f3bf 8f5f 	dmb	sy
100006ae:	c302      	stmia	r3!, {r1}
100006b0:	4293      	cmp	r3, r2
100006b2:	d1fa      	bne.n	100006aa <spin_locks_reset+0x6>
100006b4:	4770      	bx	lr
100006b6:	46c0      	nop			@ (mov r8, r8)
100006b8:	d0000100 	.word	0xd0000100
100006bc:	d0000180 	.word	0xd0000180

100006c0 <runtime_init_per_core_irq_priorities>:
100006c0:	4b05      	ldr	r3, [pc, #20]	@ (100006d8 <runtime_init_per_core_irq_priorities+0x18>)
100006c2:	4a06      	ldr	r2, [pc, #24]	@ (100006dc <runtime_init_per_core_irq_priorities+0x1c>)
100006c4:	6013      	str	r3, [r2, #0]
100006c6:	4a06      	ldr	r2, [pc, #24]	@ (100006e0 <runtime_init_per_core_irq_priorities+0x20>)
100006c8:	6013      	str	r3, [r2, #0]
100006ca:	6053      	str	r3, [r2, #4]
100006cc:	6093      	str	r3, [r2, #8]
100006ce:	60d3      	str	r3, [r2, #12]
100006d0:	6113      	str	r3, [r2, #16]
100006d2:	6153      	str	r3, [r2, #20]
100006d4:	6193      	str	r3, [r2, #24]
100006d6:	4770      	bx	lr
100006d8:	80808080 	.word	0x80808080
100006dc:	e000e400 	.word	0xe000e400
100006e0:	e000e404 	.word	0xe000e404

100006e4 <irq_set_enabled>:
100006e4:	231f      	movs	r3, #31
100006e6:	4018      	ands	r0, r3
100006e8:	3b1e      	subs	r3, #30
100006ea:	4083      	lsls	r3, r0
100006ec:	2900      	cmp	r1, #0
100006ee:	d005      	beq.n	100006fc <irq_set_enabled+0x18>
100006f0:	21c0      	movs	r1, #192	@ 0xc0
100006f2:	4a04      	ldr	r2, [pc, #16]	@ (10000704 <irq_set_enabled+0x20>)
100006f4:	0049      	lsls	r1, r1, #1
100006f6:	5053      	str	r3, [r2, r1]
100006f8:	6013      	str	r3, [r2, #0]
100006fa:	4770      	bx	lr
100006fc:	2280      	movs	r2, #128	@ 0x80
100006fe:	4901      	ldr	r1, [pc, #4]	@ (10000704 <irq_set_enabled+0x20>)
10000700:	508b      	str	r3, [r1, r2]
10000702:	e7fa      	b.n	100006fa <irq_set_enabled+0x16>
10000704:	e000e100 	.word	0xe000e100

10000708 <irq_is_enabled>:
10000708:	2201      	movs	r2, #1
1000070a:	4082      	lsls	r2, r0
1000070c:	4b03      	ldr	r3, [pc, #12]	@ (1000071c <irq_is_enabled+0x14>)
1000070e:	681b      	ldr	r3, [r3, #0]
10000710:	4013      	ands	r3, r2
10000712:	1e5a      	subs	r2, r3, #1
10000714:	4193      	sbcs	r3, r2
10000716:	b2d8      	uxtb	r0, r3
10000718:	4770      	bx	lr
1000071a:	46c0      	nop			@ (mov r8, r8)
1000071c:	e000e100 	.word	0xe000e100

10000720 <irq_set_pending>:
10000720:	2301      	movs	r3, #1
10000722:	4083      	lsls	r3, r0
10000724:	4a01      	ldr	r2, [pc, #4]	@ (1000072c <irq_set_pending+0xc>)
10000726:	6013      	str	r3, [r2, #0]
10000728:	4770      	bx	lr
1000072a:	46c0      	nop			@ (mov r8, r8)
1000072c:	e000e200 	.word	0xe000e200

10000730 <irq_has_shared_handler>:
10000730:	4b08      	ldr	r3, [pc, #32]	@ (10000754 <irq_has_shared_handler+0x24>)
10000732:	3010      	adds	r0, #16
10000734:	689b      	ldr	r3, [r3, #8]
10000736:	0080      	lsls	r0, r0, #2
10000738:	58c3      	ldr	r3, [r0, r3]
1000073a:	2b00      	cmp	r3, #0
1000073c:	d007      	beq.n	1000074e <irq_has_shared_handler+0x1e>
1000073e:	4a06      	ldr	r2, [pc, #24]	@ (10000758 <irq_has_shared_handler+0x28>)
10000740:	2000      	movs	r0, #0
10000742:	1a9b      	subs	r3, r3, r2
10000744:	222f      	movs	r2, #47	@ 0x2f
10000746:	429a      	cmp	r2, r3
10000748:	4140      	adcs	r0, r0
1000074a:	b2c0      	uxtb	r0, r0
1000074c:	4770      	bx	lr
1000074e:	2000      	movs	r0, #0
10000750:	e7fc      	b.n	1000074c <irq_has_shared_handler+0x1c>
10000752:	46c0      	nop			@ (mov r8, r8)
10000754:	e000ed00 	.word	0xe000ed00
10000758:	20000f9c 	.word	0x20000f9c

1000075c <irq_set_exclusive_handler>:
1000075c:	b570      	push	{r4, r5, r6, lr}
1000075e:	000d      	movs	r5, r1
10000760:	f3ef 8610 	mrs	r6, PRIMASK
10000764:	b672      	cpsid	i
10000766:	4a0f      	ldr	r2, [pc, #60]	@ (100007a4 <irq_set_exclusive_handler+0x48>)
10000768:	6813      	ldr	r3, [r2, #0]
1000076a:	2b00      	cmp	r3, #0
1000076c:	d0fc      	beq.n	10000768 <irq_set_exclusive_handler+0xc>
1000076e:	f3bf 8f5f 	dmb	sy
10000772:	4b0d      	ldr	r3, [pc, #52]	@ (100007a8 <irq_set_exclusive_handler+0x4c>)
10000774:	3010      	adds	r0, #16
10000776:	689b      	ldr	r3, [r3, #8]
10000778:	0084      	lsls	r4, r0, #2
1000077a:	591b      	ldr	r3, [r3, r4]
1000077c:	4a0b      	ldr	r2, [pc, #44]	@ (100007ac <irq_set_exclusive_handler+0x50>)
1000077e:	4293      	cmp	r3, r2
10000780:	d003      	beq.n	1000078a <irq_set_exclusive_handler+0x2e>
10000782:	429d      	cmp	r5, r3
10000784:	d001      	beq.n	1000078a <irq_set_exclusive_handler+0x2e>
10000786:	f000 fff5 	bl	10001774 <hard_assertion_failure>
1000078a:	4b07      	ldr	r3, [pc, #28]	@ (100007a8 <irq_set_exclusive_handler+0x4c>)
1000078c:	689b      	ldr	r3, [r3, #8]
1000078e:	511d      	str	r5, [r3, r4]
10000790:	f3bf 8f5f 	dmb	sy
10000794:	f3bf 8f5f 	dmb	sy
10000798:	2200      	movs	r2, #0
1000079a:	4b02      	ldr	r3, [pc, #8]	@ (100007a4 <irq_set_exclusive_handler+0x48>)
1000079c:	601a      	str	r2, [r3, #0]
1000079e:	f386 8810 	msr	PRIMASK, r6
100007a2:	bd70      	pop	{r4, r5, r6, pc}
100007a4:	d0000124 	.word	0xd0000124
100007a8:	e000ed00 	.word	0xe000ed00
100007ac:	100001cd 	.word	0x100001cd

100007b0 <irq_add_shared_handler>:
100007b0:	b5f0      	push	{r4, r5, r6, r7, lr}
100007b2:	4657      	mov	r7, sl
100007b4:	464e      	mov	r6, r9
100007b6:	46de      	mov	lr, fp
100007b8:	4645      	mov	r5, r8
100007ba:	b5e0      	push	{r5, r6, r7, lr}
100007bc:	b085      	sub	sp, #20
100007be:	0006      	movs	r6, r0
100007c0:	9100      	str	r1, [sp, #0]
100007c2:	0017      	movs	r7, r2
100007c4:	f3ef 8b10 	mrs	fp, PRIMASK
100007c8:	b672      	cpsid	i
100007ca:	4a6a      	ldr	r2, [pc, #424]	@ (10000974 <irq_add_shared_handler+0x1c4>)
100007cc:	6813      	ldr	r3, [r2, #0]
100007ce:	2b00      	cmp	r3, #0
100007d0:	d0fc      	beq.n	100007cc <irq_add_shared_handler+0x1c>
100007d2:	f3bf 8f5f 	dmb	sy
100007d6:	2500      	movs	r5, #0
100007d8:	4b67      	ldr	r3, [pc, #412]	@ (10000978 <irq_add_shared_handler+0x1c8>)
100007da:	575d      	ldrsb	r5, [r3, r5]
100007dc:	469a      	mov	sl, r3
100007de:	2d00      	cmp	r5, #0
100007e0:	da00      	bge.n	100007e4 <irq_add_shared_handler+0x34>
100007e2:	e0a9      	b.n	10000938 <irq_add_shared_handler+0x188>
100007e4:	006b      	lsls	r3, r5, #1
100007e6:	4c65      	ldr	r4, [pc, #404]	@ (1000097c <irq_add_shared_handler+0x1cc>)
100007e8:	9301      	str	r3, [sp, #4]
100007ea:	195b      	adds	r3, r3, r5
100007ec:	009b      	lsls	r3, r3, #2
100007ee:	4698      	mov	r8, r3
100007f0:	46a1      	mov	r9, r4
100007f2:	44c1      	add	r9, r8
100007f4:	464b      	mov	r3, r9
100007f6:	4652      	mov	r2, sl
100007f8:	799b      	ldrb	r3, [r3, #6]
100007fa:	3610      	adds	r6, #16
100007fc:	7013      	strb	r3, [r2, #0]
100007fe:	4b60      	ldr	r3, [pc, #384]	@ (10000980 <irq_add_shared_handler+0x1d0>)
10000800:	00b6      	lsls	r6, r6, #2
10000802:	689b      	ldr	r3, [r3, #8]
10000804:	5999      	ldr	r1, [r3, r6]
10000806:	1b0b      	subs	r3, r1, r4
10000808:	2b2f      	cmp	r3, #47	@ 0x2f
1000080a:	d933      	bls.n	10000874 <irq_add_shared_handler+0xc4>
1000080c:	4b5d      	ldr	r3, [pc, #372]	@ (10000984 <irq_add_shared_handler+0x1d4>)
1000080e:	4299      	cmp	r1, r3
10000810:	d000      	beq.n	10000814 <irq_add_shared_handler+0x64>
10000812:	e0ac      	b.n	1000096e <irq_add_shared_handler+0x1be>
10000814:	9b01      	ldr	r3, [sp, #4]
10000816:	4642      	mov	r2, r8
10000818:	469c      	mov	ip, r3
1000081a:	4b5b      	ldr	r3, [pc, #364]	@ (10000988 <irq_add_shared_handler+0x1d8>)
1000081c:	4465      	add	r5, ip
1000081e:	00ad      	lsls	r5, r5, #2
10000820:	5363      	strh	r3, [r4, r5]
10000822:	4b5a      	ldr	r3, [pc, #360]	@ (1000098c <irq_add_shared_handler+0x1dc>)
10000824:	3202      	adds	r2, #2
10000826:	18a2      	adds	r2, r4, r2
10000828:	3b04      	subs	r3, #4
1000082a:	1a9b      	subs	r3, r3, r2
1000082c:	051b      	lsls	r3, r3, #20
1000082e:	4a58      	ldr	r2, [pc, #352]	@ (10000990 <irq_add_shared_handler+0x1e0>)
10000830:	0d5b      	lsrs	r3, r3, #21
10000832:	1965      	adds	r5, r4, r5
10000834:	4313      	orrs	r3, r2
10000836:	806b      	strh	r3, [r5, #2]
10000838:	4b56      	ldr	r3, [pc, #344]	@ (10000994 <irq_add_shared_handler+0x1e4>)
1000083a:	2101      	movs	r1, #1
1000083c:	80ab      	strh	r3, [r5, #4]
1000083e:	23ff      	movs	r3, #255	@ 0xff
10000840:	71ab      	strb	r3, [r5, #6]
10000842:	9b00      	ldr	r3, [sp, #0]
10000844:	71ef      	strb	r7, [r5, #7]
10000846:	60ab      	str	r3, [r5, #8]
10000848:	464b      	mov	r3, r9
1000084a:	430b      	orrs	r3, r1
1000084c:	0019      	movs	r1, r3
1000084e:	4b4c      	ldr	r3, [pc, #304]	@ (10000980 <irq_add_shared_handler+0x1d0>)
10000850:	689b      	ldr	r3, [r3, #8]
10000852:	5199      	str	r1, [r3, r6]
10000854:	f3bf 8f5f 	dmb	sy
10000858:	f3bf 8f5f 	dmb	sy
1000085c:	2200      	movs	r2, #0
1000085e:	4b45      	ldr	r3, [pc, #276]	@ (10000974 <irq_add_shared_handler+0x1c4>)
10000860:	601a      	str	r2, [r3, #0]
10000862:	f38b 8810 	msr	PRIMASK, fp
10000866:	b005      	add	sp, #20
10000868:	bcf0      	pop	{r4, r5, r6, r7}
1000086a:	46bb      	mov	fp, r7
1000086c:	46b2      	mov	sl, r6
1000086e:	46a9      	mov	r9, r5
10000870:	46a0      	mov	r8, r4
10000872:	bdf0      	pop	{r4, r5, r6, r7, pc}
10000874:	2001      	movs	r0, #1
10000876:	000a      	movs	r2, r1
10000878:	4382      	bics	r2, r0
1000087a:	79d3      	ldrb	r3, [r2, #7]
1000087c:	468c      	mov	ip, r1
1000087e:	42bb      	cmp	r3, r7
10000880:	d831      	bhi.n	100008e6 <irq_add_shared_handler+0x136>
10000882:	4645      	mov	r5, r8
10000884:	0013      	movs	r3, r2
10000886:	4944      	ldr	r1, [pc, #272]	@ (10000998 <irq_add_shared_handler+0x1e8>)
10000888:	1b1b      	subs	r3, r3, r4
1000088a:	415b      	adcs	r3, r3
1000088c:	4359      	muls	r1, r3
1000088e:	0d09      	lsrs	r1, r1, #20
10000890:	4b3d      	ldr	r3, [pc, #244]	@ (10000988 <irq_add_shared_handler+0x1d8>)
10000892:	5363      	strh	r3, [r4, r5]
10000894:	4b3d      	ldr	r3, [pc, #244]	@ (1000098c <irq_add_shared_handler+0x1dc>)
10000896:	3502      	adds	r5, #2
10000898:	1965      	adds	r5, r4, r5
1000089a:	3b04      	subs	r3, #4
1000089c:	1b5b      	subs	r3, r3, r5
1000089e:	051b      	lsls	r3, r3, #20
100008a0:	4d3b      	ldr	r5, [pc, #236]	@ (10000990 <irq_add_shared_handler+0x1e0>)
100008a2:	0d5b      	lsrs	r3, r3, #21
100008a4:	432b      	orrs	r3, r5
100008a6:	46aa      	mov	sl, r5
100008a8:	464d      	mov	r5, r9
100008aa:	806b      	strh	r3, [r5, #2]
100008ac:	2504      	movs	r5, #4
100008ae:	46ac      	mov	ip, r5
100008b0:	4655      	mov	r5, sl
100008b2:	44e0      	add	r8, ip
100008b4:	1f13      	subs	r3, r2, #4
100008b6:	4444      	add	r4, r8
100008b8:	1b1b      	subs	r3, r3, r4
100008ba:	051b      	lsls	r3, r3, #20
100008bc:	0d5b      	lsrs	r3, r3, #21
100008be:	431d      	orrs	r5, r3
100008c0:	464b      	mov	r3, r9
100008c2:	7199      	strb	r1, [r3, #6]
100008c4:	9900      	ldr	r1, [sp, #0]
100008c6:	809d      	strh	r5, [r3, #4]
100008c8:	6099      	str	r1, [r3, #8]
100008ca:	4649      	mov	r1, r9
100008cc:	71df      	strb	r7, [r3, #7]
100008ce:	4b33      	ldr	r3, [pc, #204]	@ (1000099c <irq_add_shared_handler+0x1ec>)
100008d0:	4301      	orrs	r1, r0
100008d2:	6013      	str	r3, [r2, #0]
100008d4:	e7bb      	b.n	1000084e <irq_add_shared_handler+0x9e>
100008d6:	0058      	lsls	r0, r3, #1
100008d8:	18c0      	adds	r0, r0, r3
100008da:	0080      	lsls	r0, r0, #2
100008dc:	1820      	adds	r0, r4, r0
100008de:	79c1      	ldrb	r1, [r0, #7]
100008e0:	42b9      	cmp	r1, r7
100008e2:	d92f      	bls.n	10000944 <irq_add_shared_handler+0x194>
100008e4:	0002      	movs	r2, r0
100008e6:	2306      	movs	r3, #6
100008e8:	56d3      	ldrsb	r3, [r2, r3]
100008ea:	2b00      	cmp	r3, #0
100008ec:	daf3      	bge.n	100008d6 <irq_add_shared_handler+0x126>
100008ee:	9302      	str	r3, [sp, #8]
100008f0:	4b2b      	ldr	r3, [pc, #172]	@ (100009a0 <irq_add_shared_handler+0x1f0>)
100008f2:	4661      	mov	r1, ip
100008f4:	9303      	str	r3, [sp, #12]
100008f6:	1d13      	adds	r3, r2, #4
100008f8:	469a      	mov	sl, r3
100008fa:	2304      	movs	r3, #4
100008fc:	425b      	negs	r3, r3
100008fe:	469c      	mov	ip, r3
10000900:	44e1      	add	r9, ip
10000902:	4650      	mov	r0, sl
10000904:	464b      	mov	r3, r9
10000906:	1a1b      	subs	r3, r3, r0
10000908:	051b      	lsls	r3, r3, #20
1000090a:	0d5b      	lsrs	r3, r3, #21
1000090c:	469c      	mov	ip, r3
1000090e:	4b20      	ldr	r3, [pc, #128]	@ (10000990 <irq_add_shared_handler+0x1e0>)
10000910:	7195      	strb	r5, [r2, #6]
10000912:	4698      	mov	r8, r3
10000914:	4663      	mov	r3, ip
10000916:	4640      	mov	r0, r8
10000918:	4303      	orrs	r3, r0
1000091a:	8093      	strh	r3, [r2, #4]
1000091c:	9b01      	ldr	r3, [sp, #4]
1000091e:	195a      	adds	r2, r3, r5
10000920:	0092      	lsls	r2, r2, #2
10000922:	9b03      	ldr	r3, [sp, #12]
10000924:	18a4      	adds	r4, r4, r2
10000926:	80a3      	strh	r3, [r4, #4]
10000928:	9b02      	ldr	r3, [sp, #8]
1000092a:	4a1c      	ldr	r2, [pc, #112]	@ (1000099c <irq_add_shared_handler+0x1ec>)
1000092c:	71a3      	strb	r3, [r4, #6]
1000092e:	9b00      	ldr	r3, [sp, #0]
10000930:	6022      	str	r2, [r4, #0]
10000932:	71e7      	strb	r7, [r4, #7]
10000934:	60a3      	str	r3, [r4, #8]
10000936:	e78a      	b.n	1000084e <irq_add_shared_handler+0x9e>
10000938:	f000 ff1c 	bl	10001774 <hard_assertion_failure>
1000093c:	2500      	movs	r5, #0
1000093e:	4653      	mov	r3, sl
10000940:	575d      	ldrsb	r5, [r3, r5]
10000942:	e74f      	b.n	100007e4 <irq_add_shared_handler+0x34>
10000944:	8890      	ldrh	r0, [r2, #4]
10000946:	9302      	str	r3, [sp, #8]
10000948:	0540      	lsls	r0, r0, #21
1000094a:	1d13      	adds	r3, r2, #4
1000094c:	469a      	mov	sl, r3
1000094e:	1503      	asrs	r3, r0, #20
10000950:	4661      	mov	r1, ip
10000952:	469c      	mov	ip, r3
10000954:	4640      	mov	r0, r8
10000956:	44d4      	add	ip, sl
10000958:	4663      	mov	r3, ip
1000095a:	3004      	adds	r0, #4
1000095c:	1820      	adds	r0, r4, r0
1000095e:	1a18      	subs	r0, r3, r0
10000960:	23e0      	movs	r3, #224	@ 0xe0
10000962:	0500      	lsls	r0, r0, #20
10000964:	0d40      	lsrs	r0, r0, #21
10000966:	021b      	lsls	r3, r3, #8
10000968:	4318      	orrs	r0, r3
1000096a:	9003      	str	r0, [sp, #12]
1000096c:	e7c5      	b.n	100008fa <irq_add_shared_handler+0x14a>
1000096e:	f000 ff01 	bl	10001774 <hard_assertion_failure>
10000972:	e74f      	b.n	10000814 <irq_add_shared_handler+0x64>
10000974:	d0000124 	.word	0xd0000124
10000978:	200020d1 	.word	0x200020d1
1000097c:	20000f9c 	.word	0x20000f9c
10000980:	e000ed00 	.word	0xe000ed00
10000984:	100001cd 	.word	0x100001cd
10000988:	ffffa100 	.word	0xffffa100
1000098c:	20000fcc 	.word	0x20000fcc
10000990:	ffffe000 	.word	0xffffe000
10000994:	ffffbd01 	.word	0xffffbd01
10000998:	0000aaaa 	.word	0x0000aaaa
1000099c:	47804801 	.word	0x47804801
100009a0:	0000bd01 	.word	0x0000bd01

100009a4 <irq_add_tail_to_free_list>:
100009a4:	b570      	push	{r4, r5, r6, lr}
100009a6:	2401      	movs	r4, #1
100009a8:	4304      	orrs	r4, r0
100009aa:	f3ef 8105 	mrs	r1, IPSR
100009ae:	f3ef 8c10 	mrs	ip, PRIMASK
100009b2:	b672      	cpsid	i
100009b4:	4a21      	ldr	r2, [pc, #132]	@ (10000a3c <irq_add_tail_to_free_list+0x98>)
100009b6:	6813      	ldr	r3, [r2, #0]
100009b8:	2b00      	cmp	r3, #0
100009ba:	d0fc      	beq.n	100009b6 <irq_add_tail_to_free_list+0x12>
100009bc:	f3bf 8f5f 	dmb	sy
100009c0:	4b1f      	ldr	r3, [pc, #124]	@ (10000a40 <irq_add_tail_to_free_list+0x9c>)
100009c2:	0005      	movs	r5, r0
100009c4:	4a1f      	ldr	r2, [pc, #124]	@ (10000a44 <irq_add_tail_to_free_list+0xa0>)
100009c6:	1aed      	subs	r5, r5, r3
100009c8:	416d      	adcs	r5, r5
100009ca:	436a      	muls	r2, r5
100009cc:	0d12      	lsrs	r2, r2, #20
100009ce:	4d1e      	ldr	r5, [pc, #120]	@ (10000a48 <irq_add_tail_to_free_list+0xa4>)
100009d0:	0089      	lsls	r1, r1, #2
100009d2:	68ae      	ldr	r6, [r5, #8]
100009d4:	b252      	sxtb	r2, r2
100009d6:	5876      	ldr	r6, [r6, r1]
100009d8:	42a6      	cmp	r6, r4
100009da:	d01c      	beq.n	10000a16 <irq_add_tail_to_free_list+0x72>
100009dc:	2106      	movs	r1, #6
100009de:	5659      	ldrsb	r1, [r3, r1]
100009e0:	4291      	cmp	r1, r2
100009e2:	d01c      	beq.n	10000a1e <irq_add_tail_to_free_list+0x7a>
100009e4:	2112      	movs	r1, #18
100009e6:	5659      	ldrsb	r1, [r3, r1]
100009e8:	4291      	cmp	r1, r2
100009ea:	d022      	beq.n	10000a32 <irq_add_tail_to_free_list+0x8e>
100009ec:	211e      	movs	r1, #30
100009ee:	5659      	ldrsb	r1, [r3, r1]
100009f0:	4291      	cmp	r1, r2
100009f2:	d020      	beq.n	10000a36 <irq_add_tail_to_free_list+0x92>
100009f4:	212a      	movs	r1, #42	@ 0x2a
100009f6:	5659      	ldrsb	r1, [r3, r1]
100009f8:	2403      	movs	r4, #3
100009fa:	4291      	cmp	r1, r2
100009fc:	d010      	beq.n	10000a20 <irq_add_tail_to_free_list+0x7c>
100009fe:	4b13      	ldr	r3, [pc, #76]	@ (10000a4c <irq_add_tail_to_free_list+0xa8>)
10000a00:	7819      	ldrb	r1, [r3, #0]
10000a02:	701a      	strb	r2, [r3, #0]
10000a04:	7181      	strb	r1, [r0, #6]
10000a06:	f3bf 8f5f 	dmb	sy
10000a0a:	2200      	movs	r2, #0
10000a0c:	4b0b      	ldr	r3, [pc, #44]	@ (10000a3c <irq_add_tail_to_free_list+0x98>)
10000a0e:	601a      	str	r2, [r3, #0]
10000a10:	f38c 8810 	msr	PRIMASK, ip
10000a14:	bd70      	pop	{r4, r5, r6, pc}
10000a16:	68ab      	ldr	r3, [r5, #8]
10000a18:	4c0d      	ldr	r4, [pc, #52]	@ (10000a50 <irq_add_tail_to_free_list+0xac>)
10000a1a:	505c      	str	r4, [r3, r1]
10000a1c:	e7ef      	b.n	100009fe <irq_add_tail_to_free_list+0x5a>
10000a1e:	2400      	movs	r4, #0
10000a20:	0061      	lsls	r1, r4, #1
10000a22:	1909      	adds	r1, r1, r4
10000a24:	0089      	lsls	r1, r1, #2
10000a26:	185b      	adds	r3, r3, r1
10000a28:	21ff      	movs	r1, #255	@ 0xff
10000a2a:	7199      	strb	r1, [r3, #6]
10000a2c:	4909      	ldr	r1, [pc, #36]	@ (10000a54 <irq_add_tail_to_free_list+0xb0>)
10000a2e:	8099      	strh	r1, [r3, #4]
10000a30:	e7e5      	b.n	100009fe <irq_add_tail_to_free_list+0x5a>
10000a32:	2401      	movs	r4, #1
10000a34:	e7f4      	b.n	10000a20 <irq_add_tail_to_free_list+0x7c>
10000a36:	2402      	movs	r4, #2
10000a38:	e7f2      	b.n	10000a20 <irq_add_tail_to_free_list+0x7c>
10000a3a:	46c0      	nop			@ (mov r8, r8)
10000a3c:	d0000124 	.word	0xd0000124
10000a40:	20000f9c 	.word	0x20000f9c
10000a44:	0000aaaa 	.word	0x0000aaaa
10000a48:	e000ed00 	.word	0xe000ed00
10000a4c:	200020d1 	.word	0x200020d1
10000a50:	100001cd 	.word	0x100001cd
10000a54:	ffffbd01 	.word	0xffffbd01

10000a58 <user_irq_claim_unused>:
10000a58:	b510      	push	{r4, lr}
10000a5a:	4b08      	ldr	r3, [pc, #32]	@ (10000a7c <user_irq_claim_unused+0x24>)
10000a5c:	4c08      	ldr	r4, [pc, #32]	@ (10000a80 <user_irq_claim_unused+0x28>)
10000a5e:	b082      	sub	sp, #8
10000a60:	0001      	movs	r1, r0
10000a62:	9300      	str	r3, [sp, #0]
10000a64:	2200      	movs	r2, #0
10000a66:	2305      	movs	r3, #5
10000a68:	0020      	movs	r0, r4
10000a6a:	f7ff fdaf 	bl	100005cc <hw_claim_unused_from_range>
10000a6e:	2800      	cmp	r0, #0
10000a70:	db01      	blt.n	10000a76 <user_irq_claim_unused+0x1e>
10000a72:	231f      	movs	r3, #31
10000a74:	1a18      	subs	r0, r3, r0
10000a76:	b002      	add	sp, #8
10000a78:	bd10      	pop	{r4, pc}
10000a7a:	46c0      	nop			@ (mov r8, r8)
10000a7c:	10004774 	.word	0x10004774
10000a80:	200020d5 	.word	0x200020d5

10000a84 <lock_init>:
10000a84:	4b02      	ldr	r3, [pc, #8]	@ (10000a90 <lock_init+0xc>)
10000a86:	469c      	mov	ip, r3
10000a88:	4461      	add	r1, ip
10000a8a:	0089      	lsls	r1, r1, #2
10000a8c:	6001      	str	r1, [r0, #0]
10000a8e:	4770      	bx	lr
10000a90:	34000040 	.word	0x34000040

10000a94 <runtime_init_mutex>:
10000a94:	b570      	push	{r4, r5, r6, lr}
10000a96:	4c11      	ldr	r4, [pc, #68]	@ (10000adc <runtime_init_mutex+0x48>)
10000a98:	4d11      	ldr	r5, [pc, #68]	@ (10000ae0 <runtime_init_mutex+0x4c>)
10000a9a:	42ac      	cmp	r4, r5
10000a9c:	d20f      	bcs.n	10000abe <runtime_init_mutex+0x2a>
10000a9e:	26ff      	movs	r6, #255	@ 0xff
10000aa0:	6823      	ldr	r3, [r4, #0]
10000aa2:	2b00      	cmp	r3, #0
10000aa4:	d00c      	beq.n	10000ac0 <runtime_init_mutex+0x2c>
10000aa6:	f7ff fddf 	bl	10000668 <next_striped_spin_lock_num>
10000aaa:	0001      	movs	r1, r0
10000aac:	0020      	movs	r0, r4
10000aae:	f7ff ffe9 	bl	10000a84 <lock_init>
10000ab2:	80a6      	strh	r6, [r4, #4]
10000ab4:	f3bf 8f5f 	dmb	sy
10000ab8:	3408      	adds	r4, #8
10000aba:	42ac      	cmp	r4, r5
10000abc:	d3f0      	bcc.n	10000aa0 <runtime_init_mutex+0xc>
10000abe:	bd70      	pop	{r4, r5, r6, pc}
10000ac0:	f7ff fdd2 	bl	10000668 <next_striped_spin_lock_num>
10000ac4:	0001      	movs	r1, r0
10000ac6:	0020      	movs	r0, r4
10000ac8:	f7ff ffdc 	bl	10000a84 <lock_init>
10000acc:	7126      	strb	r6, [r4, #4]
10000ace:	f3bf 8f5f 	dmb	sy
10000ad2:	3408      	adds	r4, #8
10000ad4:	42ac      	cmp	r4, r5
10000ad6:	d3e3      	bcc.n	10000aa0 <runtime_init_mutex+0xc>
10000ad8:	e7f1      	b.n	10000abe <runtime_init_mutex+0x2a>
10000ada:	46c0      	nop			@ (mov r8, r8)
10000adc:	20001058 	.word	0x20001058
10000ae0:	20001060 	.word	0x20001060

10000ae4 <mutex_init>:
10000ae4:	b510      	push	{r4, lr}
10000ae6:	0004      	movs	r4, r0
10000ae8:	f7ff fdbe 	bl	10000668 <next_striped_spin_lock_num>
10000aec:	0001      	movs	r1, r0
10000aee:	0020      	movs	r0, r4
10000af0:	f7ff ffc8 	bl	10000a84 <lock_init>
10000af4:	23ff      	movs	r3, #255	@ 0xff
10000af6:	7123      	strb	r3, [r4, #4]
10000af8:	f3bf 8f5f 	dmb	sy
10000afc:	bd10      	pop	{r4, pc}
10000afe:	46c0      	nop			@ (mov r8, r8)

10000b00 <critical_section_init>:
10000b00:	b510      	push	{r4, lr}
10000b02:	0004      	movs	r4, r0
10000b04:	2001      	movs	r0, #1
10000b06:	f7ff fdbb 	bl	10000680 <spin_lock_claim_unused>
10000b0a:	4b03      	ldr	r3, [pc, #12]	@ (10000b18 <critical_section_init+0x18>)
10000b0c:	18c3      	adds	r3, r0, r3
10000b0e:	009b      	lsls	r3, r3, #2
10000b10:	6023      	str	r3, [r4, #0]
10000b12:	f3bf 8f5f 	dmb	sy
10000b16:	bd10      	pop	{r4, pc}
10000b18:	34000040 	.word	0x34000040

10000b1c <critical_section_init_with_lock_num>:
10000b1c:	4b03      	ldr	r3, [pc, #12]	@ (10000b2c <critical_section_init_with_lock_num+0x10>)
10000b1e:	469c      	mov	ip, r3
10000b20:	4461      	add	r1, ip
10000b22:	0089      	lsls	r1, r1, #2
10000b24:	6001      	str	r1, [r0, #0]
10000b26:	f3bf 8f5f 	dmb	sy
10000b2a:	4770      	bx	lr
10000b2c:	34000040 	.word	0x34000040

10000b30 <sleep_until_callback>:
10000b30:	4b0a      	ldr	r3, [pc, #40]	@ (10000b5c <sleep_until_callback+0x2c>)
10000b32:	6819      	ldr	r1, [r3, #0]
10000b34:	f3ef 8010 	mrs	r0, PRIMASK
10000b38:	b672      	cpsid	i
10000b3a:	680a      	ldr	r2, [r1, #0]
10000b3c:	2a00      	cmp	r2, #0
10000b3e:	d0fc      	beq.n	10000b3a <sleep_until_callback+0xa>
10000b40:	f3bf 8f5f 	dmb	sy
10000b44:	681b      	ldr	r3, [r3, #0]
10000b46:	f3bf 8f5f 	dmb	sy
10000b4a:	2200      	movs	r2, #0
10000b4c:	601a      	str	r2, [r3, #0]
10000b4e:	f380 8810 	msr	PRIMASK, r0
10000b52:	bf40      	sev
10000b54:	2000      	movs	r0, #0
10000b56:	2100      	movs	r1, #0
10000b58:	4770      	bx	lr
10000b5a:	46c0      	nop			@ (mov r8, r8)
10000b5c:	200020b0 	.word	0x200020b0

10000b60 <alarm_pool_irq_handler>:
10000b60:	b5f0      	push	{r4, r5, r6, r7, lr}
10000b62:	46de      	mov	lr, fp
10000b64:	4657      	mov	r7, sl
10000b66:	464e      	mov	r6, r9
10000b68:	4645      	mov	r5, r8
10000b6a:	b5e0      	push	{r5, r6, r7, lr}
10000b6c:	b083      	sub	sp, #12
10000b6e:	f3ef 8205 	mrs	r2, IPSR
10000b72:	2303      	movs	r3, #3
10000b74:	4013      	ands	r3, r2
10000b76:	4ab5      	ldr	r2, [pc, #724]	@ (10000e4c <alarm_pool_irq_handler+0x2ec>)
10000b78:	0099      	lsls	r1, r3, #2
10000b7a:	5852      	ldr	r2, [r2, r1]
10000b7c:	9100      	str	r1, [sp, #0]
10000b7e:	4690      	mov	r8, r2
10000b80:	2201      	movs	r2, #1
10000b82:	409a      	lsls	r2, r3
10000b84:	4bb2      	ldr	r3, [pc, #712]	@ (10000e50 <alarm_pool_irq_handler+0x2f0>)
10000b86:	4693      	mov	fp, r2
10000b88:	601a      	str	r2, [r3, #0]
10000b8a:	4bb2      	ldr	r3, [pc, #712]	@ (10000e54 <alarm_pool_irq_handler+0x2f4>)
10000b8c:	9301      	str	r3, [sp, #4]
10000b8e:	e02e      	b.n	10000bee <alarm_pool_irq_handler+0x8e>
10000b90:	4643      	mov	r3, r8
10000b92:	889b      	ldrh	r3, [r3, #4]
10000b94:	b21b      	sxth	r3, r3
10000b96:	2b00      	cmp	r3, #0
10000b98:	db00      	blt.n	10000b9c <alarm_pool_irq_handler+0x3c>
10000b9a:	e099      	b.n	10000cd0 <alarm_pool_irq_handler+0x170>
10000b9c:	4643      	mov	r3, r8
10000b9e:	799b      	ldrb	r3, [r3, #6]
10000ba0:	2b00      	cmp	r3, #0
10000ba2:	d000      	beq.n	10000ba6 <alarm_pool_irq_handler+0x46>
10000ba4:	e0dd      	b.n	10000d62 <alarm_pool_irq_handler+0x202>
10000ba6:	4643      	mov	r3, r8
10000ba8:	2408      	movs	r4, #8
10000baa:	5f1c      	ldrsh	r4, [r3, r4]
10000bac:	2c00      	cmp	r4, #0
10000bae:	da00      	bge.n	10000bb2 <alarm_pool_irq_handler+0x52>
10000bb0:	e106      	b.n	10000dc0 <alarm_pool_irq_handler+0x260>
10000bb2:	4643      	mov	r3, r8
10000bb4:	695a      	ldr	r2, [r3, #20]
10000bb6:	0063      	lsls	r3, r4, #1
10000bb8:	191b      	adds	r3, r3, r4
10000bba:	00db      	lsls	r3, r3, #3
10000bbc:	18d3      	adds	r3, r2, r3
10000bbe:	689d      	ldr	r5, [r3, #8]
10000bc0:	68dc      	ldr	r4, [r3, #12]
10000bc2:	1c6b      	adds	r3, r5, #1
10000bc4:	d100      	bne.n	10000bc8 <alarm_pool_irq_handler+0x68>
10000bc6:	e107      	b.n	10000dd8 <alarm_pool_irq_handler+0x278>
10000bc8:	4ba3      	ldr	r3, [pc, #652]	@ (10000e58 <alarm_pool_irq_handler+0x2f8>)
10000bca:	9900      	ldr	r1, [sp, #0]
10000bcc:	469c      	mov	ip, r3
10000bce:	4461      	add	r1, ip
10000bd0:	6a9a      	ldr	r2, [r3, #40]	@ 0x28
10000bd2:	690b      	ldr	r3, [r1, #16]
10000bd4:	1aa8      	subs	r0, r5, r2
10000bd6:	1a9b      	subs	r3, r3, r2
10000bd8:	4298      	cmp	r0, r3
10000bda:	d200      	bcs.n	10000bde <alarm_pool_irq_handler+0x7e>
10000bdc:	610d      	str	r5, [r1, #16]
10000bde:	489e      	ldr	r0, [pc, #632]	@ (10000e58 <alarm_pool_irq_handler+0x2f8>)
10000be0:	f000 fbae 	bl	10001340 <timer_time_us_64>
10000be4:	428c      	cmp	r4, r1
10000be6:	dd00      	ble.n	10000bea <alarm_pool_irq_handler+0x8a>
10000be8:	e0ea      	b.n	10000dc0 <alarm_pool_irq_handler+0x260>
10000bea:	d100      	bne.n	10000bee <alarm_pool_irq_handler+0x8e>
10000bec:	e126      	b.n	10000e3c <alarm_pool_irq_handler+0x2dc>
10000bee:	465b      	mov	r3, fp
10000bf0:	4899      	ldr	r0, [pc, #612]	@ (10000e58 <alarm_pool_irq_handler+0x2f8>)
10000bf2:	6343      	str	r3, [r0, #52]	@ 0x34
10000bf4:	4643      	mov	r3, r8
10000bf6:	2208      	movs	r2, #8
10000bf8:	5e9b      	ldrsh	r3, [r3, r2]
10000bfa:	4699      	mov	r9, r3
10000bfc:	2b00      	cmp	r3, #0
10000bfe:	dbc7      	blt.n	10000b90 <alarm_pool_irq_handler+0x30>
10000c00:	4642      	mov	r2, r8
10000c02:	6952      	ldr	r2, [r2, #20]
10000c04:	005b      	lsls	r3, r3, #1
10000c06:	4692      	mov	sl, r2
10000c08:	444b      	add	r3, r9
10000c0a:	00db      	lsls	r3, r3, #3
10000c0c:	449a      	add	sl, r3
10000c0e:	4653      	mov	r3, sl
10000c10:	689e      	ldr	r6, [r3, #8]
10000c12:	68df      	ldr	r7, [r3, #12]
10000c14:	f000 fb94 	bl	10001340 <timer_time_us_64>
10000c18:	428f      	cmp	r7, r1
10000c1a:	dcb9      	bgt.n	10000b90 <alarm_pool_irq_handler+0x30>
10000c1c:	d100      	bne.n	10000c20 <alarm_pool_irq_handler+0xc0>
10000c1e:	e100      	b.n	10000e22 <alarm_pool_irq_handler+0x2c2>
10000c20:	2f00      	cmp	r7, #0
10000c22:	da00      	bge.n	10000c26 <alarm_pool_irq_handler+0xc6>
10000c24:	e0e1      	b.n	10000dea <alarm_pool_irq_handler+0x28a>
10000c26:	4652      	mov	r2, sl
10000c28:	4653      	mov	r3, sl
10000c2a:	6954      	ldr	r4, [r2, #20]
10000c2c:	691b      	ldr	r3, [r3, #16]
10000c2e:	9a01      	ldr	r2, [sp, #4]
10000c30:	4293      	cmp	r3, r2
10000c32:	d100      	bne.n	10000c36 <alarm_pool_irq_handler+0xd6>
10000c34:	e0d4      	b.n	10000de0 <alarm_pool_irq_handler+0x280>
10000c36:	4641      	mov	r1, r8
10000c38:	4652      	mov	r2, sl
10000c3a:	2008      	movs	r0, #8
10000c3c:	5e08      	ldrsh	r0, [r1, r0]
10000c3e:	8852      	ldrh	r2, [r2, #2]
10000c40:	0400      	lsls	r0, r0, #16
10000c42:	0021      	movs	r1, r4
10000c44:	4310      	orrs	r0, r2
10000c46:	4798      	blx	r3
10000c48:	0004      	movs	r4, r0
10000c4a:	000d      	movs	r5, r1
10000c4c:	0023      	movs	r3, r4
10000c4e:	432b      	orrs	r3, r5
10000c50:	d100      	bne.n	10000c54 <alarm_pool_irq_handler+0xf4>
10000c52:	e0ca      	b.n	10000dea <alarm_pool_irq_handler+0x28a>
10000c54:	2d00      	cmp	r5, #0
10000c56:	db00      	blt.n	10000c5a <alarm_pool_irq_handler+0xfa>
10000c58:	e0e7      	b.n	10000e2a <alarm_pool_irq_handler+0x2ca>
10000c5a:	0030      	movs	r0, r6
10000c5c:	0039      	movs	r1, r7
10000c5e:	1b00      	subs	r0, r0, r4
10000c60:	41a9      	sbcs	r1, r5
10000c62:	4653      	mov	r3, sl
10000c64:	6098      	str	r0, [r3, #8]
10000c66:	60d9      	str	r1, [r3, #12]
10000c68:	2200      	movs	r2, #0
10000c6a:	5e9a      	ldrsh	r2, [r3, r2]
10000c6c:	2a00      	cmp	r2, #0
10000c6e:	db8f      	blt.n	10000b90 <alarm_pool_irq_handler+0x30>
10000c70:	4643      	mov	r3, r8
10000c72:	695d      	ldr	r5, [r3, #20]
10000c74:	0053      	lsls	r3, r2, #1
10000c76:	189c      	adds	r4, r3, r2
10000c78:	00e4      	lsls	r4, r4, #3
10000c7a:	192c      	adds	r4, r5, r4
10000c7c:	68a7      	ldr	r7, [r4, #8]
10000c7e:	68e4      	ldr	r4, [r4, #12]
10000c80:	428c      	cmp	r4, r1
10000c82:	dd00      	ble.n	10000c86 <alarm_pool_irq_handler+0x126>
10000c84:	e784      	b.n	10000b90 <alarm_pool_irq_handler+0x30>
10000c86:	d102      	bne.n	10000c8e <alarm_pool_irq_handler+0x12e>
10000c88:	4287      	cmp	r7, r0
10000c8a:	d900      	bls.n	10000c8e <alarm_pool_irq_handler+0x12e>
10000c8c:	e780      	b.n	10000b90 <alarm_pool_irq_handler+0x30>
10000c8e:	4646      	mov	r6, r8
10000c90:	8132      	strh	r2, [r6, #8]
10000c92:	3608      	adds	r6, #8
10000c94:	e00d      	b.n	10000cb2 <alarm_pool_irq_handler+0x152>
10000c96:	428c      	cmp	r4, r1
10000c98:	d100      	bne.n	10000c9c <alarm_pool_irq_handler+0x13c>
10000c9a:	e0d3      	b.n	10000e44 <alarm_pool_irq_handler+0x2e4>
10000c9c:	001e      	movs	r6, r3
10000c9e:	2300      	movs	r3, #0
10000ca0:	5ef2      	ldrsh	r2, [r6, r3]
10000ca2:	2a00      	cmp	r2, #0
10000ca4:	db0a      	blt.n	10000cbc <alarm_pool_irq_handler+0x15c>
10000ca6:	0053      	lsls	r3, r2, #1
10000ca8:	189c      	adds	r4, r3, r2
10000caa:	00e4      	lsls	r4, r4, #3
10000cac:	192c      	adds	r4, r5, r4
10000cae:	68a7      	ldr	r7, [r4, #8]
10000cb0:	68e4      	ldr	r4, [r4, #12]
10000cb2:	189b      	adds	r3, r3, r2
10000cb4:	00db      	lsls	r3, r3, #3
10000cb6:	18eb      	adds	r3, r5, r3
10000cb8:	428c      	cmp	r4, r1
10000cba:	ddec      	ble.n	10000c96 <alarm_pool_irq_handler+0x136>
10000cbc:	4653      	mov	r3, sl
10000cbe:	801a      	strh	r2, [r3, #0]
10000cc0:	464b      	mov	r3, r9
10000cc2:	8033      	strh	r3, [r6, #0]
10000cc4:	4643      	mov	r3, r8
10000cc6:	889b      	ldrh	r3, [r3, #4]
10000cc8:	b21b      	sxth	r3, r3
10000cca:	2b00      	cmp	r3, #0
10000ccc:	da00      	bge.n	10000cd0 <alarm_pool_irq_handler+0x170>
10000cce:	e765      	b.n	10000b9c <alarm_pool_irq_handler+0x3c>
10000cd0:	4643      	mov	r3, r8
10000cd2:	691a      	ldr	r2, [r3, #16]
10000cd4:	f3ef 8110 	mrs	r1, PRIMASK
10000cd8:	b672      	cpsid	i
10000cda:	6813      	ldr	r3, [r2, #0]
10000cdc:	2b00      	cmp	r3, #0
10000cde:	d0fc      	beq.n	10000cda <alarm_pool_irq_handler+0x17a>
10000ce0:	f3bf 8f5f 	dmb	sy
10000ce4:	4643      	mov	r3, r8
10000ce6:	889e      	ldrh	r6, [r3, #4]
10000ce8:	2301      	movs	r3, #1
10000cea:	4642      	mov	r2, r8
10000cec:	425b      	negs	r3, r3
10000cee:	8093      	strh	r3, [r2, #4]
10000cf0:	b236      	sxth	r6, r6
10000cf2:	6913      	ldr	r3, [r2, #16]
10000cf4:	f3bf 8f5f 	dmb	sy
10000cf8:	2200      	movs	r2, #0
10000cfa:	601a      	str	r2, [r3, #0]
10000cfc:	f381 8810 	msr	PRIMASK, r1
10000d00:	2e00      	cmp	r6, #0
10000d02:	da00      	bge.n	10000d06 <alarm_pool_irq_handler+0x1a6>
10000d04:	e74a      	b.n	10000b9c <alarm_pool_irq_handler+0x3c>
10000d06:	4643      	mov	r3, r8
10000d08:	695d      	ldr	r5, [r3, #20]
10000d0a:	3308      	adds	r3, #8
10000d0c:	4642      	mov	r2, r8
10000d0e:	469c      	mov	ip, r3
10000d10:	0077      	lsls	r7, r6, #1
10000d12:	19bf      	adds	r7, r7, r6
10000d14:	00ff      	lsls	r7, r7, #3
10000d16:	19ef      	adds	r7, r5, r7
10000d18:	68bb      	ldr	r3, [r7, #8]
10000d1a:	4660      	mov	r0, ip
10000d1c:	4698      	mov	r8, r3
10000d1e:	2308      	movs	r3, #8
10000d20:	5ed1      	ldrsh	r1, [r2, r3]
10000d22:	4692      	mov	sl, r2
10000d24:	68fc      	ldr	r4, [r7, #12]
10000d26:	2900      	cmp	r1, #0
10000d28:	da07      	bge.n	10000d3a <alarm_pool_irq_handler+0x1da>
10000d2a:	e00e      	b.n	10000d4a <alarm_pool_irq_handler+0x1ea>
10000d2c:	42a2      	cmp	r2, r4
10000d2e:	d04f      	beq.n	10000dd0 <alarm_pool_irq_handler+0x270>
10000d30:	0018      	movs	r0, r3
10000d32:	2300      	movs	r3, #0
10000d34:	5ec1      	ldrsh	r1, [r0, r3]
10000d36:	2900      	cmp	r1, #0
10000d38:	db06      	blt.n	10000d48 <alarm_pool_irq_handler+0x1e8>
10000d3a:	004b      	lsls	r3, r1, #1
10000d3c:	185b      	adds	r3, r3, r1
10000d3e:	00db      	lsls	r3, r3, #3
10000d40:	18eb      	adds	r3, r5, r3
10000d42:	68da      	ldr	r2, [r3, #12]
10000d44:	42a2      	cmp	r2, r4
10000d46:	ddf1      	ble.n	10000d2c <alarm_pool_irq_handler+0x1cc>
10000d48:	4652      	mov	r2, sl
10000d4a:	8006      	strh	r6, [r0, #0]
10000d4c:	2300      	movs	r3, #0
10000d4e:	5efe      	ldrsh	r6, [r7, r3]
10000d50:	8039      	strh	r1, [r7, #0]
10000d52:	2e00      	cmp	r6, #0
10000d54:	dadc      	bge.n	10000d10 <alarm_pool_irq_handler+0x1b0>
10000d56:	4690      	mov	r8, r2
10000d58:	4643      	mov	r3, r8
10000d5a:	799b      	ldrb	r3, [r3, #6]
10000d5c:	2b00      	cmp	r3, #0
10000d5e:	d100      	bne.n	10000d62 <alarm_pool_irq_handler+0x202>
10000d60:	e721      	b.n	10000ba6 <alarm_pool_irq_handler+0x46>
10000d62:	2300      	movs	r3, #0
10000d64:	4642      	mov	r2, r8
10000d66:	7193      	strb	r3, [r2, #6]
10000d68:	4643      	mov	r3, r8
10000d6a:	4646      	mov	r6, r8
10000d6c:	2108      	movs	r1, #8
10000d6e:	5e59      	ldrsh	r1, [r3, r1]
10000d70:	3608      	adds	r6, #8
10000d72:	1c4b      	adds	r3, r1, #1
10000d74:	d024      	beq.n	10000dc0 <alarm_pool_irq_handler+0x260>
10000d76:	4647      	mov	r7, r8
10000d78:	4689      	mov	r9, r1
10000d7a:	6955      	ldr	r5, [r2, #20]
10000d7c:	e002      	b.n	10000d84 <alarm_pool_irq_handler+0x224>
10000d7e:	0006      	movs	r6, r0
10000d80:	1c4b      	adds	r3, r1, #1
10000d82:	d018      	beq.n	10000db6 <alarm_pool_irq_handler+0x256>
10000d84:	004b      	lsls	r3, r1, #1
10000d86:	185b      	adds	r3, r3, r1
10000d88:	00db      	lsls	r3, r3, #3
10000d8a:	18e8      	adds	r0, r5, r3
10000d8c:	000a      	movs	r2, r1
10000d8e:	468c      	mov	ip, r1
10000d90:	5ee9      	ldrsh	r1, [r5, r3]
10000d92:	8843      	ldrh	r3, [r0, #2]
10000d94:	b21b      	sxth	r3, r3
10000d96:	2b00      	cmp	r3, #0
10000d98:	daf1      	bge.n	10000d7e <alarm_pool_irq_handler+0x21e>
10000d9a:	2301      	movs	r3, #1
10000d9c:	425b      	negs	r3, r3
10000d9e:	17dc      	asrs	r4, r3, #31
10000da0:	6083      	str	r3, [r0, #8]
10000da2:	60c4      	str	r4, [r0, #12]
10000da4:	454a      	cmp	r2, r9
10000da6:	d003      	beq.n	10000db0 <alarm_pool_irq_handler+0x250>
10000da8:	8031      	strh	r1, [r6, #0]
10000daa:	893b      	ldrh	r3, [r7, #8]
10000dac:	8003      	strh	r3, [r0, #0]
10000dae:	813a      	strh	r2, [r7, #8]
10000db0:	46e1      	mov	r9, ip
10000db2:	1c4b      	adds	r3, r1, #1
10000db4:	d1e6      	bne.n	10000d84 <alarm_pool_irq_handler+0x224>
10000db6:	464c      	mov	r4, r9
10000db8:	46b8      	mov	r8, r7
10000dba:	2c00      	cmp	r4, #0
10000dbc:	db00      	blt.n	10000dc0 <alarm_pool_irq_handler+0x260>
10000dbe:	e6f8      	b.n	10000bb2 <alarm_pool_irq_handler+0x52>
10000dc0:	bf40      	sev
10000dc2:	b003      	add	sp, #12
10000dc4:	bcf0      	pop	{r4, r5, r6, r7}
10000dc6:	46bb      	mov	fp, r7
10000dc8:	46b2      	mov	sl, r6
10000dca:	46a9      	mov	r9, r5
10000dcc:	46a0      	mov	r8, r4
10000dce:	bdf0      	pop	{r4, r5, r6, r7, pc}
10000dd0:	689a      	ldr	r2, [r3, #8]
10000dd2:	4542      	cmp	r2, r8
10000dd4:	d9ac      	bls.n	10000d30 <alarm_pool_irq_handler+0x1d0>
10000dd6:	e7b7      	b.n	10000d48 <alarm_pool_irq_handler+0x1e8>
10000dd8:	1c63      	adds	r3, r4, #1
10000dda:	d000      	beq.n	10000dde <alarm_pool_irq_handler+0x27e>
10000ddc:	e6f4      	b.n	10000bc8 <alarm_pool_irq_handler+0x68>
10000dde:	e6fe      	b.n	10000bde <alarm_pool_irq_handler+0x7e>
10000de0:	0020      	movs	r0, r4
10000de2:	6923      	ldr	r3, [r4, #16]
10000de4:	4798      	blx	r3
10000de6:	2800      	cmp	r0, #0
10000de8:	d125      	bne.n	10000e36 <alarm_pool_irq_handler+0x2d6>
10000dea:	4653      	mov	r3, sl
10000dec:	4642      	mov	r2, r8
10000dee:	881b      	ldrh	r3, [r3, #0]
10000df0:	8113      	strh	r3, [r2, #8]
10000df2:	6912      	ldr	r2, [r2, #16]
10000df4:	f3ef 8310 	mrs	r3, PRIMASK
10000df8:	b672      	cpsid	i
10000dfa:	6811      	ldr	r1, [r2, #0]
10000dfc:	2900      	cmp	r1, #0
10000dfe:	d0fc      	beq.n	10000dfa <alarm_pool_irq_handler+0x29a>
10000e00:	f3bf 8f5f 	dmb	sy
10000e04:	4642      	mov	r2, r8
10000e06:	4651      	mov	r1, sl
10000e08:	8852      	ldrh	r2, [r2, #2]
10000e0a:	800a      	strh	r2, [r1, #0]
10000e0c:	4642      	mov	r2, r8
10000e0e:	4649      	mov	r1, r9
10000e10:	8051      	strh	r1, [r2, #2]
10000e12:	6912      	ldr	r2, [r2, #16]
10000e14:	f3bf 8f5f 	dmb	sy
10000e18:	2100      	movs	r1, #0
10000e1a:	6011      	str	r1, [r2, #0]
10000e1c:	f383 8810 	msr	PRIMASK, r3
10000e20:	e6b6      	b.n	10000b90 <alarm_pool_irq_handler+0x30>
10000e22:	4286      	cmp	r6, r0
10000e24:	d800      	bhi.n	10000e28 <alarm_pool_irq_handler+0x2c8>
10000e26:	e6fb      	b.n	10000c20 <alarm_pool_irq_handler+0xc0>
10000e28:	e6b2      	b.n	10000b90 <alarm_pool_irq_handler+0x30>
10000e2a:	480b      	ldr	r0, [pc, #44]	@ (10000e58 <alarm_pool_irq_handler+0x2f8>)
10000e2c:	f000 fa88 	bl	10001340 <timer_time_us_64>
10000e30:	1900      	adds	r0, r0, r4
10000e32:	4169      	adcs	r1, r5
10000e34:	e715      	b.n	10000c62 <alarm_pool_irq_handler+0x102>
10000e36:	6865      	ldr	r5, [r4, #4]
10000e38:	6824      	ldr	r4, [r4, #0]
10000e3a:	e707      	b.n	10000c4c <alarm_pool_irq_handler+0xec>
10000e3c:	4285      	cmp	r5, r0
10000e3e:	d800      	bhi.n	10000e42 <alarm_pool_irq_handler+0x2e2>
10000e40:	e6d5      	b.n	10000bee <alarm_pool_irq_handler+0x8e>
10000e42:	e7bd      	b.n	10000dc0 <alarm_pool_irq_handler+0x260>
10000e44:	4287      	cmp	r7, r0
10000e46:	d800      	bhi.n	10000e4a <alarm_pool_irq_handler+0x2ea>
10000e48:	e728      	b.n	10000c9c <alarm_pool_irq_handler+0x13c>
10000e4a:	e737      	b.n	10000cbc <alarm_pool_irq_handler+0x15c>
10000e4c:	20001f94 	.word	0x20001f94
10000e50:	4005703c 	.word	0x4005703c
10000e54:	10000b61 	.word	0x10000b61
10000e58:	40054000 	.word	0x40054000

10000e5c <runtime_init_default_alarm_pool>:
10000e5c:	b570      	push	{r4, r5, r6, lr}
10000e5e:	4c2e      	ldr	r4, [pc, #184]	@ (10000f18 <runtime_init_default_alarm_pool+0xbc>)
10000e60:	6925      	ldr	r5, [r4, #16]
10000e62:	2d00      	cmp	r5, #0
10000e64:	d004      	beq.n	10000e70 <runtime_init_default_alarm_pool+0x14>
10000e66:	210a      	movs	r1, #10
10000e68:	482c      	ldr	r0, [pc, #176]	@ (10000f1c <runtime_init_default_alarm_pool+0xc0>)
10000e6a:	f7ff fe0b 	bl	10000a84 <lock_init>
10000e6e:	bd70      	pop	{r4, r5, r6, pc}
10000e70:	4e2b      	ldr	r6, [pc, #172]	@ (10000f20 <runtime_init_default_alarm_pool+0xc4>)
10000e72:	2103      	movs	r1, #3
10000e74:	0030      	movs	r0, r6
10000e76:	f000 fa59 	bl	1000132c <timer_hardware_alarm_claim>
10000e7a:	60e6      	str	r6, [r4, #12]
10000e7c:	f7ff fbf4 	bl	10000668 <next_striped_spin_lock_num>
10000e80:	4b28      	ldr	r3, [pc, #160]	@ (10000f24 <runtime_init_default_alarm_pool+0xc8>)
10000e82:	2203      	movs	r2, #3
10000e84:	469c      	mov	ip, r3
10000e86:	23d0      	movs	r3, #208	@ 0xd0
10000e88:	7022      	strb	r2, [r4, #0]
10000e8a:	061b      	lsls	r3, r3, #24
10000e8c:	681b      	ldr	r3, [r3, #0]
10000e8e:	2101      	movs	r1, #1
10000e90:	7063      	strb	r3, [r4, #1]
10000e92:	4b25      	ldr	r3, [pc, #148]	@ (10000f28 <runtime_init_default_alarm_pool+0xcc>)
10000e94:	4460      	add	r0, ip
10000e96:	60a3      	str	r3, [r4, #8]
10000e98:	230f      	movs	r3, #15
10000e9a:	0080      	lsls	r0, r0, #2
10000e9c:	6120      	str	r0, [r4, #16]
10000e9e:	2002      	movs	r0, #2
10000ea0:	8063      	strh	r3, [r4, #2]
10000ea2:	6963      	ldr	r3, [r4, #20]
10000ea4:	4249      	negs	r1, r1
10000ea6:	80a1      	strh	r1, [r4, #4]
10000ea8:	8019      	strh	r1, [r3, #0]
10000eaa:	3102      	adds	r1, #2
10000eac:	8619      	strh	r1, [r3, #48]	@ 0x30
10000eae:	3147      	adds	r1, #71	@ 0x47
10000eb0:	831d      	strh	r5, [r3, #24]
10000eb2:	5258      	strh	r0, [r3, r1]
10000eb4:	3118      	adds	r1, #24
10000eb6:	525a      	strh	r2, [r3, r1]
10000eb8:	3275      	adds	r2, #117	@ 0x75
10000eba:	395c      	subs	r1, #92	@ 0x5c
10000ebc:	5299      	strh	r1, [r3, r2]
10000ebe:	3218      	adds	r2, #24
10000ec0:	3101      	adds	r1, #1
10000ec2:	5299      	strh	r1, [r3, r2]
10000ec4:	3218      	adds	r2, #24
10000ec6:	3101      	adds	r1, #1
10000ec8:	5299      	strh	r1, [r3, r2]
10000eca:	3218      	adds	r2, #24
10000ecc:	3101      	adds	r1, #1
10000ece:	5299      	strh	r1, [r3, r2]
10000ed0:	3508      	adds	r5, #8
10000ed2:	3218      	adds	r2, #24
10000ed4:	529d      	strh	r5, [r3, r2]
10000ed6:	3102      	adds	r1, #2
10000ed8:	3218      	adds	r2, #24
10000eda:	5299      	strh	r1, [r3, r2]
10000edc:	3218      	adds	r2, #24
10000ede:	3101      	adds	r1, #1
10000ee0:	5299      	strh	r1, [r3, r2]
10000ee2:	3218      	adds	r2, #24
10000ee4:	3101      	adds	r1, #1
10000ee6:	5299      	strh	r1, [r3, r2]
10000ee8:	3218      	adds	r2, #24
10000eea:	3101      	adds	r1, #1
10000eec:	5299      	strh	r1, [r3, r2]
10000eee:	3218      	adds	r2, #24
10000ef0:	3101      	adds	r1, #1
10000ef2:	5299      	strh	r1, [r3, r2]
10000ef4:	3218      	adds	r2, #24
10000ef6:	3101      	adds	r1, #1
10000ef8:	5299      	strh	r1, [r3, r2]
10000efa:	4b0c      	ldr	r3, [pc, #48]	@ (10000f2c <runtime_init_default_alarm_pool+0xd0>)
10000efc:	490c      	ldr	r1, [pc, #48]	@ (10000f30 <runtime_init_default_alarm_pool+0xd4>)
10000efe:	60dc      	str	r4, [r3, #12]
10000f00:	3001      	adds	r0, #1
10000f02:	6235      	str	r5, [r6, #32]
10000f04:	f7ff fc2a 	bl	1000075c <irq_set_exclusive_handler>
10000f08:	2101      	movs	r1, #1
10000f0a:	2003      	movs	r0, #3
10000f0c:	f7ff fbea 	bl	100006e4 <irq_set_enabled>
10000f10:	4b08      	ldr	r3, [pc, #32]	@ (10000f34 <runtime_init_default_alarm_pool+0xd8>)
10000f12:	601d      	str	r5, [r3, #0]
10000f14:	e7a7      	b.n	10000e66 <runtime_init_default_alarm_pool+0xa>
10000f16:	46c0      	nop			@ (mov r8, r8)
10000f18:	20000fe4 	.word	0x20000fe4
10000f1c:	200020b0 	.word	0x200020b0
10000f20:	40054000 	.word	0x40054000
10000f24:	34000040 	.word	0x34000040
10000f28:	0010ffff 	.word	0x0010ffff
10000f2c:	20001f94 	.word	0x20001f94
10000f30:	10000b61 	.word	0x10000b61
10000f34:	40056038 	.word	0x40056038

10000f38 <alarm_pool_get_default>:
10000f38:	4800      	ldr	r0, [pc, #0]	@ (10000f3c <alarm_pool_get_default+0x4>)
10000f3a:	4770      	bx	lr
10000f3c:	20000fe4 	.word	0x20000fe4

10000f40 <alarm_pool_add_alarm_at>:
10000f40:	b5f8      	push	{r3, r4, r5, r6, r7, lr}
10000f42:	001f      	movs	r7, r3
10000f44:	ab08      	add	r3, sp, #32
10000f46:	781b      	ldrb	r3, [r3, #0]
10000f48:	0004      	movs	r4, r0
10000f4a:	0016      	movs	r6, r2
10000f4c:	2b00      	cmp	r3, #0
10000f4e:	d108      	bne.n	10000f62 <alarm_pool_add_alarm_at+0x22>
10000f50:	f000 f9fe 	bl	10001350 <time_us_64>
10000f54:	0032      	movs	r2, r6
10000f56:	003b      	movs	r3, r7
10000f58:	1a12      	subs	r2, r2, r0
10000f5a:	418b      	sbcs	r3, r1
10000f5c:	2b00      	cmp	r3, #0
10000f5e:	da00      	bge.n	10000f62 <alarm_pool_add_alarm_at+0x22>
10000f60:	e053      	b.n	1000100a <alarm_pool_add_alarm_at+0xca>
10000f62:	6922      	ldr	r2, [r4, #16]
10000f64:	f3ef 8010 	mrs	r0, PRIMASK
10000f68:	b672      	cpsid	i
10000f6a:	6813      	ldr	r3, [r2, #0]
10000f6c:	2b00      	cmp	r3, #0
10000f6e:	d0fc      	beq.n	10000f6a <alarm_pool_add_alarm_at+0x2a>
10000f70:	f3bf 8f5f 	dmb	sy
10000f74:	2302      	movs	r3, #2
10000f76:	5ee1      	ldrsh	r1, [r4, r3]
10000f78:	6963      	ldr	r3, [r4, #20]
10000f7a:	004a      	lsls	r2, r1, #1
10000f7c:	1852      	adds	r2, r2, r1
10000f7e:	00d2      	lsls	r2, r2, #3
10000f80:	189b      	adds	r3, r3, r2
10000f82:	2900      	cmp	r1, #0
10000f84:	db37      	blt.n	10000ff6 <alarm_pool_add_alarm_at+0xb6>
10000f86:	881a      	ldrh	r2, [r3, #0]
10000f88:	8062      	strh	r2, [r4, #2]
10000f8a:	6922      	ldr	r2, [r4, #16]
10000f8c:	f3bf 8f5f 	dmb	sy
10000f90:	2500      	movs	r5, #0
10000f92:	6015      	str	r5, [r2, #0]
10000f94:	f380 8810 	msr	PRIMASK, r0
10000f98:	9a06      	ldr	r2, [sp, #24]
10000f9a:	609e      	str	r6, [r3, #8]
10000f9c:	60df      	str	r7, [r3, #12]
10000f9e:	611a      	str	r2, [r3, #16]
10000fa0:	9a07      	ldr	r2, [sp, #28]
10000fa2:	615a      	str	r2, [r3, #20]
10000fa4:	885a      	ldrh	r2, [r3, #2]
10000fa6:	3201      	adds	r2, #1
10000fa8:	0452      	lsls	r2, r2, #17
10000faa:	0c52      	lsrs	r2, r2, #17
10000fac:	1c10      	adds	r0, r2, #0
10000fae:	2a00      	cmp	r2, #0
10000fb0:	d01f      	beq.n	10000ff2 <alarm_pool_add_alarm_at+0xb2>
10000fb2:	b282      	uxth	r2, r0
10000fb4:	8058      	strh	r0, [r3, #2]
10000fb6:	0408      	lsls	r0, r1, #16
10000fb8:	4310      	orrs	r0, r2
10000fba:	6926      	ldr	r6, [r4, #16]
10000fbc:	f3ef 8710 	mrs	r7, PRIMASK
10000fc0:	b672      	cpsid	i
10000fc2:	6832      	ldr	r2, [r6, #0]
10000fc4:	2a00      	cmp	r2, #0
10000fc6:	d0fc      	beq.n	10000fc2 <alarm_pool_add_alarm_at+0x82>
10000fc8:	f3bf 8f5f 	dmb	sy
10000fcc:	88a2      	ldrh	r2, [r4, #4]
10000fce:	801a      	strh	r2, [r3, #0]
10000fd0:	80a1      	strh	r1, [r4, #4]
10000fd2:	6923      	ldr	r3, [r4, #16]
10000fd4:	f3bf 8f5f 	dmb	sy
10000fd8:	2200      	movs	r2, #0
10000fda:	601a      	str	r2, [r3, #0]
10000fdc:	f387 8810 	msr	PRIMASK, r7
10000fe0:	490b      	ldr	r1, [pc, #44]	@ (10001010 <alarm_pool_add_alarm_at+0xd0>)
10000fe2:	7823      	ldrb	r3, [r4, #0]
10000fe4:	468c      	mov	ip, r1
10000fe6:	3201      	adds	r2, #1
10000fe8:	409a      	lsls	r2, r3
10000fea:	68e3      	ldr	r3, [r4, #12]
10000fec:	4463      	add	r3, ip
10000fee:	601a      	str	r2, [r3, #0]
10000ff0:	bdf8      	pop	{r3, r4, r5, r6, r7, pc}
10000ff2:	2001      	movs	r0, #1
10000ff4:	e7dd      	b.n	10000fb2 <alarm_pool_add_alarm_at+0x72>
10000ff6:	6923      	ldr	r3, [r4, #16]
10000ff8:	f3bf 8f5f 	dmb	sy
10000ffc:	2200      	movs	r2, #0
10000ffe:	601a      	str	r2, [r3, #0]
10001000:	f380 8810 	msr	PRIMASK, r0
10001004:	2001      	movs	r0, #1
10001006:	4240      	negs	r0, r0
10001008:	e7f2      	b.n	10000ff0 <alarm_pool_add_alarm_at+0xb0>
1000100a:	2000      	movs	r0, #0
1000100c:	e7f0      	b.n	10000ff0 <alarm_pool_add_alarm_at+0xb0>
1000100e:	46c0      	nop			@ (mov r8, r8)
10001010:	0000203c 	.word	0x0000203c

10001014 <alarm_pool_add_alarm_at_force_in_context>:
10001014:	b570      	push	{r4, r5, r6, lr}
10001016:	0001      	movs	r1, r0
10001018:	6904      	ldr	r4, [r0, #16]
1000101a:	f3ef 8c10 	mrs	ip, PRIMASK
1000101e:	b672      	cpsid	i
10001020:	6820      	ldr	r0, [r4, #0]
10001022:	2800      	cmp	r0, #0
10001024:	d0fc      	beq.n	10001020 <alarm_pool_add_alarm_at_force_in_context+0xc>
10001026:	f3bf 8f5f 	dmb	sy
1000102a:	2002      	movs	r0, #2
1000102c:	5e0d      	ldrsh	r5, [r1, r0]
1000102e:	694c      	ldr	r4, [r1, #20]
10001030:	0068      	lsls	r0, r5, #1
10001032:	1940      	adds	r0, r0, r5
10001034:	00c0      	lsls	r0, r0, #3
10001036:	1824      	adds	r4, r4, r0
10001038:	2d00      	cmp	r5, #0
1000103a:	db37      	blt.n	100010ac <alarm_pool_add_alarm_at_force_in_context+0x98>
1000103c:	8820      	ldrh	r0, [r4, #0]
1000103e:	8048      	strh	r0, [r1, #2]
10001040:	6908      	ldr	r0, [r1, #16]
10001042:	f3bf 8f5f 	dmb	sy
10001046:	2600      	movs	r6, #0
10001048:	6006      	str	r6, [r0, #0]
1000104a:	f38c 8810 	msr	PRIMASK, ip
1000104e:	60e3      	str	r3, [r4, #12]
10001050:	8863      	ldrh	r3, [r4, #2]
10001052:	9804      	ldr	r0, [sp, #16]
10001054:	3301      	adds	r3, #1
10001056:	6120      	str	r0, [r4, #16]
10001058:	045b      	lsls	r3, r3, #17
1000105a:	9805      	ldr	r0, [sp, #20]
1000105c:	0c5b      	lsrs	r3, r3, #17
1000105e:	60a2      	str	r2, [r4, #8]
10001060:	6160      	str	r0, [r4, #20]
10001062:	1c1a      	adds	r2, r3, #0
10001064:	2b00      	cmp	r3, #0
10001066:	d01f      	beq.n	100010a8 <alarm_pool_add_alarm_at_force_in_context+0x94>
10001068:	b293      	uxth	r3, r2
1000106a:	0428      	lsls	r0, r5, #16
1000106c:	8062      	strh	r2, [r4, #2]
1000106e:	4318      	orrs	r0, r3
10001070:	690a      	ldr	r2, [r1, #16]
10001072:	f3ef 8c10 	mrs	ip, PRIMASK
10001076:	b672      	cpsid	i
10001078:	6813      	ldr	r3, [r2, #0]
1000107a:	2b00      	cmp	r3, #0
1000107c:	d0fc      	beq.n	10001078 <alarm_pool_add_alarm_at_force_in_context+0x64>
1000107e:	f3bf 8f5f 	dmb	sy
10001082:	888b      	ldrh	r3, [r1, #4]
10001084:	8023      	strh	r3, [r4, #0]
10001086:	808d      	strh	r5, [r1, #4]
10001088:	690b      	ldr	r3, [r1, #16]
1000108a:	f3bf 8f5f 	dmb	sy
1000108e:	2200      	movs	r2, #0
10001090:	601a      	str	r2, [r3, #0]
10001092:	f38c 8810 	msr	PRIMASK, ip
10001096:	780b      	ldrb	r3, [r1, #0]
10001098:	3201      	adds	r2, #1
1000109a:	409a      	lsls	r2, r3
1000109c:	68cb      	ldr	r3, [r1, #12]
1000109e:	4908      	ldr	r1, [pc, #32]	@ (100010c0 <alarm_pool_add_alarm_at_force_in_context+0xac>)
100010a0:	468c      	mov	ip, r1
100010a2:	4463      	add	r3, ip
100010a4:	601a      	str	r2, [r3, #0]
100010a6:	bd70      	pop	{r4, r5, r6, pc}
100010a8:	2201      	movs	r2, #1
100010aa:	e7dd      	b.n	10001068 <alarm_pool_add_alarm_at_force_in_context+0x54>
100010ac:	690b      	ldr	r3, [r1, #16]
100010ae:	f3bf 8f5f 	dmb	sy
100010b2:	2200      	movs	r2, #0
100010b4:	601a      	str	r2, [r3, #0]
100010b6:	f38c 8810 	msr	PRIMASK, ip
100010ba:	2001      	movs	r0, #1
100010bc:	4240      	negs	r0, r0
100010be:	e7f2      	b.n	100010a6 <alarm_pool_add_alarm_at_force_in_context+0x92>
100010c0:	0000203c 	.word	0x0000203c

100010c4 <alarm_pool_cancel_alarm>:
100010c4:	b510      	push	{r4, lr}
100010c6:	8943      	ldrh	r3, [r0, #10]
100010c8:	140a      	asrs	r2, r1, #16
100010ca:	4293      	cmp	r3, r2
100010cc:	dd1a      	ble.n	10001104 <alarm_pool_cancel_alarm+0x40>
100010ce:	0053      	lsls	r3, r2, #1
100010d0:	189b      	adds	r3, r3, r2
100010d2:	6942      	ldr	r2, [r0, #20]
100010d4:	00db      	lsls	r3, r3, #3
100010d6:	18d3      	adds	r3, r2, r3
100010d8:	6904      	ldr	r4, [r0, #16]
100010da:	f3ef 8c10 	mrs	ip, PRIMASK
100010de:	b672      	cpsid	i
100010e0:	6822      	ldr	r2, [r4, #0]
100010e2:	2a00      	cmp	r2, #0
100010e4:	d0fc      	beq.n	100010e0 <alarm_pool_cancel_alarm+0x1c>
100010e6:	f3bf 8f5f 	dmb	sy
100010ea:	885a      	ldrh	r2, [r3, #2]
100010ec:	0409      	lsls	r1, r1, #16
100010ee:	b294      	uxth	r4, r2
100010f0:	0c09      	lsrs	r1, r1, #16
100010f2:	428a      	cmp	r2, r1
100010f4:	d008      	beq.n	10001108 <alarm_pool_cancel_alarm+0x44>
100010f6:	6903      	ldr	r3, [r0, #16]
100010f8:	f3bf 8f5f 	dmb	sy
100010fc:	2200      	movs	r2, #0
100010fe:	601a      	str	r2, [r3, #0]
10001100:	f38c 8810 	msr	PRIMASK, ip
10001104:	2000      	movs	r0, #0
10001106:	bd10      	pop	{r4, pc}
10001108:	2280      	movs	r2, #128	@ 0x80
1000110a:	0212      	lsls	r2, r2, #8
1000110c:	4314      	orrs	r4, r2
1000110e:	805c      	strh	r4, [r3, #2]
10001110:	2301      	movs	r3, #1
10001112:	6902      	ldr	r2, [r0, #16]
10001114:	7183      	strb	r3, [r0, #6]
10001116:	f3bf 8f5f 	dmb	sy
1000111a:	2100      	movs	r1, #0
1000111c:	6011      	str	r1, [r2, #0]
1000111e:	f38c 8810 	msr	PRIMASK, ip
10001122:	4904      	ldr	r1, [pc, #16]	@ (10001134 <alarm_pool_cancel_alarm+0x70>)
10001124:	7802      	ldrb	r2, [r0, #0]
10001126:	468c      	mov	ip, r1
10001128:	4093      	lsls	r3, r2
1000112a:	68c2      	ldr	r2, [r0, #12]
1000112c:	2001      	movs	r0, #1
1000112e:	4462      	add	r2, ip
10001130:	6013      	str	r3, [r2, #0]
10001132:	e7e8      	b.n	10001106 <alarm_pool_cancel_alarm+0x42>
10001134:	0000203c 	.word	0x0000203c

10001138 <alarm_pool_core_num>:
10001138:	7840      	ldrb	r0, [r0, #1]
1000113a:	4770      	bx	lr

1000113c <sleep_until>:
1000113c:	b5f0      	push	{r4, r5, r6, r7, lr}
1000113e:	0004      	movs	r4, r0
10001140:	000d      	movs	r5, r1
10001142:	2606      	movs	r6, #6
10001144:	4276      	negs	r6, r6
10001146:	17f7      	asrs	r7, r6, #31
10001148:	46c6      	mov	lr, r8
1000114a:	1936      	adds	r6, r6, r4
1000114c:	416f      	adcs	r7, r5
1000114e:	b500      	push	{lr}
10001150:	b082      	sub	sp, #8
10001152:	428f      	cmp	r7, r1
10001154:	d814      	bhi.n	10001180 <sleep_until+0x44>
10001156:	d011      	beq.n	1000117c <sleep_until+0x40>
10001158:	f000 f8fa 	bl	10001350 <time_us_64>
1000115c:	0032      	movs	r2, r6
1000115e:	003b      	movs	r3, r7
10001160:	1a12      	subs	r2, r2, r0
10001162:	418b      	sbcs	r3, r1
10001164:	2b00      	cmp	r3, #0
10001166:	dc17      	bgt.n	10001198 <sleep_until+0x5c>
10001168:	2b00      	cmp	r3, #0
1000116a:	d047      	beq.n	100011fc <sleep_until+0xc0>
1000116c:	0020      	movs	r0, r4
1000116e:	0029      	movs	r1, r5
10001170:	f000 f8f8 	bl	10001364 <busy_wait_until>
10001174:	b002      	add	sp, #8
10001176:	bc80      	pop	{r7}
10001178:	46b8      	mov	r8, r7
1000117a:	bdf0      	pop	{r4, r5, r6, r7, pc}
1000117c:	4286      	cmp	r6, r0
1000117e:	d9eb      	bls.n	10001158 <sleep_until+0x1c>
10001180:	2200      	movs	r2, #0
10001182:	2300      	movs	r3, #0
10001184:	0016      	movs	r6, r2
10001186:	001f      	movs	r7, r3
10001188:	f000 f8e2 	bl	10001350 <time_us_64>
1000118c:	0032      	movs	r2, r6
1000118e:	003b      	movs	r3, r7
10001190:	1a12      	subs	r2, r2, r0
10001192:	418b      	sbcs	r3, r1
10001194:	2b00      	cmp	r3, #0
10001196:	dde7      	ble.n	10001168 <sleep_until+0x2c>
10001198:	f000 f8da 	bl	10001350 <time_us_64>
1000119c:	0032      	movs	r2, r6
1000119e:	003b      	movs	r3, r7
100011a0:	1a12      	subs	r2, r2, r0
100011a2:	418b      	sbcs	r3, r1
100011a4:	2b00      	cmp	r3, #0
100011a6:	db0a      	blt.n	100011be <sleep_until+0x82>
100011a8:	2300      	movs	r3, #0
100011aa:	9301      	str	r3, [sp, #4]
100011ac:	4b15      	ldr	r3, [pc, #84]	@ (10001204 <sleep_until+0xc8>)
100011ae:	0032      	movs	r2, r6
100011b0:	9300      	str	r3, [sp, #0]
100011b2:	4815      	ldr	r0, [pc, #84]	@ (10001208 <sleep_until+0xcc>)
100011b4:	003b      	movs	r3, r7
100011b6:	f7ff ff2d 	bl	10001014 <alarm_pool_add_alarm_at_force_in_context>
100011ba:	2800      	cmp	r0, #0
100011bc:	dbd6      	blt.n	1000116c <sleep_until+0x30>
100011be:	2300      	movs	r3, #0
100011c0:	469c      	mov	ip, r3
100011c2:	46b0      	mov	r8, r6
100011c4:	4a11      	ldr	r2, [pc, #68]	@ (1000120c <sleep_until+0xd0>)
100011c6:	4e12      	ldr	r6, [pc, #72]	@ (10001210 <sleep_until+0xd4>)
100011c8:	6a73      	ldr	r3, [r6, #36]	@ 0x24
100011ca:	429f      	cmp	r7, r3
100011cc:	d804      	bhi.n	100011d8 <sleep_until+0x9c>
100011ce:	6ab1      	ldr	r1, [r6, #40]	@ 0x28
100011d0:	4588      	cmp	r8, r1
100011d2:	d9cb      	bls.n	1000116c <sleep_until+0x30>
100011d4:	429f      	cmp	r7, r3
100011d6:	d1c9      	bne.n	1000116c <sleep_until+0x30>
100011d8:	6811      	ldr	r1, [r2, #0]
100011da:	f3ef 8010 	mrs	r0, PRIMASK
100011de:	b672      	cpsid	i
100011e0:	680b      	ldr	r3, [r1, #0]
100011e2:	2b00      	cmp	r3, #0
100011e4:	d0fc      	beq.n	100011e0 <sleep_until+0xa4>
100011e6:	f3bf 8f5f 	dmb	sy
100011ea:	6813      	ldr	r3, [r2, #0]
100011ec:	f3bf 8f5f 	dmb	sy
100011f0:	4661      	mov	r1, ip
100011f2:	6019      	str	r1, [r3, #0]
100011f4:	f380 8810 	msr	PRIMASK, r0
100011f8:	bf20      	wfe
100011fa:	e7e5      	b.n	100011c8 <sleep_until+0x8c>
100011fc:	2a00      	cmp	r2, #0
100011fe:	d0b5      	beq.n	1000116c <sleep_until+0x30>
10001200:	e7ca      	b.n	10001198 <sleep_until+0x5c>
10001202:	46c0      	nop			@ (mov r8, r8)
10001204:	10000b31 	.word	0x10000b31
10001208:	20000fe4 	.word	0x20000fe4
1000120c:	200020b0 	.word	0x200020b0
10001210:	40054000 	.word	0x40054000

10001214 <sleep_ms>:
10001214:	b570      	push	{r4, r5, r6, lr}
10001216:	0006      	movs	r6, r0
10001218:	f000 f89a 	bl	10001350 <time_us_64>
1000121c:	22fa      	movs	r2, #250	@ 0xfa
1000121e:	0004      	movs	r4, r0
10001220:	000d      	movs	r5, r1
10001222:	2300      	movs	r3, #0
10001224:	0030      	movs	r0, r6
10001226:	2100      	movs	r1, #0
10001228:	0092      	lsls	r2, r2, #2
1000122a:	f000 fc13 	bl	10001a54 <__wrap___aeabi_lmul>
1000122e:	2380      	movs	r3, #128	@ 0x80
10001230:	1900      	adds	r0, r0, r4
10001232:	4169      	adcs	r1, r5
10001234:	061b      	lsls	r3, r3, #24
10001236:	4299      	cmp	r1, r3
10001238:	d302      	bcc.n	10001240 <sleep_ms+0x2c>
1000123a:	2001      	movs	r0, #1
1000123c:	4902      	ldr	r1, [pc, #8]	@ (10001248 <sleep_ms+0x34>)
1000123e:	4240      	negs	r0, r0
10001240:	f7ff ff7c 	bl	1000113c <sleep_until>
10001244:	bd70      	pop	{r4, r5, r6, pc}
10001246:	46c0      	nop			@ (mov r8, r8)
10001248:	7fffffff 	.word	0x7fffffff

1000124c <best_effort_wfe_or_timeout>:
1000124c:	b5f0      	push	{r4, r5, r6, r7, lr}
1000124e:	46ce      	mov	lr, r9
10001250:	4647      	mov	r7, r8
10001252:	b580      	push	{r7, lr}
10001254:	0004      	movs	r4, r0
10001256:	000d      	movs	r5, r1
10001258:	b083      	sub	sp, #12
1000125a:	f3ef 8705 	mrs	r7, IPSR
1000125e:	4688      	mov	r8, r1
10001260:	2f00      	cmp	r7, #0
10001262:	d13e      	bne.n	100012e2 <best_effort_wfe_or_timeout+0x96>
10001264:	4e2e      	ldr	r6, [pc, #184]	@ (10001320 <best_effort_wfe_or_timeout+0xd4>)
10001266:	46a1      	mov	r9, r4
10001268:	7833      	ldrb	r3, [r6, #0]
1000126a:	68f0      	ldr	r0, [r6, #12]
1000126c:	3304      	adds	r3, #4
1000126e:	009b      	lsls	r3, r3, #2
10001270:	6a81      	ldr	r1, [r0, #40]	@ 0x28
10001272:	581b      	ldr	r3, [r3, r0]
10001274:	1a60      	subs	r0, r4, r1
10001276:	1a5b      	subs	r3, r3, r1
10001278:	4298      	cmp	r0, r3
1000127a:	d30e      	bcc.n	1000129a <best_effort_wfe_or_timeout+0x4e>
1000127c:	bf20      	wfe
1000127e:	4929      	ldr	r1, [pc, #164]	@ (10001324 <best_effort_wfe_or_timeout+0xd8>)
10001280:	2000      	movs	r0, #0
10001282:	6a4b      	ldr	r3, [r1, #36]	@ 0x24
10001284:	42ab      	cmp	r3, r5
10001286:	d303      	bcc.n	10001290 <best_effort_wfe_or_timeout+0x44>
10001288:	6a8a      	ldr	r2, [r1, #40]	@ 0x28
1000128a:	3001      	adds	r0, #1
1000128c:	4294      	cmp	r4, r2
1000128e:	d831      	bhi.n	100012f4 <best_effort_wfe_or_timeout+0xa8>
10001290:	b003      	add	sp, #12
10001292:	bcc0      	pop	{r6, r7}
10001294:	46b9      	mov	r9, r7
10001296:	46b0      	mov	r8, r6
10001298:	bdf0      	pop	{r4, r5, r6, r7, pc}
1000129a:	f000 f859 	bl	10001350 <time_us_64>
1000129e:	0022      	movs	r2, r4
100012a0:	002b      	movs	r3, r5
100012a2:	1a12      	subs	r2, r2, r0
100012a4:	418b      	sbcs	r3, r1
100012a6:	2b00      	cmp	r3, #0
100012a8:	db2f      	blt.n	1000130a <best_effort_wfe_or_timeout+0xbe>
100012aa:	4b1f      	ldr	r3, [pc, #124]	@ (10001328 <best_effort_wfe_or_timeout+0xdc>)
100012ac:	0022      	movs	r2, r4
100012ae:	9300      	str	r3, [sp, #0]
100012b0:	0030      	movs	r0, r6
100012b2:	002b      	movs	r3, r5
100012b4:	9701      	str	r7, [sp, #4]
100012b6:	f7ff fead 	bl	10001014 <alarm_pool_add_alarm_at_force_in_context>
100012ba:	1e01      	subs	r1, r0, #0
100012bc:	dd25      	ble.n	1000130a <best_effort_wfe_or_timeout+0xbe>
100012be:	4b19      	ldr	r3, [pc, #100]	@ (10001324 <best_effort_wfe_or_timeout+0xd8>)
100012c0:	6a5a      	ldr	r2, [r3, #36]	@ 0x24
100012c2:	42aa      	cmp	r2, r5
100012c4:	d21b      	bcs.n	100012fe <best_effort_wfe_or_timeout+0xb2>
100012c6:	bf20      	wfe
100012c8:	0030      	movs	r0, r6
100012ca:	f7ff fefb 	bl	100010c4 <alarm_pool_cancel_alarm>
100012ce:	4a15      	ldr	r2, [pc, #84]	@ (10001324 <best_effort_wfe_or_timeout+0xd8>)
100012d0:	2000      	movs	r0, #0
100012d2:	6a53      	ldr	r3, [r2, #36]	@ 0x24
100012d4:	4543      	cmp	r3, r8
100012d6:	d3db      	bcc.n	10001290 <best_effort_wfe_or_timeout+0x44>
100012d8:	6a92      	ldr	r2, [r2, #40]	@ 0x28
100012da:	3001      	adds	r0, #1
100012dc:	4591      	cmp	r9, r2
100012de:	d9d7      	bls.n	10001290 <best_effort_wfe_or_timeout+0x44>
100012e0:	e008      	b.n	100012f4 <best_effort_wfe_or_timeout+0xa8>
100012e2:	4910      	ldr	r1, [pc, #64]	@ (10001324 <best_effort_wfe_or_timeout+0xd8>)
100012e4:	2000      	movs	r0, #0
100012e6:	6a4b      	ldr	r3, [r1, #36]	@ 0x24
100012e8:	42ab      	cmp	r3, r5
100012ea:	d3d1      	bcc.n	10001290 <best_effort_wfe_or_timeout+0x44>
100012ec:	6a8a      	ldr	r2, [r1, #40]	@ 0x28
100012ee:	3001      	adds	r0, #1
100012f0:	42a2      	cmp	r2, r4
100012f2:	d2cd      	bcs.n	10001290 <best_effort_wfe_or_timeout+0x44>
100012f4:	1b5b      	subs	r3, r3, r5
100012f6:	1e5a      	subs	r2, r3, #1
100012f8:	4193      	sbcs	r3, r2
100012fa:	b2d8      	uxtb	r0, r3
100012fc:	e7c8      	b.n	10001290 <best_effort_wfe_or_timeout+0x44>
100012fe:	6a9b      	ldr	r3, [r3, #40]	@ 0x28
10001300:	429c      	cmp	r4, r3
10001302:	d9e1      	bls.n	100012c8 <best_effort_wfe_or_timeout+0x7c>
10001304:	42aa      	cmp	r2, r5
10001306:	d1df      	bne.n	100012c8 <best_effort_wfe_or_timeout+0x7c>
10001308:	e7dd      	b.n	100012c6 <best_effort_wfe_or_timeout+0x7a>
1000130a:	4a06      	ldr	r2, [pc, #24]	@ (10001324 <best_effort_wfe_or_timeout+0xd8>)
1000130c:	2000      	movs	r0, #0
1000130e:	6a53      	ldr	r3, [r2, #36]	@ 0x24
10001310:	4543      	cmp	r3, r8
10001312:	d3bd      	bcc.n	10001290 <best_effort_wfe_or_timeout+0x44>
10001314:	6a92      	ldr	r2, [r2, #40]	@ 0x28
10001316:	2001      	movs	r0, #1
10001318:	4591      	cmp	r9, r2
1000131a:	d9b9      	bls.n	10001290 <best_effort_wfe_or_timeout+0x44>
1000131c:	e7ea      	b.n	100012f4 <best_effort_wfe_or_timeout+0xa8>
1000131e:	46c0      	nop			@ (mov r8, r8)
10001320:	20000fe4 	.word	0x20000fe4
10001324:	40054000 	.word	0x40054000
10001328:	10000b31 	.word	0x10000b31

1000132c <timer_hardware_alarm_claim>:
1000132c:	b510      	push	{r4, lr}
1000132e:	4a02      	ldr	r2, [pc, #8]	@ (10001338 <timer_hardware_alarm_claim+0xc>)
10001330:	4802      	ldr	r0, [pc, #8]	@ (1000133c <timer_hardware_alarm_claim+0x10>)
10001332:	f7ff f929 	bl	10000588 <hw_claim_or_assert>
10001336:	bd10      	pop	{r4, pc}
10001338:	10004790 	.word	0x10004790
1000133c:	20001b08 	.word	0x20001b08

10001340 <timer_time_us_64>:
10001340:	0003      	movs	r3, r0
10001342:	6a41      	ldr	r1, [r0, #36]	@ 0x24
10001344:	000a      	movs	r2, r1
10001346:	6a98      	ldr	r0, [r3, #40]	@ 0x28
10001348:	6a59      	ldr	r1, [r3, #36]	@ 0x24
1000134a:	428a      	cmp	r2, r1
1000134c:	d1fa      	bne.n	10001344 <timer_time_us_64+0x4>
1000134e:	4770      	bx	lr

10001350 <time_us_64>:
10001350:	4b03      	ldr	r3, [pc, #12]	@ (10001360 <time_us_64+0x10>)
10001352:	6a59      	ldr	r1, [r3, #36]	@ 0x24
10001354:	000a      	movs	r2, r1
10001356:	6a98      	ldr	r0, [r3, #40]	@ 0x28
10001358:	6a59      	ldr	r1, [r3, #36]	@ 0x24
1000135a:	4291      	cmp	r1, r2
1000135c:	d1fa      	bne.n	10001354 <time_us_64+0x4>
1000135e:	4770      	bx	lr
10001360:	40054000 	.word	0x40054000

10001364 <busy_wait_until>:
10001364:	4a06      	ldr	r2, [pc, #24]	@ (10001380 <busy_wait_until+0x1c>)
10001366:	6a53      	ldr	r3, [r2, #36]	@ 0x24
10001368:	4299      	cmp	r1, r3
1000136a:	d8fc      	bhi.n	10001366 <busy_wait_until+0x2>
1000136c:	d107      	bne.n	1000137e <busy_wait_until+0x1a>
1000136e:	4b04      	ldr	r3, [pc, #16]	@ (10001380 <busy_wait_until+0x1c>)
10001370:	e002      	b.n	10001378 <busy_wait_until+0x14>
10001372:	6a5a      	ldr	r2, [r3, #36]	@ 0x24
10001374:	4291      	cmp	r1, r2
10001376:	d102      	bne.n	1000137e <busy_wait_until+0x1a>
10001378:	6a9a      	ldr	r2, [r3, #40]	@ 0x28
1000137a:	4282      	cmp	r2, r0
1000137c:	d3f9      	bcc.n	10001372 <busy_wait_until+0xe>
1000137e:	4770      	bx	lr
10001380:	40054000 	.word	0x40054000

10001384 <clock_configure_int_divider>:
10001384:	b5f8      	push	{r3, r4, r5, r6, r7, lr}
10001386:	46de      	mov	lr, fp
10001388:	464e      	mov	r6, r9
1000138a:	4657      	mov	r7, sl
1000138c:	4645      	mov	r5, r8
1000138e:	b5e0      	push	{r5, r6, r7, lr}
10001390:	468b      	mov	fp, r1
10001392:	0005      	movs	r5, r0
10001394:	990a      	ldr	r1, [sp, #40]	@ 0x28
10001396:	0018      	movs	r0, r3
10001398:	0016      	movs	r6, r2
1000139a:	f000 fac9 	bl	10001930 <__wrap___aeabi_uidiv>
1000139e:	9b0a      	ldr	r3, [sp, #40]	@ 0x28
100013a0:	006c      	lsls	r4, r5, #1
100013a2:	021f      	lsls	r7, r3, #8
100013a4:	4b32      	ldr	r3, [pc, #200]	@ (10001470 <clock_configure_int_divider+0xec>)
100013a6:	1964      	adds	r4, r4, r5
100013a8:	469c      	mov	ip, r3
100013aa:	00a4      	lsls	r4, r4, #2
100013ac:	4464      	add	r4, ip
100013ae:	6863      	ldr	r3, [r4, #4]
100013b0:	4681      	mov	r9, r0
100013b2:	429f      	cmp	r7, r3
100013b4:	d900      	bls.n	100013b8 <clock_configure_int_divider+0x34>
100013b6:	6067      	str	r7, [r4, #4]
100013b8:	1f2b      	subs	r3, r5, #4
100013ba:	b2db      	uxtb	r3, r3
100013bc:	4698      	mov	r8, r3
100013be:	2b01      	cmp	r3, #1
100013c0:	d930      	bls.n	10001424 <clock_configure_int_divider+0xa0>
100013c2:	23c0      	movs	r3, #192	@ 0xc0
100013c4:	2280      	movs	r2, #128	@ 0x80
100013c6:	019b      	lsls	r3, r3, #6
100013c8:	18e3      	adds	r3, r4, r3
100013ca:	0112      	lsls	r2, r2, #4
100013cc:	601a      	str	r2, [r3, #0]
100013ce:	4b29      	ldr	r3, [pc, #164]	@ (10001474 <clock_configure_int_divider+0xf0>)
100013d0:	00ad      	lsls	r5, r5, #2
100013d2:	5959      	ldr	r1, [r3, r5]
100013d4:	469a      	mov	sl, r3
100013d6:	2900      	cmp	r1, #0
100013d8:	d11b      	bne.n	10001412 <clock_configure_int_divider+0x8e>
100013da:	0173      	lsls	r3, r6, #5
100013dc:	26e0      	movs	r6, #224	@ 0xe0
100013de:	6822      	ldr	r2, [r4, #0]
100013e0:	4053      	eors	r3, r2
100013e2:	401e      	ands	r6, r3
100013e4:	2380      	movs	r3, #128	@ 0x80
100013e6:	4642      	mov	r2, r8
100013e8:	015b      	lsls	r3, r3, #5
100013ea:	18e3      	adds	r3, r4, r3
100013ec:	601e      	str	r6, [r3, #0]
100013ee:	2a01      	cmp	r2, #1
100013f0:	d930      	bls.n	10001454 <clock_configure_int_divider+0xd0>
100013f2:	2380      	movs	r3, #128	@ 0x80
100013f4:	2280      	movs	r2, #128	@ 0x80
100013f6:	019b      	lsls	r3, r3, #6
100013f8:	18e3      	adds	r3, r4, r3
100013fa:	0112      	lsls	r2, r2, #4
100013fc:	601a      	str	r2, [r3, #0]
100013fe:	4653      	mov	r3, sl
10001400:	464a      	mov	r2, r9
10001402:	6067      	str	r7, [r4, #4]
10001404:	515a      	str	r2, [r3, r5]
10001406:	bcf0      	pop	{r4, r5, r6, r7}
10001408:	46bb      	mov	fp, r7
1000140a:	46b2      	mov	sl, r6
1000140c:	46a9      	mov	r9, r5
1000140e:	46a0      	mov	r8, r4
10001410:	bdf8      	pop	{r3, r4, r5, r6, r7, pc}
10001412:	6958      	ldr	r0, [r3, #20]
10001414:	f000 fa8c 	bl	10001930 <__wrap___aeabi_uidiv>
10001418:	3001      	adds	r0, #1
1000141a:	0043      	lsls	r3, r0, #1
1000141c:	181b      	adds	r3, r3, r0
1000141e:	3b03      	subs	r3, #3
10001420:	d2fd      	bcs.n	1000141e <clock_configure_int_divider+0x9a>
10001422:	e7da      	b.n	100013da <clock_configure_int_divider+0x56>
10001424:	465b      	mov	r3, fp
10001426:	2b01      	cmp	r3, #1
10001428:	d1cb      	bne.n	100013c2 <clock_configure_int_divider+0x3e>
1000142a:	23c0      	movs	r3, #192	@ 0xc0
1000142c:	2203      	movs	r2, #3
1000142e:	019b      	lsls	r3, r3, #6
10001430:	18e3      	adds	r3, r4, r3
10001432:	601a      	str	r2, [r3, #0]
10001434:	3a02      	subs	r2, #2
10001436:	68a3      	ldr	r3, [r4, #8]
10001438:	421a      	tst	r2, r3
1000143a:	d0fc      	beq.n	10001436 <clock_configure_int_divider+0xb2>
1000143c:	0173      	lsls	r3, r6, #5
1000143e:	26e0      	movs	r6, #224	@ 0xe0
10001440:	6822      	ldr	r2, [r4, #0]
10001442:	00ad      	lsls	r5, r5, #2
10001444:	4053      	eors	r3, r2
10001446:	401e      	ands	r6, r3
10001448:	2380      	movs	r3, #128	@ 0x80
1000144a:	4a0a      	ldr	r2, [pc, #40]	@ (10001474 <clock_configure_int_divider+0xf0>)
1000144c:	015b      	lsls	r3, r3, #5
1000144e:	4692      	mov	sl, r2
10001450:	18e3      	adds	r3, r4, r3
10001452:	601e      	str	r6, [r3, #0]
10001454:	465a      	mov	r2, fp
10001456:	6821      	ldr	r1, [r4, #0]
10001458:	4051      	eors	r1, r2
1000145a:	2203      	movs	r2, #3
1000145c:	400a      	ands	r2, r1
1000145e:	601a      	str	r2, [r3, #0]
10001460:	2201      	movs	r2, #1
10001462:	465b      	mov	r3, fp
10001464:	409a      	lsls	r2, r3
10001466:	68a3      	ldr	r3, [r4, #8]
10001468:	421a      	tst	r2, r3
1000146a:	d0fc      	beq.n	10001466 <clock_configure_int_divider+0xe2>
1000146c:	e7c1      	b.n	100013f2 <clock_configure_int_divider+0x6e>
1000146e:	46c0      	nop			@ (mov r8, r8)
10001470:	40008000 	.word	0x40008000
10001474:	20001b0c 	.word	0x20001b0c

10001478 <clock_configure_undivided>:
10001478:	b5f0      	push	{r4, r5, r6, r7, lr}
1000147a:	4646      	mov	r6, r8
1000147c:	464f      	mov	r7, r9
1000147e:	46d6      	mov	lr, sl
10001480:	b5c0      	push	{r6, r7, lr}
10001482:	001f      	movs	r7, r3
10001484:	4b34      	ldr	r3, [pc, #208]	@ (10001558 <clock_configure_undivided+0xe0>)
10001486:	0044      	lsls	r4, r0, #1
10001488:	469c      	mov	ip, r3
1000148a:	1824      	adds	r4, r4, r0
1000148c:	00a4      	lsls	r4, r4, #2
1000148e:	4464      	add	r4, ip
10001490:	6863      	ldr	r3, [r4, #4]
10001492:	4688      	mov	r8, r1
10001494:	0016      	movs	r6, r2
10001496:	2bff      	cmp	r3, #255	@ 0xff
10001498:	d802      	bhi.n	100014a0 <clock_configure_undivided+0x28>
1000149a:	2380      	movs	r3, #128	@ 0x80
1000149c:	005b      	lsls	r3, r3, #1
1000149e:	6063      	str	r3, [r4, #4]
100014a0:	1f03      	subs	r3, r0, #4
100014a2:	b2db      	uxtb	r3, r3
100014a4:	469a      	mov	sl, r3
100014a6:	2b01      	cmp	r3, #1
100014a8:	d930      	bls.n	1000150c <clock_configure_undivided+0x94>
100014aa:	23c0      	movs	r3, #192	@ 0xc0
100014ac:	2280      	movs	r2, #128	@ 0x80
100014ae:	019b      	lsls	r3, r3, #6
100014b0:	18e3      	adds	r3, r4, r3
100014b2:	0112      	lsls	r2, r2, #4
100014b4:	601a      	str	r2, [r3, #0]
100014b6:	4b29      	ldr	r3, [pc, #164]	@ (1000155c <clock_configure_undivided+0xe4>)
100014b8:	0085      	lsls	r5, r0, #2
100014ba:	5959      	ldr	r1, [r3, r5]
100014bc:	4699      	mov	r9, r3
100014be:	2900      	cmp	r1, #0
100014c0:	d11b      	bne.n	100014fa <clock_configure_undivided+0x82>
100014c2:	0173      	lsls	r3, r6, #5
100014c4:	26e0      	movs	r6, #224	@ 0xe0
100014c6:	6822      	ldr	r2, [r4, #0]
100014c8:	4053      	eors	r3, r2
100014ca:	401e      	ands	r6, r3
100014cc:	2380      	movs	r3, #128	@ 0x80
100014ce:	4652      	mov	r2, sl
100014d0:	015b      	lsls	r3, r3, #5
100014d2:	18e3      	adds	r3, r4, r3
100014d4:	601e      	str	r6, [r3, #0]
100014d6:	2a01      	cmp	r2, #1
100014d8:	d930      	bls.n	1000153c <clock_configure_undivided+0xc4>
100014da:	2380      	movs	r3, #128	@ 0x80
100014dc:	2280      	movs	r2, #128	@ 0x80
100014de:	019b      	lsls	r3, r3, #6
100014e0:	18e3      	adds	r3, r4, r3
100014e2:	0112      	lsls	r2, r2, #4
100014e4:	601a      	str	r2, [r3, #0]
100014e6:	2380      	movs	r3, #128	@ 0x80
100014e8:	005b      	lsls	r3, r3, #1
100014ea:	6063      	str	r3, [r4, #4]
100014ec:	464b      	mov	r3, r9
100014ee:	515f      	str	r7, [r3, r5]
100014f0:	bce0      	pop	{r5, r6, r7}
100014f2:	46ba      	mov	sl, r7
100014f4:	46b1      	mov	r9, r6
100014f6:	46a8      	mov	r8, r5
100014f8:	bdf0      	pop	{r4, r5, r6, r7, pc}
100014fa:	6958      	ldr	r0, [r3, #20]
100014fc:	f000 fa18 	bl	10001930 <__wrap___aeabi_uidiv>
10001500:	3001      	adds	r0, #1
10001502:	0043      	lsls	r3, r0, #1
10001504:	181b      	adds	r3, r3, r0
10001506:	3b03      	subs	r3, #3
10001508:	d2fd      	bcs.n	10001506 <clock_configure_undivided+0x8e>
1000150a:	e7da      	b.n	100014c2 <clock_configure_undivided+0x4a>
1000150c:	4643      	mov	r3, r8
1000150e:	2b01      	cmp	r3, #1
10001510:	d1cb      	bne.n	100014aa <clock_configure_undivided+0x32>
10001512:	23c0      	movs	r3, #192	@ 0xc0
10001514:	2203      	movs	r2, #3
10001516:	019b      	lsls	r3, r3, #6
10001518:	18e3      	adds	r3, r4, r3
1000151a:	601a      	str	r2, [r3, #0]
1000151c:	3a02      	subs	r2, #2
1000151e:	68a3      	ldr	r3, [r4, #8]
10001520:	421a      	tst	r2, r3
10001522:	d0fc      	beq.n	1000151e <clock_configure_undivided+0xa6>
10001524:	0173      	lsls	r3, r6, #5
10001526:	26e0      	movs	r6, #224	@ 0xe0
10001528:	6822      	ldr	r2, [r4, #0]
1000152a:	0085      	lsls	r5, r0, #2
1000152c:	4053      	eors	r3, r2
1000152e:	401e      	ands	r6, r3
10001530:	2380      	movs	r3, #128	@ 0x80
10001532:	4a0a      	ldr	r2, [pc, #40]	@ (1000155c <clock_configure_undivided+0xe4>)
10001534:	015b      	lsls	r3, r3, #5
10001536:	4691      	mov	r9, r2
10001538:	18e3      	adds	r3, r4, r3
1000153a:	601e      	str	r6, [r3, #0]
1000153c:	4642      	mov	r2, r8
1000153e:	6821      	ldr	r1, [r4, #0]
10001540:	4051      	eors	r1, r2
10001542:	2203      	movs	r2, #3
10001544:	400a      	ands	r2, r1
10001546:	601a      	str	r2, [r3, #0]
10001548:	2301      	movs	r3, #1
1000154a:	4642      	mov	r2, r8
1000154c:	4093      	lsls	r3, r2
1000154e:	68a2      	ldr	r2, [r4, #8]
10001550:	4213      	tst	r3, r2
10001552:	d0fc      	beq.n	1000154e <clock_configure_undivided+0xd6>
10001554:	e7c1      	b.n	100014da <clock_configure_undivided+0x62>
10001556:	46c0      	nop			@ (mov r8, r8)
10001558:	40008000 	.word	0x40008000
1000155c:	20001b0c 	.word	0x20001b0c

10001560 <clock_get_hz>:
10001560:	4b01      	ldr	r3, [pc, #4]	@ (10001568 <clock_get_hz+0x8>)
10001562:	0080      	lsls	r0, r0, #2
10001564:	58c0      	ldr	r0, [r0, r3]
10001566:	4770      	bx	lr
10001568:	20001b0c 	.word	0x20001b0c

1000156c <pll_init>:
1000156c:	b5f8      	push	{r3, r4, r5, r6, r7, lr}
1000156e:	0004      	movs	r4, r0
10001570:	4821      	ldr	r0, [pc, #132]	@ (100015f8 <pll_init+0x8c>)
10001572:	001e      	movs	r6, r3
10001574:	0017      	movs	r7, r2
10001576:	000d      	movs	r5, r1
10001578:	f000 f9da 	bl	10001930 <__wrap___aeabi_uidiv>
1000157c:	0001      	movs	r1, r0
1000157e:	0038      	movs	r0, r7
10001580:	f000 f9d6 	bl	10001930 <__wrap___aeabi_uidiv>
10001584:	9b06      	ldr	r3, [sp, #24]
10001586:	0436      	lsls	r6, r6, #16
10001588:	031b      	lsls	r3, r3, #12
1000158a:	431e      	orrs	r6, r3
1000158c:	6823      	ldr	r3, [r4, #0]
1000158e:	2b00      	cmp	r3, #0
10001590:	db20      	blt.n	100015d4 <pll_init+0x68>
10001592:	4b1a      	ldr	r3, [pc, #104]	@ (100015fc <pll_init+0x90>)
10001594:	491a      	ldr	r1, [pc, #104]	@ (10001600 <pll_init+0x94>)
10001596:	18e3      	adds	r3, r4, r3
10001598:	1e5a      	subs	r2, r3, #1
1000159a:	4193      	sbcs	r3, r2
1000159c:	2280      	movs	r2, #128	@ 0x80
1000159e:	0192      	lsls	r2, r2, #6
100015a0:	4694      	mov	ip, r2
100015a2:	425b      	negs	r3, r3
100015a4:	0b1b      	lsrs	r3, r3, #12
100015a6:	4a17      	ldr	r2, [pc, #92]	@ (10001604 <pll_init+0x98>)
100015a8:	031b      	lsls	r3, r3, #12
100015aa:	4463      	add	r3, ip
100015ac:	6013      	str	r3, [r2, #0]
100015ae:	4a16      	ldr	r2, [pc, #88]	@ (10001608 <pll_init+0x9c>)
100015b0:	6013      	str	r3, [r2, #0]
100015b2:	001f      	movs	r7, r3
100015b4:	680a      	ldr	r2, [r1, #0]
100015b6:	4397      	bics	r7, r2
100015b8:	d1fb      	bne.n	100015b2 <pll_init+0x46>
100015ba:	4b14      	ldr	r3, [pc, #80]	@ (1000160c <pll_init+0xa0>)
100015bc:	6025      	str	r5, [r4, #0]
100015be:	18e2      	adds	r2, r4, r3
100015c0:	2321      	movs	r3, #33	@ 0x21
100015c2:	60a0      	str	r0, [r4, #8]
100015c4:	6013      	str	r3, [r2, #0]
100015c6:	6823      	ldr	r3, [r4, #0]
100015c8:	2b00      	cmp	r3, #0
100015ca:	dafc      	bge.n	100015c6 <pll_init+0x5a>
100015cc:	2308      	movs	r3, #8
100015ce:	60e6      	str	r6, [r4, #12]
100015d0:	6013      	str	r3, [r2, #0]
100015d2:	bdf8      	pop	{r3, r4, r5, r6, r7, pc}
100015d4:	233f      	movs	r3, #63	@ 0x3f
100015d6:	6822      	ldr	r2, [r4, #0]
100015d8:	4013      	ands	r3, r2
100015da:	42ab      	cmp	r3, r5
100015dc:	d1d9      	bne.n	10001592 <pll_init+0x26>
100015de:	68a3      	ldr	r3, [r4, #8]
100015e0:	051b      	lsls	r3, r3, #20
100015e2:	0d1b      	lsrs	r3, r3, #20
100015e4:	4283      	cmp	r3, r0
100015e6:	d1d4      	bne.n	10001592 <pll_init+0x26>
100015e8:	22ee      	movs	r2, #238	@ 0xee
100015ea:	68e3      	ldr	r3, [r4, #12]
100015ec:	02d2      	lsls	r2, r2, #11
100015ee:	4013      	ands	r3, r2
100015f0:	42b3      	cmp	r3, r6
100015f2:	d1ce      	bne.n	10001592 <pll_init+0x26>
100015f4:	e7ed      	b.n	100015d2 <pll_init+0x66>
100015f6:	46c0      	nop			@ (mov r8, r8)
100015f8:	00b71b00 	.word	0x00b71b00
100015fc:	bffd4000 	.word	0xbffd4000
10001600:	4000c008 	.word	0x4000c008
10001604:	4000e000 	.word	0x4000e000
10001608:	4000f000 	.word	0x4000f000
1000160c:	00003004 	.word	0x00003004

10001610 <watchdog_reboot>:
10001610:	b510      	push	{r4, lr}
10001612:	2480      	movs	r4, #128	@ 0x80
10001614:	4b1c      	ldr	r3, [pc, #112]	@ (10001688 <watchdog_reboot+0x78>)
10001616:	05e4      	lsls	r4, r4, #23
10001618:	601c      	str	r4, [r3, #0]
1000161a:	2800      	cmp	r0, #0
1000161c:	d01a      	beq.n	10001654 <watchdog_reboot+0x44>
1000161e:	2301      	movs	r3, #1
10001620:	4c1a      	ldr	r4, [pc, #104]	@ (1000168c <watchdog_reboot+0x7c>)
10001622:	4318      	orrs	r0, r3
10001624:	4b1a      	ldr	r3, [pc, #104]	@ (10001690 <watchdog_reboot+0x80>)
10001626:	61dc      	str	r4, [r3, #28]
10001628:	4c1a      	ldr	r4, [pc, #104]	@ (10001694 <watchdog_reboot+0x84>)
1000162a:	4044      	eors	r4, r0
1000162c:	621c      	str	r4, [r3, #32]
1000162e:	6259      	str	r1, [r3, #36]	@ 0x24
10001630:	6298      	str	r0, [r3, #40]	@ 0x28
10001632:	2180      	movs	r1, #128	@ 0x80
10001634:	4b14      	ldr	r3, [pc, #80]	@ (10001688 <watchdog_reboot+0x78>)
10001636:	05c9      	lsls	r1, r1, #23
10001638:	6019      	str	r1, [r3, #0]
1000163a:	4817      	ldr	r0, [pc, #92]	@ (10001698 <watchdog_reboot+0x88>)
1000163c:	4917      	ldr	r1, [pc, #92]	@ (1000169c <watchdog_reboot+0x8c>)
1000163e:	6008      	str	r0, [r1, #0]
10001640:	21e0      	movs	r1, #224	@ 0xe0
10001642:	04c9      	lsls	r1, r1, #19
10001644:	6019      	str	r1, [r3, #0]
10001646:	2a00      	cmp	r2, #0
10001648:	d107      	bne.n	1000165a <watchdog_reboot+0x4a>
1000164a:	2280      	movs	r2, #128	@ 0x80
1000164c:	4b14      	ldr	r3, [pc, #80]	@ (100016a0 <watchdog_reboot+0x90>)
1000164e:	0612      	lsls	r2, r2, #24
10001650:	601a      	str	r2, [r3, #0]
10001652:	bd10      	pop	{r4, pc}
10001654:	4b0e      	ldr	r3, [pc, #56]	@ (10001690 <watchdog_reboot+0x80>)
10001656:	61d8      	str	r0, [r3, #28]
10001658:	e7eb      	b.n	10001632 <watchdog_reboot+0x22>
1000165a:	0153      	lsls	r3, r2, #5
1000165c:	1a9b      	subs	r3, r3, r2
1000165e:	009b      	lsls	r3, r3, #2
10001660:	189a      	adds	r2, r3, r2
10001662:	2380      	movs	r3, #128	@ 0x80
10001664:	0112      	lsls	r2, r2, #4
10001666:	045b      	lsls	r3, r3, #17
10001668:	429a      	cmp	r2, r3
1000166a:	d209      	bcs.n	10001680 <watchdog_reboot+0x70>
1000166c:	0013      	movs	r3, r2
1000166e:	490d      	ldr	r1, [pc, #52]	@ (100016a4 <watchdog_reboot+0x94>)
10001670:	600b      	str	r3, [r1, #0]
10001672:	4b07      	ldr	r3, [pc, #28]	@ (10001690 <watchdog_reboot+0x80>)
10001674:	605a      	str	r2, [r3, #4]
10001676:	2280      	movs	r2, #128	@ 0x80
10001678:	4b09      	ldr	r3, [pc, #36]	@ (100016a0 <watchdog_reboot+0x90>)
1000167a:	05d2      	lsls	r2, r2, #23
1000167c:	601a      	str	r2, [r3, #0]
1000167e:	e7e8      	b.n	10001652 <watchdog_reboot+0x42>
10001680:	4b09      	ldr	r3, [pc, #36]	@ (100016a8 <watchdog_reboot+0x98>)
10001682:	001a      	movs	r2, r3
10001684:	e7f3      	b.n	1000166e <watchdog_reboot+0x5e>
10001686:	46c0      	nop			@ (mov r8, r8)
10001688:	4005b000 	.word	0x4005b000
1000168c:	b007c0d3 	.word	0xb007c0d3
10001690:	40058000 	.word	0x40058000
10001694:	4ff83f2d 	.word	0x4ff83f2d
10001698:	0001fffc 	.word	0x0001fffc
1000169c:	40012008 	.word	0x40012008
100016a0:	4005a000 	.word	0x4005a000
100016a4:	20001f6c 	.word	0x20001f6c
100016a8:	00ffffff 	.word	0x00ffffff

100016ac <tick_start>:
100016ac:	2380      	movs	r3, #128	@ 0x80
100016ae:	4a02      	ldr	r2, [pc, #8]	@ (100016b8 <tick_start+0xc>)
100016b0:	009b      	lsls	r3, r3, #2
100016b2:	430b      	orrs	r3, r1
100016b4:	62d3      	str	r3, [r2, #44]	@ 0x2c
100016b6:	4770      	bx	lr
100016b8:	40058000 	.word	0x40058000

100016bc <rom_func_lookup>:
100016bc:	2314      	movs	r3, #20
100016be:	b510      	push	{r4, lr}
100016c0:	0001      	movs	r1, r0
100016c2:	8818      	ldrh	r0, [r3, #0]
100016c4:	3304      	adds	r3, #4
100016c6:	881b      	ldrh	r3, [r3, #0]
100016c8:	4798      	blx	r3
100016ca:	bd10      	pop	{r4, pc}

100016cc <rom_data_lookup>:
100016cc:	2316      	movs	r3, #22
100016ce:	b510      	push	{r4, lr}
100016d0:	0001      	movs	r1, r0
100016d2:	8818      	ldrh	r0, [r3, #0]
100016d4:	3302      	adds	r3, #2
100016d6:	881b      	ldrh	r3, [r3, #0]
100016d8:	4798      	blx	r3
100016da:	bd10      	pop	{r4, pc}

100016dc <rom_funcs_lookup>:
100016dc:	b5f8      	push	{r3, r4, r5, r6, r7, lr}
100016de:	4647      	mov	r7, r8
100016e0:	46ce      	mov	lr, r9
100016e2:	b580      	push	{r7, lr}
100016e4:	1e0f      	subs	r7, r1, #0
100016e6:	d019      	beq.n	1000171c <rom_funcs_lookup+0x40>
100016e8:	2314      	movs	r3, #20
100016ea:	4699      	mov	r9, r3
100016ec:	3304      	adds	r3, #4
100016ee:	0004      	movs	r4, r0
100016f0:	2500      	movs	r5, #0
100016f2:	2601      	movs	r6, #1
100016f4:	4698      	mov	r8, r3
100016f6:	464b      	mov	r3, r9
100016f8:	8818      	ldrh	r0, [r3, #0]
100016fa:	4643      	mov	r3, r8
100016fc:	6821      	ldr	r1, [r4, #0]
100016fe:	881b      	ldrh	r3, [r3, #0]
10001700:	4798      	blx	r3
10001702:	c401      	stmia	r4!, {r0}
10001704:	1e43      	subs	r3, r0, #1
10001706:	4198      	sbcs	r0, r3
10001708:	3501      	adds	r5, #1
1000170a:	4240      	negs	r0, r0
1000170c:	4006      	ands	r6, r0
1000170e:	42af      	cmp	r7, r5
10001710:	d1f1      	bne.n	100016f6 <rom_funcs_lookup+0x1a>
10001712:	0030      	movs	r0, r6
10001714:	bcc0      	pop	{r6, r7}
10001716:	46b9      	mov	r9, r7
10001718:	46b0      	mov	r8, r6
1000171a:	bdf8      	pop	{r3, r4, r5, r6, r7, pc}
1000171c:	2601      	movs	r6, #1
1000171e:	e7f8      	b.n	10001712 <rom_funcs_lookup+0x36>

10001720 <rom_reset_usb_boot_extra>:
10001720:	2314      	movs	r3, #20
10001722:	b570      	push	{r4, r5, r6, lr}
10001724:	0004      	movs	r4, r0
10001726:	8818      	ldrh	r0, [r3, #0]
10001728:	3304      	adds	r3, #4
1000172a:	881b      	ldrh	r3, [r3, #0]
1000172c:	000d      	movs	r5, r1
1000172e:	4905      	ldr	r1, [pc, #20]	@ (10001744 <rom_reset_usb_boot_extra+0x24>)
10001730:	4798      	blx	r3
10001732:	0003      	movs	r3, r0
10001734:	2000      	movs	r0, #0
10001736:	2c00      	cmp	r4, #0
10001738:	db01      	blt.n	1000173e <rom_reset_usb_boot_extra+0x1e>
1000173a:	3001      	adds	r0, #1
1000173c:	40a0      	lsls	r0, r4
1000173e:	0029      	movs	r1, r5
10001740:	4798      	blx	r3
10001742:	46c0      	nop			@ (mov r8, r8)
10001744:	00004255 	.word	0x00004255

10001748 <xosc_init>:
10001748:	23aa      	movs	r3, #170	@ 0xaa
1000174a:	4a06      	ldr	r2, [pc, #24]	@ (10001764 <xosc_init+0x1c>)
1000174c:	011b      	lsls	r3, r3, #4
1000174e:	6013      	str	r3, [r2, #0]
10001750:	232f      	movs	r3, #47	@ 0x2f
10001752:	4905      	ldr	r1, [pc, #20]	@ (10001768 <xosc_init+0x20>)
10001754:	60d3      	str	r3, [r2, #12]
10001756:	4b05      	ldr	r3, [pc, #20]	@ (1000176c <xosc_init+0x24>)
10001758:	6019      	str	r1, [r3, #0]
1000175a:	6853      	ldr	r3, [r2, #4]
1000175c:	2b00      	cmp	r3, #0
1000175e:	dafc      	bge.n	1000175a <xosc_init+0x12>
10001760:	4770      	bx	lr
10001762:	46c0      	nop			@ (mov r8, r8)
10001764:	40024000 	.word	0x40024000
10001768:	00fab000 	.word	0x00fab000
1000176c:	40026000 	.word	0x40026000

10001770 <first_per_core_initializer>:
10001770:	4770      	bx	lr
10001772:	46c0      	nop			@ (mov r8, r8)

10001774 <hard_assertion_failure>:
10001774:	b510      	push	{r4, lr}
10001776:	4801      	ldr	r0, [pc, #4]	@ (1000177c <hard_assertion_failure+0x8>)
10001778:	f7fe feee 	bl	10000558 <panic>
1000177c:	100047b4 	.word	0x100047b4

10001780 <runtime_run_initializers>:
10001780:	b570      	push	{r4, r5, r6, lr}
10001782:	4d07      	ldr	r5, [pc, #28]	@ (100017a0 <runtime_run_initializers+0x20>)
10001784:	4e07      	ldr	r6, [pc, #28]	@ (100017a4 <runtime_run_initializers+0x24>)
10001786:	42b5      	cmp	r5, r6
10001788:	d209      	bcs.n	1000179e <runtime_run_initializers+0x1e>
1000178a:	2400      	movs	r4, #0
1000178c:	3e01      	subs	r6, #1
1000178e:	1b76      	subs	r6, r6, r5
10001790:	08b6      	lsrs	r6, r6, #2
10001792:	cd08      	ldmia	r5!, {r3}
10001794:	4798      	blx	r3
10001796:	0023      	movs	r3, r4
10001798:	3401      	adds	r4, #1
1000179a:	42b3      	cmp	r3, r6
1000179c:	d1f9      	bne.n	10001792 <runtime_run_initializers+0x12>
1000179e:	bd70      	pop	{r4, r5, r6, pc}
100017a0:	100046e8 	.word	0x100046e8
100017a4:	10004724 	.word	0x10004724

100017a8 <runtime_init_early_resets>:
100017a8:	4b05      	ldr	r3, [pc, #20]	@ (100017c0 <runtime_init_early_resets+0x18>)
100017aa:	4a06      	ldr	r2, [pc, #24]	@ (100017c4 <runtime_init_early_resets+0x1c>)
100017ac:	4906      	ldr	r1, [pc, #24]	@ (100017c8 <runtime_init_early_resets+0x20>)
100017ae:	601a      	str	r2, [r3, #0]
100017b0:	4a06      	ldr	r2, [pc, #24]	@ (100017cc <runtime_init_early_resets+0x24>)
100017b2:	4b07      	ldr	r3, [pc, #28]	@ (100017d0 <runtime_init_early_resets+0x28>)
100017b4:	601a      	str	r2, [r3, #0]
100017b6:	0010      	movs	r0, r2
100017b8:	680b      	ldr	r3, [r1, #0]
100017ba:	4398      	bics	r0, r3
100017bc:	d1fb      	bne.n	100017b6 <runtime_init_early_resets+0xe>
100017be:	4770      	bx	lr
100017c0:	4000e000 	.word	0x4000e000
100017c4:	fefbcdbf 	.word	0xfefbcdbf
100017c8:	4000c008 	.word	0x4000c008
100017cc:	003c7ffe 	.word	0x003c7ffe
100017d0:	4000f000 	.word	0x4000f000

100017d4 <runtime_init_usb_power_down>:
100017d4:	4b04      	ldr	r3, [pc, #16]	@ (100017e8 <runtime_init_usb_power_down+0x14>)
100017d6:	6cdb      	ldr	r3, [r3, #76]	@ 0x4c
100017d8:	2b00      	cmp	r3, #0
100017da:	d103      	bne.n	100017e4 <runtime_init_usb_power_down+0x10>
100017dc:	2280      	movs	r2, #128	@ 0x80
100017de:	4b03      	ldr	r3, [pc, #12]	@ (100017ec <runtime_init_usb_power_down+0x18>)
100017e0:	02d2      	lsls	r2, r2, #11
100017e2:	601a      	str	r2, [r3, #0]
100017e4:	4770      	bx	lr
100017e6:	46c0      	nop			@ (mov r8, r8)
100017e8:	50110000 	.word	0x50110000
100017ec:	5011204c 	.word	0x5011204c

100017f0 <runtime_init_post_clock_resets>:
100017f0:	4a04      	ldr	r2, [pc, #16]	@ (10001804 <runtime_init_post_clock_resets+0x14>)
100017f2:	4b05      	ldr	r3, [pc, #20]	@ (10001808 <runtime_init_post_clock_resets+0x18>)
100017f4:	601a      	str	r2, [r3, #0]
100017f6:	4a05      	ldr	r2, [pc, #20]	@ (1000180c <runtime_init_post_clock_resets+0x1c>)
100017f8:	6813      	ldr	r3, [r2, #0]
100017fa:	01db      	lsls	r3, r3, #7
100017fc:	3380      	adds	r3, #128	@ 0x80
100017fe:	d1fb      	bne.n	100017f8 <runtime_init_post_clock_resets+0x8>
10001800:	4770      	bx	lr
10001802:	46c0      	nop			@ (mov r8, r8)
10001804:	01ffffff 	.word	0x01ffffff
10001808:	4000f000 	.word	0x4000f000
1000180c:	4000c008 	.word	0x4000c008

10001810 <runtime_init_rp2040_gpio_ie_disable>:
10001810:	2240      	movs	r2, #64	@ 0x40
10001812:	4b03      	ldr	r3, [pc, #12]	@ (10001820 <runtime_init_rp2040_gpio_ie_disable+0x10>)
10001814:	679a      	str	r2, [r3, #120]	@ 0x78
10001816:	675a      	str	r2, [r3, #116]	@ 0x74
10001818:	671a      	str	r2, [r3, #112]	@ 0x70
1000181a:	66da      	str	r2, [r3, #108]	@ 0x6c
1000181c:	4770      	bx	lr
1000181e:	46c0      	nop			@ (mov r8, r8)
10001820:	4001f000 	.word	0x4001f000

10001824 <runtime_init_spin_locks_reset>:
10001824:	b510      	push	{r4, lr}
10001826:	f7fe ff3d 	bl	100006a4 <spin_locks_reset>
1000182a:	bd10      	pop	{r4, pc}

1000182c <runtime_init_install_ram_vector_table>:
1000182c:	b570      	push	{r4, r5, r6, lr}
1000182e:	4d04      	ldr	r5, [pc, #16]	@ (10001840 <runtime_init_install_ram_vector_table+0x14>)
10001830:	4c04      	ldr	r4, [pc, #16]	@ (10001844 <runtime_init_install_ram_vector_table+0x18>)
10001832:	68a9      	ldr	r1, [r5, #8]
10001834:	22c0      	movs	r2, #192	@ 0xc0
10001836:	0020      	movs	r0, r4
10001838:	f000 f968 	bl	10001b0c <__wrap___aeabi_memcpy>
1000183c:	60ac      	str	r4, [r5, #8]
1000183e:	bd70      	pop	{r4, r5, r6, pc}
10001840:	e000ed00 	.word	0xe000ed00
10001844:	20000000 	.word	0x20000000

10001848 <runtime_init_clocks>:
10001848:	2300      	movs	r3, #0
1000184a:	b510      	push	{r4, lr}
1000184c:	4c29      	ldr	r4, [pc, #164]	@ (100018f4 <runtime_init_clocks+0xac>)
1000184e:	b082      	sub	sp, #8
10001850:	67a3      	str	r3, [r4, #120]	@ 0x78
10001852:	f7ff ff79 	bl	10001748 <xosc_init>
10001856:	2201      	movs	r2, #1
10001858:	4b27      	ldr	r3, [pc, #156]	@ (100018f8 <runtime_init_clocks+0xb0>)
1000185a:	601a      	str	r2, [r3, #0]
1000185c:	6c63      	ldr	r3, [r4, #68]	@ 0x44
1000185e:	2b01      	cmp	r3, #1
10001860:	d1fc      	bne.n	1000185c <runtime_init_clocks+0x14>
10001862:	2203      	movs	r2, #3
10001864:	4b25      	ldr	r3, [pc, #148]	@ (100018fc <runtime_init_clocks+0xb4>)
10001866:	601a      	str	r2, [r3, #0]
10001868:	4a22      	ldr	r2, [pc, #136]	@ (100018f4 <runtime_init_clocks+0xac>)
1000186a:	6b93      	ldr	r3, [r2, #56]	@ 0x38
1000186c:	2b01      	cmp	r3, #1
1000186e:	d1fc      	bne.n	1000186a <runtime_init_clocks+0x22>
10001870:	3301      	adds	r3, #1
10001872:	9300      	str	r3, [sp, #0]
10001874:	2101      	movs	r1, #1
10001876:	4a22      	ldr	r2, [pc, #136]	@ (10001900 <runtime_init_clocks+0xb8>)
10001878:	4822      	ldr	r0, [pc, #136]	@ (10001904 <runtime_init_clocks+0xbc>)
1000187a:	3304      	adds	r3, #4
1000187c:	f7ff fe76 	bl	1000156c <pll_init>
10001880:	2305      	movs	r3, #5
10001882:	2101      	movs	r1, #1
10001884:	9300      	str	r3, [sp, #0]
10001886:	4a20      	ldr	r2, [pc, #128]	@ (10001908 <runtime_init_clocks+0xc0>)
10001888:	4820      	ldr	r0, [pc, #128]	@ (1000190c <runtime_init_clocks+0xc4>)
1000188a:	f7ff fe6f 	bl	1000156c <pll_init>
1000188e:	2200      	movs	r2, #0
10001890:	2102      	movs	r1, #2
10001892:	2004      	movs	r0, #4
10001894:	4b1e      	ldr	r3, [pc, #120]	@ (10001910 <runtime_init_clocks+0xc8>)
10001896:	f7ff fdef 	bl	10001478 <clock_configure_undivided>
1000189a:	2200      	movs	r2, #0
1000189c:	2101      	movs	r1, #1
1000189e:	2005      	movs	r0, #5
100018a0:	4b1c      	ldr	r3, [pc, #112]	@ (10001914 <runtime_init_clocks+0xcc>)
100018a2:	f7ff fde9 	bl	10001478 <clock_configure_undivided>
100018a6:	2200      	movs	r2, #0
100018a8:	2100      	movs	r1, #0
100018aa:	2007      	movs	r0, #7
100018ac:	4b1a      	ldr	r3, [pc, #104]	@ (10001918 <runtime_init_clocks+0xd0>)
100018ae:	f7ff fde3 	bl	10001478 <clock_configure_undivided>
100018b2:	2200      	movs	r2, #0
100018b4:	2100      	movs	r1, #0
100018b6:	2008      	movs	r0, #8
100018b8:	4b17      	ldr	r3, [pc, #92]	@ (10001918 <runtime_init_clocks+0xd0>)
100018ba:	f7ff fddd 	bl	10001478 <clock_configure_undivided>
100018be:	2380      	movs	r3, #128	@ 0x80
100018c0:	00db      	lsls	r3, r3, #3
100018c2:	9300      	str	r3, [sp, #0]
100018c4:	2200      	movs	r2, #0
100018c6:	2100      	movs	r1, #0
100018c8:	2009      	movs	r0, #9
100018ca:	4b13      	ldr	r3, [pc, #76]	@ (10001918 <runtime_init_clocks+0xd0>)
100018cc:	f7ff fd5a 	bl	10001384 <clock_configure_int_divider>
100018d0:	2200      	movs	r2, #0
100018d2:	4b10      	ldr	r3, [pc, #64]	@ (10001914 <runtime_init_clocks+0xcc>)
100018d4:	2100      	movs	r1, #0
100018d6:	2006      	movs	r0, #6
100018d8:	f7ff fdce 	bl	10001478 <clock_configure_undivided>
100018dc:	2004      	movs	r0, #4
100018de:	f7ff fe3f 	bl	10001560 <clock_get_hz>
100018e2:	490e      	ldr	r1, [pc, #56]	@ (1000191c <runtime_init_clocks+0xd4>)
100018e4:	f000 f824 	bl	10001930 <__wrap___aeabi_uidiv>
100018e8:	0001      	movs	r1, r0
100018ea:	2000      	movs	r0, #0
100018ec:	f7ff fede 	bl	100016ac <tick_start>
100018f0:	b002      	add	sp, #8
100018f2:	bd10      	pop	{r4, pc}
100018f4:	40008000 	.word	0x40008000
100018f8:	4000b03c 	.word	0x4000b03c
100018fc:	4000b030 	.word	0x4000b030
10001900:	59682f00 	.word	0x59682f00
10001904:	40028000 	.word	0x40028000
10001908:	47868c00 	.word	0x47868c00
1000190c:	4002c000 	.word	0x4002c000
10001910:	00b71b00 	.word	0x00b71b00
10001914:	07735940 	.word	0x07735940
10001918:	02dc6c00 	.word	0x02dc6c00
1000191c:	000f4240 	.word	0x000f4240

10001920 <__aeabi_bits_init>:
10001920:	4801      	ldr	r0, [pc, #4]	@ (10001928 <__aeabi_bits_init+0x8>)
10001922:	2104      	movs	r1, #4
10001924:	4b01      	ldr	r3, [pc, #4]	@ (1000192c <__aeabi_bits_init+0xc>)
10001926:	4718      	bx	r3
10001928:	20001000 	.word	0x20001000
1000192c:	100016dd 	.word	0x100016dd

10001930 <__wrap___aeabi_uidiv>:
10001930:	4a11      	ldr	r2, [pc, #68]	@ (10001978 <divmod_u32u32_savestate+0x18>)
10001932:	6f93      	ldr	r3, [r2, #120]	@ 0x78
10001934:	089b      	lsrs	r3, r3, #2
10001936:	d213      	bcs.n	10001960 <divmod_u32u32_savestate>

10001938 <divmod_u32u32_unsafe>:
10001938:	6610      	str	r0, [r2, #96]	@ 0x60
1000193a:	6651      	str	r1, [r2, #100]	@ 0x64
1000193c:	2900      	cmp	r1, #0
1000193e:	d005      	beq.n	1000194c <divmod_u32u32_unsafe+0x14>
10001940:	e7ff      	b.n	10001942 <divmod_u32u32_unsafe+0xa>
10001942:	e7ff      	b.n	10001944 <divmod_u32u32_unsafe+0xc>
10001944:	e7ff      	b.n	10001946 <divmod_u32u32_unsafe+0xe>
10001946:	6f51      	ldr	r1, [r2, #116]	@ 0x74
10001948:	6f10      	ldr	r0, [r2, #112]	@ 0x70
1000194a:	4770      	bx	lr
1000194c:	b504      	push	{r2, lr}
1000194e:	2800      	cmp	r0, #0
10001950:	d001      	beq.n	10001956 <divmod_u32u32_unsafe+0x1e>
10001952:	2000      	movs	r0, #0
10001954:	43c0      	mvns	r0, r0
10001956:	f002 fe8f 	bl	10004678 <____aeabi_idiv0_veneer>
1000195a:	2100      	movs	r1, #0
1000195c:	bd04      	pop	{r2, pc}
1000195e:	46c0      	nop			@ (mov r8, r8)

10001960 <divmod_u32u32_savestate>:
10001960:	b5f0      	push	{r4, r5, r6, r7, lr}
10001962:	6e14      	ldr	r4, [r2, #96]	@ 0x60
10001964:	6e55      	ldr	r5, [r2, #100]	@ 0x64
10001966:	6f57      	ldr	r7, [r2, #116]	@ 0x74
10001968:	6f16      	ldr	r6, [r2, #112]	@ 0x70
1000196a:	f7ff ffe5 	bl	10001938 <divmod_u32u32_unsafe>
1000196e:	6614      	str	r4, [r2, #96]	@ 0x60
10001970:	6655      	str	r5, [r2, #100]	@ 0x64
10001972:	6757      	str	r7, [r2, #116]	@ 0x74
10001974:	6716      	str	r6, [r2, #112]	@ 0x70
10001976:	bdf0      	pop	{r4, r5, r6, r7, pc}
10001978:	d0000000 	.word	0xd0000000

1000197c <missing_double_func_shim>:
1000197c:	b510      	push	{r4, lr}
1000197e:	4801      	ldr	r0, [pc, #4]	@ (10001984 <missing_double_func_shim+0x8>)
10001980:	f7fe fdea 	bl	10000558 <panic>
10001984:	100047c0 	.word	0x100047c0

10001988 <__aeabi_double_init>:
10001988:	2313      	movs	r3, #19
1000198a:	b570      	push	{r4, r5, r6, lr}
1000198c:	781d      	ldrb	r5, [r3, #0]
1000198e:	2d01      	cmp	r5, #1
10001990:	d019      	beq.n	100019c6 <__aeabi_double_init+0x3e>
10001992:	dd14      	ble.n	100019be <__aeabi_double_init+0x36>
10001994:	481d      	ldr	r0, [pc, #116]	@ (10001a0c <__aeabi_double_init+0x84>)
10001996:	f7ff fe99 	bl	100016cc <rom_data_lookup>
1000199a:	0006      	movs	r6, r0
1000199c:	481c      	ldr	r0, [pc, #112]	@ (10001a10 <__aeabi_double_init+0x88>)
1000199e:	f7ff fe95 	bl	100016cc <rom_data_lookup>
100019a2:	4c1c      	ldr	r4, [pc, #112]	@ (10001a14 <__aeabi_double_init+0x8c>)
100019a4:	2280      	movs	r2, #128	@ 0x80
100019a6:	0031      	movs	r1, r6
100019a8:	0020      	movs	r0, r4
100019aa:	f000 f8af 	bl	10001b0c <__wrap___aeabi_memcpy>
100019ae:	2d02      	cmp	r5, #2
100019b0:	d006      	beq.n	100019c0 <__aeabi_double_init+0x38>
100019b2:	4819      	ldr	r0, [pc, #100]	@ (10001a18 <__aeabi_double_init+0x90>)
100019b4:	f7ff fe82 	bl	100016bc <rom_func_lookup>
100019b8:	4b18      	ldr	r3, [pc, #96]	@ (10001a1c <__aeabi_double_init+0x94>)
100019ba:	6018      	str	r0, [r3, #0]
100019bc:	bd70      	pop	{r4, r5, r6, pc}
100019be:	4c15      	ldr	r4, [pc, #84]	@ (10001a14 <__aeabi_double_init+0x8c>)
100019c0:	4b17      	ldr	r3, [pc, #92]	@ (10001a20 <__aeabi_double_init+0x98>)
100019c2:	64a3      	str	r3, [r4, #72]	@ 0x48
100019c4:	e7f5      	b.n	100019b2 <__aeabi_double_init+0x2a>
100019c6:	4b17      	ldr	r3, [pc, #92]	@ (10001a24 <__aeabi_double_init+0x9c>)
100019c8:	4c12      	ldr	r4, [pc, #72]	@ (10001a14 <__aeabi_double_init+0x8c>)
100019ca:	6023      	str	r3, [r4, #0]
100019cc:	6063      	str	r3, [r4, #4]
100019ce:	60a3      	str	r3, [r4, #8]
100019d0:	60e3      	str	r3, [r4, #12]
100019d2:	6123      	str	r3, [r4, #16]
100019d4:	6163      	str	r3, [r4, #20]
100019d6:	61a3      	str	r3, [r4, #24]
100019d8:	61e3      	str	r3, [r4, #28]
100019da:	6223      	str	r3, [r4, #32]
100019dc:	6263      	str	r3, [r4, #36]	@ 0x24
100019de:	62a3      	str	r3, [r4, #40]	@ 0x28
100019e0:	62e3      	str	r3, [r4, #44]	@ 0x2c
100019e2:	6323      	str	r3, [r4, #48]	@ 0x30
100019e4:	6363      	str	r3, [r4, #52]	@ 0x34
100019e6:	63a3      	str	r3, [r4, #56]	@ 0x38
100019e8:	63e3      	str	r3, [r4, #60]	@ 0x3c
100019ea:	6423      	str	r3, [r4, #64]	@ 0x40
100019ec:	6463      	str	r3, [r4, #68]	@ 0x44
100019ee:	64a3      	str	r3, [r4, #72]	@ 0x48
100019f0:	64e3      	str	r3, [r4, #76]	@ 0x4c
100019f2:	6523      	str	r3, [r4, #80]	@ 0x50
100019f4:	6563      	str	r3, [r4, #84]	@ 0x54
100019f6:	65a3      	str	r3, [r4, #88]	@ 0x58
100019f8:	65e3      	str	r3, [r4, #92]	@ 0x5c
100019fa:	6623      	str	r3, [r4, #96]	@ 0x60
100019fc:	6663      	str	r3, [r4, #100]	@ 0x64
100019fe:	66a3      	str	r3, [r4, #104]	@ 0x68
10001a00:	66e3      	str	r3, [r4, #108]	@ 0x6c
10001a02:	6723      	str	r3, [r4, #112]	@ 0x70
10001a04:	6763      	str	r3, [r4, #116]	@ 0x74
10001a06:	67a3      	str	r3, [r4, #120]	@ 0x78
10001a08:	67e3      	str	r3, [r4, #124]	@ 0x7c
10001a0a:	e7d9      	b.n	100019c0 <__aeabi_double_init+0x38>
10001a0c:	00004453 	.word	0x00004453
10001a10:	00004653 	.word	0x00004653
10001a14:	200011e8 	.word	0x200011e8
10001a18:	0000334c 	.word	0x0000334c
10001a1c:	20001fac 	.word	0x20001fac
10001a20:	10001a29 	.word	0x10001a29
10001a24:	1000197d 	.word	0x1000197d

10001a28 <double_table_shim_on_use_helper>:
10001a28:	b507      	push	{r0, r1, r2, lr}
10001a2a:	4660      	mov	r0, ip
10001a2c:	8801      	ldrh	r1, [r0, #0]
10001a2e:	0a0a      	lsrs	r2, r1, #8
10001a30:	3002      	adds	r0, #2
10001a32:	2adf      	cmp	r2, #223	@ 0xdf
10001a34:	d1fa      	bne.n	10001a2c <double_table_shim_on_use_helper+0x4>
10001a36:	b2c9      	uxtb	r1, r1
10001a38:	0882      	lsrs	r2, r0, #2
10001a3a:	d304      	bcc.n	10001a46 <double_table_shim_on_use_helper+0x1e>
10001a3c:	8802      	ldrh	r2, [r0, #0]
10001a3e:	8840      	ldrh	r0, [r0, #2]
10001a40:	0400      	lsls	r0, r0, #16
10001a42:	4310      	orrs	r0, r2
10001a44:	e000      	b.n	10001a48 <double_table_shim_on_use_helper+0x20>
10001a46:	6800      	ldr	r0, [r0, #0]
10001a48:	4a01      	ldr	r2, [pc, #4]	@ (10001a50 <double_table_shim_on_use_helper+0x28>)
10001a4a:	5050      	str	r0, [r2, r1]
10001a4c:	9003      	str	r0, [sp, #12]
10001a4e:	bd07      	pop	{r0, r1, r2, pc}
10001a50:	200011e8 	.word	0x200011e8

10001a54 <__wrap___aeabi_lmul>:
10001a54:	4351      	muls	r1, r2
10001a56:	4343      	muls	r3, r0
10001a58:	18c9      	adds	r1, r1, r3
10001a5a:	468c      	mov	ip, r1
10001a5c:	0c11      	lsrs	r1, r2, #16
10001a5e:	b283      	uxth	r3, r0
10001a60:	434b      	muls	r3, r1
10001a62:	b410      	push	{r4}
10001a64:	0c04      	lsrs	r4, r0, #16
10001a66:	4361      	muls	r1, r4
10001a68:	b292      	uxth	r2, r2
10001a6a:	b280      	uxth	r0, r0
10001a6c:	4350      	muls	r0, r2
10001a6e:	4362      	muls	r2, r4
10001a70:	041c      	lsls	r4, r3, #16
10001a72:	0c1b      	lsrs	r3, r3, #16
10001a74:	1900      	adds	r0, r0, r4
10001a76:	bc10      	pop	{r4}
10001a78:	4159      	adcs	r1, r3
10001a7a:	0413      	lsls	r3, r2, #16
10001a7c:	0c12      	lsrs	r2, r2, #16
10001a7e:	18c0      	adds	r0, r0, r3
10001a80:	4151      	adcs	r1, r2
10001a82:	4461      	add	r1, ip
10001a84:	4770      	bx	lr
	...

10001a88 <missing_float_func_shim>:
10001a88:	b510      	push	{r4, lr}
10001a8a:	4801      	ldr	r0, [pc, #4]	@ (10001a90 <missing_float_func_shim+0x8>)
10001a8c:	f7fe fd64 	bl	10000558 <panic>
10001a90:	10004808 	.word	0x10004808

10001a94 <__aeabi_float_init>:
10001a94:	2313      	movs	r3, #19
10001a96:	b510      	push	{r4, lr}
10001a98:	4810      	ldr	r0, [pc, #64]	@ (10001adc <__aeabi_float_init+0x48>)
10001a9a:	781c      	ldrb	r4, [r3, #0]
10001a9c:	f7ff fe16 	bl	100016cc <rom_data_lookup>
10001aa0:	0001      	movs	r1, r0
10001aa2:	2c01      	cmp	r4, #1
10001aa4:	d00a      	beq.n	10001abc <__aeabi_float_init+0x28>
10001aa6:	dd03      	ble.n	10001ab0 <__aeabi_float_init+0x1c>
10001aa8:	2280      	movs	r2, #128	@ 0x80
10001aaa:	480d      	ldr	r0, [pc, #52]	@ (10001ae0 <__aeabi_float_init+0x4c>)
10001aac:	f000 f82e 	bl	10001b0c <__wrap___aeabi_memcpy>
10001ab0:	480c      	ldr	r0, [pc, #48]	@ (10001ae4 <__aeabi_float_init+0x50>)
10001ab2:	f7ff fe03 	bl	100016bc <rom_func_lookup>
10001ab6:	4b0c      	ldr	r3, [pc, #48]	@ (10001ae8 <__aeabi_float_init+0x54>)
10001ab8:	6018      	str	r0, [r3, #0]
10001aba:	bd10      	pop	{r4, pc}
10001abc:	4c08      	ldr	r4, [pc, #32]	@ (10001ae0 <__aeabi_float_init+0x4c>)
10001abe:	2254      	movs	r2, #84	@ 0x54
10001ac0:	0020      	movs	r0, r4
10001ac2:	f000 f823 	bl	10001b0c <__wrap___aeabi_memcpy>
10001ac6:	0022      	movs	r2, r4
10001ac8:	4908      	ldr	r1, [pc, #32]	@ (10001aec <__aeabi_float_init+0x58>)
10001aca:	3280      	adds	r2, #128	@ 0x80
10001acc:	6823      	ldr	r3, [r4, #0]
10001ace:	2b00      	cmp	r3, #0
10001ad0:	d100      	bne.n	10001ad4 <__aeabi_float_init+0x40>
10001ad2:	6021      	str	r1, [r4, #0]
10001ad4:	3404      	adds	r4, #4
10001ad6:	4294      	cmp	r4, r2
10001ad8:	d1f8      	bne.n	10001acc <__aeabi_float_init+0x38>
10001ada:	e7e9      	b.n	10001ab0 <__aeabi_float_init+0x1c>
10001adc:	00004653 	.word	0x00004653
10001ae0:	20001fb0 	.word	0x20001fb0
10001ae4:	0000334c 	.word	0x0000334c
10001ae8:	20001fac 	.word	0x20001fac
10001aec:	10001a89 	.word	0x10001a89

10001af0 <__aeabi_mem_init>:
10001af0:	4801      	ldr	r0, [pc, #4]	@ (10001af8 <__aeabi_mem_init+0x8>)
10001af2:	2104      	movs	r1, #4
10001af4:	4b01      	ldr	r3, [pc, #4]	@ (10001afc <__aeabi_mem_init+0xc>)
10001af6:	4718      	bx	r3
10001af8:	20001010 	.word	0x20001010
10001afc:	100016dd 	.word	0x100016dd

10001b00 <__wrap_memset>:
10001b00:	4b01      	ldr	r3, [pc, #4]	@ (10001b08 <__wrap_memset+0x8>)
10001b02:	681b      	ldr	r3, [r3, #0]
10001b04:	4718      	bx	r3
10001b06:	0000      	.short	0x0000
10001b08:	20001010 	.word	0x20001010

10001b0c <__wrap___aeabi_memcpy>:
10001b0c:	4b01      	ldr	r3, [pc, #4]	@ (10001b14 <__wrap___aeabi_memcpy+0x8>)
10001b0e:	685b      	ldr	r3, [r3, #4]
10001b10:	4718      	bx	r3
10001b12:	0000      	.short	0x0000
10001b14:	20001010 	.word	0x20001010

10001b18 <_out_char>:
10001b18:	b510      	push	{r4, lr}
10001b1a:	2800      	cmp	r0, #0
10001b1c:	d100      	bne.n	10001b20 <_out_char+0x8>
10001b1e:	bd10      	pop	{r4, pc}
10001b20:	f000 f924 	bl	10001d6c <__wrap_putchar>
10001b24:	e7fb      	b.n	10001b1e <_out_char+0x6>
10001b26:	46c0      	nop			@ (mov r8, r8)

10001b28 <weak_raw_vprintf>:
10001b28:	b510      	push	{r4, lr}
10001b2a:	4a09      	ldr	r2, [pc, #36]	@ (10001b50 <weak_raw_vprintf+0x28>)
10001b2c:	0003      	movs	r3, r0
10001b2e:	6814      	ldr	r4, [r2, #0]
10001b30:	b084      	sub	sp, #16
10001b32:	2c00      	cmp	r4, #0
10001b34:	d008      	beq.n	10001b48 <weak_raw_vprintf+0x20>
10001b36:	2201      	movs	r2, #1
10001b38:	9100      	str	r1, [sp, #0]
10001b3a:	4806      	ldr	r0, [pc, #24]	@ (10001b54 <weak_raw_vprintf+0x2c>)
10001b3c:	4252      	negs	r2, r2
10001b3e:	a903      	add	r1, sp, #12
10001b40:	47a0      	blx	r4
10001b42:	2001      	movs	r0, #1
10001b44:	b004      	add	sp, #16
10001b46:	bd10      	pop	{r4, pc}
10001b48:	f000 f95c 	bl	10001e04 <__wrap_puts>
10001b4c:	2000      	movs	r0, #0
10001b4e:	e7f9      	b.n	10001b44 <weak_raw_vprintf+0x1c>
10001b50:	20001f68 	.word	0x20001f68
10001b54:	10001b19 	.word	0x10001b19

10001b58 <_exit>:
10001b58:	be00      	bkpt	0x0000
10001b5a:	e7fd      	b.n	10001b58 <_exit>

10001b5c <exit>:
10001b5c:	b510      	push	{r4, lr}
10001b5e:	f7ff fffb 	bl	10001b58 <_exit>
10001b62:	46c0      	nop			@ (mov r8, r8)

10001b64 <runtime_init>:
10001b64:	b570      	push	{r4, r5, r6, lr}
10001b66:	f7ff fe0b 	bl	10001780 <runtime_run_initializers>
10001b6a:	4d07      	ldr	r5, [pc, #28]	@ (10001b88 <runtime_init+0x24>)
10001b6c:	4e07      	ldr	r6, [pc, #28]	@ (10001b8c <runtime_init+0x28>)
10001b6e:	42b5      	cmp	r5, r6
10001b70:	d209      	bcs.n	10001b86 <runtime_init+0x22>
10001b72:	2400      	movs	r4, #0
10001b74:	3e01      	subs	r6, #1
10001b76:	1b76      	subs	r6, r6, r5
10001b78:	08b6      	lsrs	r6, r6, #2
10001b7a:	cd08      	ldmia	r5!, {r3}
10001b7c:	4798      	blx	r3
10001b7e:	0023      	movs	r3, r4
10001b80:	3401      	adds	r4, #1
10001b82:	42b3      	cmp	r3, r6
10001b84:	d1f9      	bne.n	10001b7a <runtime_init+0x16>
10001b86:	bd70      	pop	{r4, r5, r6, pc}
10001b88:	10004724 	.word	0x10004724
10001b8c:	1000472c 	.word	0x1000472c

10001b90 <stdio_out_chars_no_crlf>:
10001b90:	0003      	movs	r3, r0
10001b92:	b510      	push	{r4, lr}
10001b94:	0008      	movs	r0, r1
10001b96:	0011      	movs	r1, r2
10001b98:	681b      	ldr	r3, [r3, #0]
10001b9a:	4798      	blx	r3
10001b9c:	bd10      	pop	{r4, pc}
10001b9e:	46c0      	nop			@ (mov r8, r8)

10001ba0 <stdio_out_chars_crlf>:
10001ba0:	b5f0      	push	{r4, r5, r6, r7, lr}
10001ba2:	46c6      	mov	lr, r8
10001ba4:	b500      	push	{lr}
10001ba6:	7d43      	ldrb	r3, [r0, #21]
10001ba8:	0007      	movs	r7, r0
10001baa:	000d      	movs	r5, r1
10001bac:	0016      	movs	r6, r2
10001bae:	2b00      	cmp	r3, #0
10001bb0:	d038      	beq.n	10001c24 <stdio_out_chars_crlf+0x84>
10001bb2:	2a00      	cmp	r2, #0
10001bb4:	dd2e      	ble.n	10001c14 <stdio_out_chars_crlf+0x74>
10001bb6:	2100      	movs	r1, #0
10001bb8:	1e6a      	subs	r2, r5, #1
10001bba:	4690      	mov	r8, r2
10001bbc:	5c6a      	ldrb	r2, [r5, r1]
10001bbe:	7d03      	ldrb	r3, [r0, #20]
10001bc0:	1c4c      	adds	r4, r1, #1
10001bc2:	2000      	movs	r0, #0
10001bc4:	2a0a      	cmp	r2, #10
10001bc6:	d00c      	beq.n	10001be2 <stdio_out_chars_crlf+0x42>
10001bc8:	42a6      	cmp	r6, r4
10001bca:	d016      	beq.n	10001bfa <stdio_out_chars_crlf+0x5a>
10001bcc:	4643      	mov	r3, r8
10001bce:	5d1b      	ldrb	r3, [r3, r4]
10001bd0:	0021      	movs	r1, r4
10001bd2:	3b0d      	subs	r3, #13
10001bd4:	425a      	negs	r2, r3
10001bd6:	4153      	adcs	r3, r2
10001bd8:	5c6a      	ldrb	r2, [r5, r1]
10001bda:	b2db      	uxtb	r3, r3
10001bdc:	1c4c      	adds	r4, r1, #1
10001bde:	2a0a      	cmp	r2, #10
10001be0:	d1f2      	bne.n	10001bc8 <stdio_out_chars_crlf+0x28>
10001be2:	2b00      	cmp	r3, #0
10001be4:	d1f0      	bne.n	10001bc8 <stdio_out_chars_crlf+0x28>
10001be6:	4288      	cmp	r0, r1
10001be8:	db17      	blt.n	10001c1a <stdio_out_chars_crlf+0x7a>
10001bea:	2102      	movs	r1, #2
10001bec:	4810      	ldr	r0, [pc, #64]	@ (10001c30 <stdio_out_chars_crlf+0x90>)
10001bee:	683b      	ldr	r3, [r7, #0]
10001bf0:	4798      	blx	r3
10001bf2:	42a6      	cmp	r6, r4
10001bf4:	d007      	beq.n	10001c06 <stdio_out_chars_crlf+0x66>
10001bf6:	0020      	movs	r0, r4
10001bf8:	e7e8      	b.n	10001bcc <stdio_out_chars_crlf+0x2c>
10001bfa:	4286      	cmp	r6, r0
10001bfc:	dd03      	ble.n	10001c06 <stdio_out_chars_crlf+0x66>
10001bfe:	1a31      	subs	r1, r6, r0
10001c00:	683b      	ldr	r3, [r7, #0]
10001c02:	1828      	adds	r0, r5, r0
10001c04:	4798      	blx	r3
10001c06:	19ad      	adds	r5, r5, r6
10001c08:	3d01      	subs	r5, #1
10001c0a:	782b      	ldrb	r3, [r5, #0]
10001c0c:	3b0d      	subs	r3, #13
10001c0e:	425a      	negs	r2, r3
10001c10:	4153      	adcs	r3, r2
10001c12:	753b      	strb	r3, [r7, #20]
10001c14:	bc80      	pop	{r7}
10001c16:	46b8      	mov	r8, r7
10001c18:	bdf0      	pop	{r4, r5, r6, r7, pc}
10001c1a:	1a09      	subs	r1, r1, r0
10001c1c:	683b      	ldr	r3, [r7, #0]
10001c1e:	1828      	adds	r0, r5, r0
10001c20:	4798      	blx	r3
10001c22:	e7e2      	b.n	10001bea <stdio_out_chars_crlf+0x4a>
10001c24:	6803      	ldr	r3, [r0, #0]
10001c26:	0011      	movs	r1, r2
10001c28:	0028      	movs	r0, r5
10001c2a:	4798      	blx	r3
10001c2c:	e7f2      	b.n	10001c14 <stdio_out_chars_crlf+0x74>
10001c2e:	46c0      	nop			@ (mov r8, r8)
10001c30:	10004914 	.word	0x10004914

10001c34 <stdio_put_string>:
10001c34:	b5f0      	push	{r4, r5, r6, r7, lr}
10001c36:	46de      	mov	lr, fp
10001c38:	4657      	mov	r7, sl
10001c3a:	464e      	mov	r6, r9
10001c3c:	4645      	mov	r5, r8
10001c3e:	b5e0      	push	{r5, r6, r7, lr}
10001c40:	b085      	sub	sp, #20
10001c42:	0017      	movs	r7, r2
10001c44:	001c      	movs	r4, r3
10001c46:	0006      	movs	r6, r0
10001c48:	000d      	movs	r5, r1
10001c4a:	f7ff fb81 	bl	10001350 <time_us_64>
10001c4e:	2300      	movs	r3, #0
10001c50:	4a31      	ldr	r2, [pc, #196]	@ (10001d18 <stdio_put_string+0xe4>)
10001c52:	1812      	adds	r2, r2, r0
10001c54:	414b      	adcs	r3, r1
10001c56:	2180      	movs	r1, #128	@ 0x80
10001c58:	0609      	lsls	r1, r1, #24
10001c5a:	428b      	cmp	r3, r1
10001c5c:	d302      	bcc.n	10001c64 <stdio_put_string+0x30>
10001c5e:	2201      	movs	r2, #1
10001c60:	4b2e      	ldr	r3, [pc, #184]	@ (10001d1c <stdio_put_string+0xe8>)
10001c62:	4252      	negs	r2, r2
10001c64:	492e      	ldr	r1, [pc, #184]	@ (10001d20 <stdio_put_string+0xec>)
10001c66:	0008      	movs	r0, r1
10001c68:	468a      	mov	sl, r1
10001c6a:	f002 fd25 	bl	100046b8 <__mutex_try_enter_block_until_veneer>
10001c6e:	9001      	str	r0, [sp, #4]
10001c70:	1c6b      	adds	r3, r5, #1
10001c72:	d103      	bne.n	10001c7c <stdio_put_string+0x48>
10001c74:	0030      	movs	r0, r6
10001c76:	f002 fcaf 	bl	100045d8 <strlen>
10001c7a:	0005      	movs	r5, r0
10001c7c:	2c00      	cmp	r4, #0
10001c7e:	d026      	beq.n	10001cce <stdio_put_string+0x9a>
10001c80:	4b28      	ldr	r3, [pc, #160]	@ (10001d24 <stdio_put_string+0xf0>)
10001c82:	4698      	mov	r8, r3
10001c84:	4b28      	ldr	r3, [pc, #160]	@ (10001d28 <stdio_put_string+0xf4>)
10001c86:	681c      	ldr	r4, [r3, #0]
10001c88:	2c00      	cmp	r4, #0
10001c8a:	d015      	beq.n	10001cb8 <stdio_put_string+0x84>
10001c8c:	2f00      	cmp	r7, #0
10001c8e:	d121      	bne.n	10001cd4 <stdio_put_string+0xa0>
10001c90:	4f26      	ldr	r7, [pc, #152]	@ (10001d2c <stdio_put_string+0xf8>)
10001c92:	e002      	b.n	10001c9a <stdio_put_string+0x66>
10001c94:	6924      	ldr	r4, [r4, #16]
10001c96:	2c00      	cmp	r4, #0
10001c98:	d00e      	beq.n	10001cb8 <stdio_put_string+0x84>
10001c9a:	6823      	ldr	r3, [r4, #0]
10001c9c:	2b00      	cmp	r3, #0
10001c9e:	d0f9      	beq.n	10001c94 <stdio_put_string+0x60>
10001ca0:	683b      	ldr	r3, [r7, #0]
10001ca2:	2b00      	cmp	r3, #0
10001ca4:	d001      	beq.n	10001caa <stdio_put_string+0x76>
10001ca6:	429c      	cmp	r4, r3
10001ca8:	d1f4      	bne.n	10001c94 <stdio_put_string+0x60>
10001caa:	0020      	movs	r0, r4
10001cac:	002a      	movs	r2, r5
10001cae:	0031      	movs	r1, r6
10001cb0:	47c0      	blx	r8
10001cb2:	6924      	ldr	r4, [r4, #16]
10001cb4:	2c00      	cmp	r4, #0
10001cb6:	d1f0      	bne.n	10001c9a <stdio_put_string+0x66>
10001cb8:	9b01      	ldr	r3, [sp, #4]
10001cba:	2b00      	cmp	r3, #0
10001cbc:	d128      	bne.n	10001d10 <stdio_put_string+0xdc>
10001cbe:	0028      	movs	r0, r5
10001cc0:	b005      	add	sp, #20
10001cc2:	bcf0      	pop	{r4, r5, r6, r7}
10001cc4:	46bb      	mov	fp, r7
10001cc6:	46b2      	mov	sl, r6
10001cc8:	46a9      	mov	r9, r5
10001cca:	46a0      	mov	r8, r4
10001ccc:	bdf0      	pop	{r4, r5, r6, r7, pc}
10001cce:	4b18      	ldr	r3, [pc, #96]	@ (10001d30 <stdio_put_string+0xfc>)
10001cd0:	4698      	mov	r8, r3
10001cd2:	e7d7      	b.n	10001c84 <stdio_put_string+0x50>
10001cd4:	4b15      	ldr	r3, [pc, #84]	@ (10001d2c <stdio_put_string+0xf8>)
10001cd6:	4699      	mov	r9, r3
10001cd8:	ab02      	add	r3, sp, #8
10001cda:	1ddf      	adds	r7, r3, #7
10001cdc:	230a      	movs	r3, #10
10001cde:	469b      	mov	fp, r3
10001ce0:	e002      	b.n	10001ce8 <stdio_put_string+0xb4>
10001ce2:	6924      	ldr	r4, [r4, #16]
10001ce4:	2c00      	cmp	r4, #0
10001ce6:	d0e7      	beq.n	10001cb8 <stdio_put_string+0x84>
10001ce8:	6823      	ldr	r3, [r4, #0]
10001cea:	2b00      	cmp	r3, #0
10001cec:	d0f9      	beq.n	10001ce2 <stdio_put_string+0xae>
10001cee:	464b      	mov	r3, r9
10001cf0:	681b      	ldr	r3, [r3, #0]
10001cf2:	2b00      	cmp	r3, #0
10001cf4:	d001      	beq.n	10001cfa <stdio_put_string+0xc6>
10001cf6:	42a3      	cmp	r3, r4
10001cf8:	d1f3      	bne.n	10001ce2 <stdio_put_string+0xae>
10001cfa:	002a      	movs	r2, r5
10001cfc:	0031      	movs	r1, r6
10001cfe:	0020      	movs	r0, r4
10001d00:	47c0      	blx	r8
10001d02:	465b      	mov	r3, fp
10001d04:	2201      	movs	r2, #1
10001d06:	0039      	movs	r1, r7
10001d08:	0020      	movs	r0, r4
10001d0a:	703b      	strb	r3, [r7, #0]
10001d0c:	47c0      	blx	r8
10001d0e:	e7e8      	b.n	10001ce2 <stdio_put_string+0xae>
10001d10:	4650      	mov	r0, sl
10001d12:	f002 fc99 	bl	10004648 <__mutex_exit_veneer>
10001d16:	e7d2      	b.n	10001cbe <stdio_put_string+0x8a>
10001d18:	000f4240 	.word	0x000f4240
10001d1c:	7fffffff 	.word	0x7fffffff
10001d20:	20001058 	.word	0x20001058
10001d24:	10001ba1 	.word	0x10001ba1
10001d28:	20001b5c 	.word	0x20001b5c
10001d2c:	20001b64 	.word	0x20001b64
10001d30:	10001b91 	.word	0x10001b91

10001d34 <stdio_set_driver_enabled>:
10001d34:	4a0a      	ldr	r2, [pc, #40]	@ (10001d60 <stdio_set_driver_enabled+0x2c>)
10001d36:	6813      	ldr	r3, [r2, #0]
10001d38:	2b00      	cmp	r3, #0
10001d3a:	d105      	bne.n	10001d48 <stdio_set_driver_enabled+0x14>
10001d3c:	e00c      	b.n	10001d58 <stdio_set_driver_enabled+0x24>
10001d3e:	001a      	movs	r2, r3
10001d40:	691b      	ldr	r3, [r3, #16]
10001d42:	3210      	adds	r2, #16
10001d44:	2b00      	cmp	r3, #0
10001d46:	d007      	beq.n	10001d58 <stdio_set_driver_enabled+0x24>
10001d48:	4298      	cmp	r0, r3
10001d4a:	d1f8      	bne.n	10001d3e <stdio_set_driver_enabled+0xa>
10001d4c:	2900      	cmp	r1, #0
10001d4e:	d102      	bne.n	10001d56 <stdio_set_driver_enabled+0x22>
10001d50:	6903      	ldr	r3, [r0, #16]
10001d52:	6013      	str	r3, [r2, #0]
10001d54:	6101      	str	r1, [r0, #16]
10001d56:	4770      	bx	lr
10001d58:	2900      	cmp	r1, #0
10001d5a:	d0fc      	beq.n	10001d56 <stdio_set_driver_enabled+0x22>
10001d5c:	6010      	str	r0, [r2, #0]
10001d5e:	e7fa      	b.n	10001d56 <stdio_set_driver_enabled+0x22>
10001d60:	20001b5c 	.word	0x20001b5c

10001d64 <stdio_init_all>:
10001d64:	b510      	push	{r4, lr}
10001d66:	f000 fa8d 	bl	10002284 <stdio_usb_init>
10001d6a:	bd10      	pop	{r4, pc}

10001d6c <__wrap_putchar>:
10001d6c:	b5f0      	push	{r4, r5, r6, r7, lr}
10001d6e:	46ce      	mov	lr, r9
10001d70:	4647      	mov	r7, r8
10001d72:	b580      	push	{r7, lr}
10001d74:	b083      	sub	sp, #12
10001d76:	466b      	mov	r3, sp
10001d78:	0006      	movs	r6, r0
10001d7a:	1ddd      	adds	r5, r3, #7
10001d7c:	7028      	strb	r0, [r5, #0]
10001d7e:	f7ff fae7 	bl	10001350 <time_us_64>
10001d82:	2300      	movs	r3, #0
10001d84:	4a1a      	ldr	r2, [pc, #104]	@ (10001df0 <__wrap_putchar+0x84>)
10001d86:	1812      	adds	r2, r2, r0
10001d88:	414b      	adcs	r3, r1
10001d8a:	2180      	movs	r1, #128	@ 0x80
10001d8c:	0609      	lsls	r1, r1, #24
10001d8e:	428b      	cmp	r3, r1
10001d90:	d302      	bcc.n	10001d98 <__wrap_putchar+0x2c>
10001d92:	2201      	movs	r2, #1
10001d94:	4b17      	ldr	r3, [pc, #92]	@ (10001df4 <__wrap_putchar+0x88>)
10001d96:	4252      	negs	r2, r2
10001d98:	4917      	ldr	r1, [pc, #92]	@ (10001df8 <__wrap_putchar+0x8c>)
10001d9a:	0008      	movs	r0, r1
10001d9c:	4688      	mov	r8, r1
10001d9e:	f002 fc8b 	bl	100046b8 <__mutex_try_enter_block_until_veneer>
10001da2:	4b16      	ldr	r3, [pc, #88]	@ (10001dfc <__wrap_putchar+0x90>)
10001da4:	4681      	mov	r9, r0
10001da6:	681c      	ldr	r4, [r3, #0]
10001da8:	2c00      	cmp	r4, #0
10001daa:	d014      	beq.n	10001dd6 <__wrap_putchar+0x6a>
10001dac:	4f14      	ldr	r7, [pc, #80]	@ (10001e00 <__wrap_putchar+0x94>)
10001dae:	e002      	b.n	10001db6 <__wrap_putchar+0x4a>
10001db0:	6924      	ldr	r4, [r4, #16]
10001db2:	2c00      	cmp	r4, #0
10001db4:	d00f      	beq.n	10001dd6 <__wrap_putchar+0x6a>
10001db6:	6823      	ldr	r3, [r4, #0]
10001db8:	2b00      	cmp	r3, #0
10001dba:	d0f9      	beq.n	10001db0 <__wrap_putchar+0x44>
10001dbc:	683b      	ldr	r3, [r7, #0]
10001dbe:	2b00      	cmp	r3, #0
10001dc0:	d001      	beq.n	10001dc6 <__wrap_putchar+0x5a>
10001dc2:	429c      	cmp	r4, r3
10001dc4:	d1f4      	bne.n	10001db0 <__wrap_putchar+0x44>
10001dc6:	0020      	movs	r0, r4
10001dc8:	2201      	movs	r2, #1
10001dca:	0029      	movs	r1, r5
10001dcc:	f7ff fee8 	bl	10001ba0 <stdio_out_chars_crlf>
10001dd0:	6924      	ldr	r4, [r4, #16]
10001dd2:	2c00      	cmp	r4, #0
10001dd4:	d1ef      	bne.n	10001db6 <__wrap_putchar+0x4a>
10001dd6:	464b      	mov	r3, r9
10001dd8:	2b00      	cmp	r3, #0
10001dda:	d105      	bne.n	10001de8 <__wrap_putchar+0x7c>
10001ddc:	0030      	movs	r0, r6
10001dde:	b003      	add	sp, #12
10001de0:	bcc0      	pop	{r6, r7}
10001de2:	46b9      	mov	r9, r7
10001de4:	46b0      	mov	r8, r6
10001de6:	bdf0      	pop	{r4, r5, r6, r7, pc}
10001de8:	4640      	mov	r0, r8
10001dea:	f002 fc2d 	bl	10004648 <__mutex_exit_veneer>
10001dee:	e7f5      	b.n	10001ddc <__wrap_putchar+0x70>
10001df0:	000f4240 	.word	0x000f4240
10001df4:	7fffffff 	.word	0x7fffffff
10001df8:	20001058 	.word	0x20001058
10001dfc:	20001b5c 	.word	0x20001b5c
10001e00:	20001b64 	.word	0x20001b64

10001e04 <__wrap_puts>:
10001e04:	b570      	push	{r4, r5, r6, lr}
10001e06:	0004      	movs	r4, r0
10001e08:	f002 fbe6 	bl	100045d8 <strlen>
10001e0c:	2301      	movs	r3, #1
10001e0e:	0001      	movs	r1, r0
10001e10:	0005      	movs	r5, r0
10001e12:	2201      	movs	r2, #1
10001e14:	0020      	movs	r0, r4
10001e16:	f7ff ff0d 	bl	10001c34 <stdio_put_string>
10001e1a:	4b08      	ldr	r3, [pc, #32]	@ (10001e3c <__wrap_puts+0x38>)
10001e1c:	681c      	ldr	r4, [r3, #0]
10001e1e:	2c00      	cmp	r4, #0
10001e20:	d006      	beq.n	10001e30 <__wrap_puts+0x2c>
10001e22:	6863      	ldr	r3, [r4, #4]
10001e24:	2b00      	cmp	r3, #0
10001e26:	d005      	beq.n	10001e34 <__wrap_puts+0x30>
10001e28:	4798      	blx	r3
10001e2a:	6924      	ldr	r4, [r4, #16]
10001e2c:	2c00      	cmp	r4, #0
10001e2e:	d1f8      	bne.n	10001e22 <__wrap_puts+0x1e>
10001e30:	0028      	movs	r0, r5
10001e32:	bd70      	pop	{r4, r5, r6, pc}
10001e34:	6924      	ldr	r4, [r4, #16]
10001e36:	2c00      	cmp	r4, #0
10001e38:	d1f3      	bne.n	10001e22 <__wrap_puts+0x1e>
10001e3a:	e7f9      	b.n	10001e30 <__wrap_puts+0x2c>
10001e3c:	20001b5c 	.word	0x20001b5c

10001e40 <resetd_init>:
10001e40:	4770      	bx	lr
10001e42:	46c0      	nop			@ (mov r8, r8)

10001e44 <resetd_reset>:
10001e44:	2200      	movs	r2, #0
10001e46:	4b01      	ldr	r3, [pc, #4]	@ (10001e4c <resetd_reset+0x8>)
10001e48:	701a      	strb	r2, [r3, #0]
10001e4a:	4770      	bx	lr
10001e4c:	200020d2 	.word	0x200020d2

10001e50 <resetd_open>:
10001e50:	794b      	ldrb	r3, [r1, #5]
10001e52:	2000      	movs	r0, #0
10001e54:	2bff      	cmp	r3, #255	@ 0xff
10001e56:	d10b      	bne.n	10001e70 <resetd_open+0x20>
10001e58:	798b      	ldrb	r3, [r1, #6]
10001e5a:	2b00      	cmp	r3, #0
10001e5c:	d108      	bne.n	10001e70 <resetd_open+0x20>
10001e5e:	79cb      	ldrb	r3, [r1, #7]
10001e60:	2b01      	cmp	r3, #1
10001e62:	d105      	bne.n	10001e70 <resetd_open+0x20>
10001e64:	2a08      	cmp	r2, #8
10001e66:	d903      	bls.n	10001e70 <resetd_open+0x20>
10001e68:	4b02      	ldr	r3, [pc, #8]	@ (10001e74 <resetd_open+0x24>)
10001e6a:	788a      	ldrb	r2, [r1, #2]
10001e6c:	3009      	adds	r0, #9
10001e6e:	701a      	strb	r2, [r3, #0]
10001e70:	4770      	bx	lr
10001e72:	46c0      	nop			@ (mov r8, r8)
10001e74:	200020d2 	.word	0x200020d2

10001e78 <resetd_xfer_cb>:
10001e78:	2001      	movs	r0, #1
10001e7a:	4770      	bx	lr

10001e7c <resetd_control_xfer_cb>:
10001e7c:	b510      	push	{r4, lr}
10001e7e:	2901      	cmp	r1, #1
10001e80:	d001      	beq.n	10001e86 <resetd_control_xfer_cb+0xa>
10001e82:	2001      	movs	r0, #1
10001e84:	bd10      	pop	{r4, pc}
10001e86:	4913      	ldr	r1, [pc, #76]	@ (10001ed4 <resetd_control_xfer_cb+0x58>)
10001e88:	7953      	ldrb	r3, [r2, #5]
10001e8a:	7910      	ldrb	r0, [r2, #4]
10001e8c:	7809      	ldrb	r1, [r1, #0]
10001e8e:	021b      	lsls	r3, r3, #8
10001e90:	4303      	orrs	r3, r0
10001e92:	2000      	movs	r0, #0
10001e94:	4299      	cmp	r1, r3
10001e96:	d1f5      	bne.n	10001e84 <resetd_control_xfer_cb+0x8>
10001e98:	7853      	ldrb	r3, [r2, #1]
10001e9a:	2b01      	cmp	r3, #1
10001e9c:	d008      	beq.n	10001eb0 <resetd_control_xfer_cb+0x34>
10001e9e:	2b02      	cmp	r3, #2
10001ea0:	d1f0      	bne.n	10001e84 <resetd_control_xfer_cb+0x8>
10001ea2:	2000      	movs	r0, #0
10001ea4:	2264      	movs	r2, #100	@ 0x64
10001ea6:	2100      	movs	r1, #0
10001ea8:	f7ff fbb2 	bl	10001610 <watchdog_reboot>
10001eac:	2001      	movs	r0, #1
10001eae:	e7e9      	b.n	10001e84 <resetd_control_xfer_cb+0x8>
10001eb0:	78d3      	ldrb	r3, [r2, #3]
10001eb2:	7891      	ldrb	r1, [r2, #2]
10001eb4:	021b      	lsls	r3, r3, #8
10001eb6:	4319      	orrs	r1, r3
10001eb8:	05db      	lsls	r3, r3, #23
10001eba:	d507      	bpl.n	10001ecc <resetd_control_xfer_cb+0x50>
10001ebc:	0a4a      	lsrs	r2, r1, #9
10001ebe:	0010      	movs	r0, r2
10001ec0:	2301      	movs	r3, #1
10001ec2:	401a      	ands	r2, r3
10001ec4:	337e      	adds	r3, #126	@ 0x7e
10001ec6:	4019      	ands	r1, r3
10001ec8:	f7ff fc2a 	bl	10001720 <rom_reset_usb_boot_extra>
10001ecc:	2001      	movs	r0, #1
10001ece:	0a4a      	lsrs	r2, r1, #9
10001ed0:	4240      	negs	r0, r0
10001ed2:	e7f5      	b.n	10001ec0 <resetd_control_xfer_cb+0x44>
10001ed4:	200020d2 	.word	0x200020d2

10001ed8 <tud_descriptor_bos_cb>:
10001ed8:	4800      	ldr	r0, [pc, #0]	@ (10001edc <tud_descriptor_bos_cb+0x4>)
10001eda:	4770      	bx	lr
10001edc:	100049e0 	.word	0x100049e0

10001ee0 <tud_vendor_control_xfer_cb>:
10001ee0:	b570      	push	{r4, r5, r6, lr}
10001ee2:	0005      	movs	r5, r0
10001ee4:	0014      	movs	r4, r2
10001ee6:	2001      	movs	r0, #1
10001ee8:	2901      	cmp	r1, #1
10001eea:	d109      	bne.n	10001f00 <tud_vendor_control_xfer_cb+0x20>
10001eec:	7853      	ldrb	r3, [r2, #1]
10001eee:	2000      	movs	r0, #0
10001ef0:	2b01      	cmp	r3, #1
10001ef2:	d105      	bne.n	10001f00 <tud_vendor_control_xfer_cb+0x20>
10001ef4:	7963      	ldrb	r3, [r4, #5]
10001ef6:	7912      	ldrb	r2, [r2, #4]
10001ef8:	021b      	lsls	r3, r3, #8
10001efa:	4313      	orrs	r3, r2
10001efc:	2b07      	cmp	r3, #7
10001efe:	d000      	beq.n	10001f02 <tud_vendor_control_xfer_cb+0x22>
10001f00:	bd70      	pop	{r4, r5, r6, pc}
10001f02:	0021      	movs	r1, r4
10001f04:	0028      	movs	r0, r5
10001f06:	4a02      	ldr	r2, [pc, #8]	@ (10001f10 <tud_vendor_control_xfer_cb+0x30>)
10001f08:	339f      	adds	r3, #159	@ 0x9f
10001f0a:	f001 fa49 	bl	100033a0 <tud_control_xfer>
10001f0e:	e7f7      	b.n	10001f00 <tud_vendor_control_xfer_cb+0x20>
10001f10:	10004938 	.word	0x10004938

10001f14 <usbd_app_driver_get_cb>:
10001f14:	2301      	movs	r3, #1
10001f16:	7003      	strb	r3, [r0, #0]
10001f18:	4800      	ldr	r0, [pc, #0]	@ (10001f1c <usbd_app_driver_get_cb+0x8>)
10001f1a:	4770      	bx	lr
10001f1c:	10004918 	.word	0x10004918

10001f20 <tud_cdc_line_coding_cb>:
10001f20:	784b      	ldrb	r3, [r1, #1]
10001f22:	780a      	ldrb	r2, [r1, #0]
10001f24:	021b      	lsls	r3, r3, #8
10001f26:	4313      	orrs	r3, r2
10001f28:	788a      	ldrb	r2, [r1, #2]
10001f2a:	b510      	push	{r4, lr}
10001f2c:	0412      	lsls	r2, r2, #16
10001f2e:	431a      	orrs	r2, r3
10001f30:	78cb      	ldrb	r3, [r1, #3]
10001f32:	061b      	lsls	r3, r3, #24
10001f34:	4313      	orrs	r3, r2
10001f36:	2296      	movs	r2, #150	@ 0x96
10001f38:	00d2      	lsls	r2, r2, #3
10001f3a:	4293      	cmp	r3, r2
10001f3c:	d000      	beq.n	10001f40 <tud_cdc_line_coding_cb+0x20>
10001f3e:	bd10      	pop	{r4, pc}
10001f40:	2200      	movs	r2, #0
10001f42:	2001      	movs	r0, #1
10001f44:	0011      	movs	r1, r2
10001f46:	4240      	negs	r0, r0
10001f48:	f7ff fbea 	bl	10001720 <rom_reset_usb_boot_extra>

10001f4c <stdio_usb_set_chars_available_callback>:
10001f4c:	4b02      	ldr	r3, [pc, #8]	@ (10001f58 <stdio_usb_set_chars_available_callback+0xc>)
10001f4e:	6018      	str	r0, [r3, #0]
10001f50:	4b02      	ldr	r3, [pc, #8]	@ (10001f5c <stdio_usb_set_chars_available_callback+0x10>)
10001f52:	6019      	str	r1, [r3, #0]
10001f54:	4770      	bx	lr
10001f56:	46c0      	nop			@ (mov r8, r8)
10001f58:	20001afc 	.word	0x20001afc
10001f5c:	20001b00 	.word	0x20001b00

10001f60 <usb_irq>:
10001f60:	b510      	push	{r4, lr}
10001f62:	4b02      	ldr	r3, [pc, #8]	@ (10001f6c <usb_irq+0xc>)
10001f64:	7818      	ldrb	r0, [r3, #0]
10001f66:	f7fe fbdb 	bl	10000720 <irq_set_pending>
10001f6a:	bd10      	pop	{r4, pc}
10001f6c:	200020d3 	.word	0x200020d3

10001f70 <timer_task>:
10001f70:	4b15      	ldr	r3, [pc, #84]	@ (10001fc8 <timer_task+0x58>)
10001f72:	b570      	push	{r4, r5, r6, lr}
10001f74:	681a      	ldr	r2, [r3, #0]
10001f76:	2a00      	cmp	r2, #0
10001f78:	d022      	beq.n	10001fc0 <timer_task+0x50>
10001f7a:	f3ef 8110 	mrs	r1, PRIMASK
10001f7e:	b672      	cpsid	i
10001f80:	6810      	ldr	r0, [r2, #0]
10001f82:	2800      	cmp	r0, #0
10001f84:	d0fc      	beq.n	10001f80 <timer_task+0x10>
10001f86:	f3bf 8f5f 	dmb	sy
10001f8a:	2000      	movs	r0, #0
10001f8c:	4a0f      	ldr	r2, [pc, #60]	@ (10001fcc <timer_task+0x5c>)
10001f8e:	6059      	str	r1, [r3, #4]
10001f90:	7010      	strb	r0, [r2, #0]
10001f92:	681b      	ldr	r3, [r3, #0]
10001f94:	f3bf 8f5f 	dmb	sy
10001f98:	6018      	str	r0, [r3, #0]
10001f9a:	f381 8810 	msr	PRIMASK, r1
10001f9e:	2400      	movs	r4, #0
10001fa0:	2500      	movs	r5, #0
10001fa2:	4e0b      	ldr	r6, [pc, #44]	@ (10001fd0 <timer_task+0x60>)
10001fa4:	7830      	ldrb	r0, [r6, #0]
10001fa6:	f7fe fbaf 	bl	10000708 <irq_is_enabled>
10001faa:	2800      	cmp	r0, #0
10001fac:	d104      	bne.n	10001fb8 <timer_task+0x48>
10001fae:	2400      	movs	r4, #0
10001fb0:	2500      	movs	r5, #0
10001fb2:	0029      	movs	r1, r5
10001fb4:	0020      	movs	r0, r4
10001fb6:	bd70      	pop	{r4, r5, r6, pc}
10001fb8:	7830      	ldrb	r0, [r6, #0]
10001fba:	f7fe fbb1 	bl	10000720 <irq_set_pending>
10001fbe:	e7f8      	b.n	10001fb2 <timer_task+0x42>
10001fc0:	24fa      	movs	r4, #250	@ 0xfa
10001fc2:	2500      	movs	r5, #0
10001fc4:	00a4      	lsls	r4, r4, #2
10001fc6:	e7ec      	b.n	10001fa2 <timer_task+0x32>
10001fc8:	20001f8c 	.word	0x20001f8c
10001fcc:	200020d4 	.word	0x200020d4
10001fd0:	200020d3 	.word	0x200020d3

10001fd4 <stdio_usb_in_chars>:
10001fd4:	b570      	push	{r4, r5, r6, lr}
10001fd6:	0004      	movs	r4, r0
10001fd8:	2000      	movs	r0, #0
10001fda:	000e      	movs	r6, r1
10001fdc:	f001 faf8 	bl	100035d0 <tud_cdc_n_connected>
10001fe0:	2800      	cmp	r0, #0
10001fe2:	d036      	beq.n	10002052 <stdio_usb_in_chars+0x7e>
10001fe4:	2000      	movs	r0, #0
10001fe6:	f001 fb0b 	bl	10003600 <tud_cdc_n_available>
10001fea:	2800      	cmp	r0, #0
10001fec:	d031      	beq.n	10002052 <stdio_usb_in_chars+0x7e>
10001fee:	f7ff f9af 	bl	10001350 <time_us_64>
10001ff2:	2300      	movs	r3, #0
10001ff4:	4a18      	ldr	r2, [pc, #96]	@ (10002058 <stdio_usb_in_chars+0x84>)
10001ff6:	1812      	adds	r2, r2, r0
10001ff8:	414b      	adcs	r3, r1
10001ffa:	2180      	movs	r1, #128	@ 0x80
10001ffc:	0609      	lsls	r1, r1, #24
10001ffe:	428b      	cmp	r3, r1
10002000:	d216      	bcs.n	10002030 <stdio_usb_in_chars+0x5c>
10002002:	4d16      	ldr	r5, [pc, #88]	@ (1000205c <stdio_usb_in_chars+0x88>)
10002004:	0028      	movs	r0, r5
10002006:	f002 fb57 	bl	100046b8 <__mutex_try_enter_block_until_veneer>
1000200a:	2800      	cmp	r0, #0
1000200c:	d021      	beq.n	10002052 <stdio_usb_in_chars+0x7e>
1000200e:	2000      	movs	r0, #0
10002010:	f001 fade 	bl	100035d0 <tud_cdc_n_connected>
10002014:	2800      	cmp	r0, #0
10002016:	d10f      	bne.n	10002038 <stdio_usb_in_chars+0x64>
10002018:	2001      	movs	r0, #1
1000201a:	2100      	movs	r1, #0
1000201c:	4240      	negs	r0, r0
1000201e:	f000 fcf3 	bl	10002a08 <tud_task_ext>
10002022:	2403      	movs	r4, #3
10002024:	4264      	negs	r4, r4
10002026:	0028      	movs	r0, r5
10002028:	f002 fb0e 	bl	10004648 <__mutex_exit_veneer>
1000202c:	0020      	movs	r0, r4
1000202e:	bd70      	pop	{r4, r5, r6, pc}
10002030:	2201      	movs	r2, #1
10002032:	4b0b      	ldr	r3, [pc, #44]	@ (10002060 <stdio_usb_in_chars+0x8c>)
10002034:	4252      	negs	r2, r2
10002036:	e7e4      	b.n	10002002 <stdio_usb_in_chars+0x2e>
10002038:	2000      	movs	r0, #0
1000203a:	f001 fae1 	bl	10003600 <tud_cdc_n_available>
1000203e:	2800      	cmp	r0, #0
10002040:	d0ea      	beq.n	10002018 <stdio_usb_in_chars+0x44>
10002042:	0021      	movs	r1, r4
10002044:	0032      	movs	r2, r6
10002046:	2000      	movs	r0, #0
10002048:	f001 fae6 	bl	10003618 <tud_cdc_n_read>
1000204c:	1e04      	subs	r4, r0, #0
1000204e:	d1ea      	bne.n	10002026 <stdio_usb_in_chars+0x52>
10002050:	e7e7      	b.n	10002022 <stdio_usb_in_chars+0x4e>
10002052:	2403      	movs	r4, #3
10002054:	4264      	negs	r4, r4
10002056:	e7e9      	b.n	1000202c <stdio_usb_in_chars+0x58>
10002058:	000f4240 	.word	0x000f4240
1000205c:	200020b4 	.word	0x200020b4
10002060:	7fffffff 	.word	0x7fffffff

10002064 <stdio_usb_out_flush>:
10002064:	b510      	push	{r4, lr}
10002066:	f7ff f973 	bl	10001350 <time_us_64>
1000206a:	2300      	movs	r3, #0
1000206c:	4a0e      	ldr	r2, [pc, #56]	@ (100020a8 <stdio_usb_out_flush+0x44>)
1000206e:	1812      	adds	r2, r2, r0
10002070:	414b      	adcs	r3, r1
10002072:	2180      	movs	r1, #128	@ 0x80
10002074:	0609      	lsls	r1, r1, #24
10002076:	428b      	cmp	r3, r1
10002078:	d302      	bcc.n	10002080 <stdio_usb_out_flush+0x1c>
1000207a:	2201      	movs	r2, #1
1000207c:	4b0b      	ldr	r3, [pc, #44]	@ (100020ac <stdio_usb_out_flush+0x48>)
1000207e:	4252      	negs	r2, r2
10002080:	4c0b      	ldr	r4, [pc, #44]	@ (100020b0 <stdio_usb_out_flush+0x4c>)
10002082:	0020      	movs	r0, r4
10002084:	f002 fb18 	bl	100046b8 <__mutex_try_enter_block_until_veneer>
10002088:	2800      	cmp	r0, #0
1000208a:	d00c      	beq.n	100020a6 <stdio_usb_out_flush+0x42>
1000208c:	2001      	movs	r0, #1
1000208e:	2100      	movs	r1, #0
10002090:	4240      	negs	r0, r0
10002092:	f000 fcb9 	bl	10002a08 <tud_task_ext>
10002096:	2000      	movs	r0, #0
10002098:	f001 fb0a 	bl	100036b0 <tud_cdc_n_write_flush>
1000209c:	2800      	cmp	r0, #0
1000209e:	d1f5      	bne.n	1000208c <stdio_usb_out_flush+0x28>
100020a0:	0020      	movs	r0, r4
100020a2:	f002 fad1 	bl	10004648 <__mutex_exit_veneer>
100020a6:	bd10      	pop	{r4, pc}
100020a8:	000f4240 	.word	0x000f4240
100020ac:	7fffffff 	.word	0x7fffffff
100020b0:	200020b4 	.word	0x200020b4

100020b4 <stdio_usb_out_chars>:
100020b4:	b5f8      	push	{r3, r4, r5, r6, r7, lr}
100020b6:	46de      	mov	lr, fp
100020b8:	4657      	mov	r7, sl
100020ba:	b580      	push	{r7, lr}
100020bc:	0005      	movs	r5, r0
100020be:	000c      	movs	r4, r1
100020c0:	f7ff f946 	bl	10001350 <time_us_64>
100020c4:	2300      	movs	r3, #0
100020c6:	4a37      	ldr	r2, [pc, #220]	@ (100021a4 <stdio_usb_out_chars+0xf0>)
100020c8:	1812      	adds	r2, r2, r0
100020ca:	414b      	adcs	r3, r1
100020cc:	2180      	movs	r1, #128	@ 0x80
100020ce:	0609      	lsls	r1, r1, #24
100020d0:	428b      	cmp	r3, r1
100020d2:	d302      	bcc.n	100020da <stdio_usb_out_chars+0x26>
100020d4:	2201      	movs	r2, #1
100020d6:	4b34      	ldr	r3, [pc, #208]	@ (100021a8 <stdio_usb_out_chars+0xf4>)
100020d8:	4252      	negs	r2, r2
100020da:	4934      	ldr	r1, [pc, #208]	@ (100021ac <stdio_usb_out_chars+0xf8>)
100020dc:	0008      	movs	r0, r1
100020de:	468a      	mov	sl, r1
100020e0:	f002 faea 	bl	100046b8 <__mutex_try_enter_block_until_veneer>
100020e4:	2800      	cmp	r0, #0
100020e6:	d103      	bne.n	100020f0 <stdio_usb_out_chars+0x3c>
100020e8:	bcc0      	pop	{r6, r7}
100020ea:	46bb      	mov	fp, r7
100020ec:	46b2      	mov	sl, r6
100020ee:	bdf8      	pop	{r3, r4, r5, r6, r7, pc}
100020f0:	2000      	movs	r0, #0
100020f2:	f001 fa6d 	bl	100035d0 <tud_cdc_n_connected>
100020f6:	2800      	cmp	r0, #0
100020f8:	d04a      	beq.n	10002190 <stdio_usb_out_chars+0xdc>
100020fa:	2600      	movs	r6, #0
100020fc:	2c00      	cmp	r4, #0
100020fe:	dd43      	ble.n	10002188 <stdio_usb_out_chars+0xd4>
10002100:	4b2b      	ldr	r3, [pc, #172]	@ (100021b0 <stdio_usb_out_chars+0xfc>)
10002102:	469b      	mov	fp, r3
10002104:	e014      	b.n	10002130 <stdio_usb_out_chars+0x7c>
10002106:	19a9      	adds	r1, r5, r6
10002108:	2000      	movs	r0, #0
1000210a:	f001 fb0d 	bl	10003728 <tud_cdc_n_write>
1000210e:	0007      	movs	r7, r0
10002110:	2001      	movs	r0, #1
10002112:	2100      	movs	r1, #0
10002114:	4240      	negs	r0, r0
10002116:	f000 fc77 	bl	10002a08 <tud_task_ext>
1000211a:	2000      	movs	r0, #0
1000211c:	f001 fac8 	bl	100036b0 <tud_cdc_n_write_flush>
10002120:	f7ff f916 	bl	10001350 <time_us_64>
10002124:	4b22      	ldr	r3, [pc, #136]	@ (100021b0 <stdio_usb_out_chars+0xfc>)
10002126:	19f6      	adds	r6, r6, r7
10002128:	6018      	str	r0, [r3, #0]
1000212a:	6059      	str	r1, [r3, #4]
1000212c:	42b4      	cmp	r4, r6
1000212e:	dd2b      	ble.n	10002188 <stdio_usb_out_chars+0xd4>
10002130:	2000      	movs	r0, #0
10002132:	f001 fb19 	bl	10003768 <tud_cdc_n_write_available>
10002136:	1ba7      	subs	r7, r4, r6
10002138:	0002      	movs	r2, r0
1000213a:	42b8      	cmp	r0, r7
1000213c:	dd00      	ble.n	10002140 <stdio_usb_out_chars+0x8c>
1000213e:	003a      	movs	r2, r7
10002140:	2a00      	cmp	r2, #0
10002142:	d1e0      	bne.n	10002106 <stdio_usb_out_chars+0x52>
10002144:	2001      	movs	r0, #1
10002146:	2100      	movs	r1, #0
10002148:	4240      	negs	r0, r0
1000214a:	f000 fc5d 	bl	10002a08 <tud_task_ext>
1000214e:	2000      	movs	r0, #0
10002150:	f001 faae 	bl	100036b0 <tud_cdc_n_write_flush>
10002154:	2000      	movs	r0, #0
10002156:	f001 fa3b 	bl	100035d0 <tud_cdc_n_connected>
1000215a:	2800      	cmp	r0, #0
1000215c:	d014      	beq.n	10002188 <stdio_usb_out_chars+0xd4>
1000215e:	2000      	movs	r0, #0
10002160:	f001 fb02 	bl	10003768 <tud_cdc_n_write_available>
10002164:	2800      	cmp	r0, #0
10002166:	d1e1      	bne.n	1000212c <stdio_usb_out_chars+0x78>
10002168:	f7ff f8f2 	bl	10001350 <time_us_64>
1000216c:	465b      	mov	r3, fp
1000216e:	000f      	movs	r7, r1
10002170:	681a      	ldr	r2, [r3, #0]
10002172:	685b      	ldr	r3, [r3, #4]
10002174:	2100      	movs	r1, #0
10002176:	4684      	mov	ip, r0
10002178:	480e      	ldr	r0, [pc, #56]	@ (100021b4 <stdio_usb_out_chars+0x100>)
1000217a:	1812      	adds	r2, r2, r0
1000217c:	414b      	adcs	r3, r1
1000217e:	429f      	cmp	r7, r3
10002180:	d802      	bhi.n	10002188 <stdio_usb_out_chars+0xd4>
10002182:	d1d3      	bne.n	1000212c <stdio_usb_out_chars+0x78>
10002184:	4594      	cmp	ip, r2
10002186:	d9d1      	bls.n	1000212c <stdio_usb_out_chars+0x78>
10002188:	4650      	mov	r0, sl
1000218a:	f002 fa5d 	bl	10004648 <__mutex_exit_veneer>
1000218e:	e7ab      	b.n	100020e8 <stdio_usb_out_chars+0x34>
10002190:	2000      	movs	r0, #0
10002192:	2100      	movs	r1, #0
10002194:	4b06      	ldr	r3, [pc, #24]	@ (100021b0 <stdio_usb_out_chars+0xfc>)
10002196:	6018      	str	r0, [r3, #0]
10002198:	6059      	str	r1, [r3, #4]
1000219a:	4650      	mov	r0, sl
1000219c:	f002 fa54 	bl	10004648 <__mutex_exit_veneer>
100021a0:	e7a2      	b.n	100020e8 <stdio_usb_out_chars+0x34>
100021a2:	46c0      	nop			@ (mov r8, r8)
100021a4:	000f4240 	.word	0x000f4240
100021a8:	7fffffff 	.word	0x7fffffff
100021ac:	200020b4 	.word	0x200020b4
100021b0:	200011e0 	.word	0x200011e0
100021b4:	0007a120 	.word	0x0007a120

100021b8 <low_priority_worker_irq>:
100021b8:	b530      	push	{r4, r5, lr}
100021ba:	4c2b      	ldr	r4, [pc, #172]	@ (10002268 <low_priority_worker_irq+0xb0>)
100021bc:	b085      	sub	sp, #20
100021be:	2100      	movs	r1, #0
100021c0:	0020      	movs	r0, r4
100021c2:	f002 fa61 	bl	10004688 <__mutex_try_enter_veneer>
100021c6:	2800      	cmp	r0, #0
100021c8:	d11c      	bne.n	10002204 <low_priority_worker_irq+0x4c>
100021ca:	4b28      	ldr	r3, [pc, #160]	@ (1000226c <low_priority_worker_irq+0xb4>)
100021cc:	681a      	ldr	r2, [r3, #0]
100021ce:	2a00      	cmp	r2, #0
100021d0:	d016      	beq.n	10002200 <low_priority_worker_irq+0x48>
100021d2:	f3ef 8110 	mrs	r1, PRIMASK
100021d6:	b672      	cpsid	i
100021d8:	6810      	ldr	r0, [r2, #0]
100021da:	2800      	cmp	r0, #0
100021dc:	d0fc      	beq.n	100021d8 <low_priority_worker_irq+0x20>
100021de:	f3bf 8f5f 	dmb	sy
100021e2:	2401      	movs	r4, #1
100021e4:	4822      	ldr	r0, [pc, #136]	@ (10002270 <low_priority_worker_irq+0xb8>)
100021e6:	6059      	str	r1, [r3, #4]
100021e8:	7802      	ldrb	r2, [r0, #0]
100021ea:	681b      	ldr	r3, [r3, #0]
100021ec:	b2d2      	uxtb	r2, r2
100021ee:	7004      	strb	r4, [r0, #0]
100021f0:	f3bf 8f5f 	dmb	sy
100021f4:	2000      	movs	r0, #0
100021f6:	6018      	str	r0, [r3, #0]
100021f8:	f381 8810 	msr	PRIMASK, r1
100021fc:	2a00      	cmp	r2, #0
100021fe:	d017      	beq.n	10002230 <low_priority_worker_irq+0x78>
10002200:	b005      	add	sp, #20
10002202:	bd30      	pop	{r4, r5, pc}
10002204:	2001      	movs	r0, #1
10002206:	2100      	movs	r1, #0
10002208:	4240      	negs	r0, r0
1000220a:	f000 fbfd 	bl	10002a08 <tud_task_ext>
1000220e:	2000      	movs	r0, #0
10002210:	f001 f9f6 	bl	10003600 <tud_cdc_n_available>
10002214:	0005      	movs	r5, r0
10002216:	0020      	movs	r0, r4
10002218:	f002 fa16 	bl	10004648 <__mutex_exit_veneer>
1000221c:	2d00      	cmp	r5, #0
1000221e:	d0ef      	beq.n	10002200 <low_priority_worker_irq+0x48>
10002220:	4b14      	ldr	r3, [pc, #80]	@ (10002274 <low_priority_worker_irq+0xbc>)
10002222:	681b      	ldr	r3, [r3, #0]
10002224:	2b00      	cmp	r3, #0
10002226:	d0eb      	beq.n	10002200 <low_priority_worker_irq+0x48>
10002228:	4a13      	ldr	r2, [pc, #76]	@ (10002278 <low_priority_worker_irq+0xc0>)
1000222a:	6810      	ldr	r0, [r2, #0]
1000222c:	4798      	blx	r3
1000222e:	e7e7      	b.n	10002200 <low_priority_worker_irq+0x48>
10002230:	f7fe fe82 	bl	10000f38 <alarm_pool_get_default>
10002234:	0004      	movs	r4, r0
10002236:	f7ff f88b 	bl	10001350 <time_us_64>
1000223a:	22fa      	movs	r2, #250	@ 0xfa
1000223c:	2300      	movs	r3, #0
1000223e:	0092      	lsls	r2, r2, #2
10002240:	1812      	adds	r2, r2, r0
10002242:	414b      	adcs	r3, r1
10002244:	2180      	movs	r1, #128	@ 0x80
10002246:	0609      	lsls	r1, r1, #24
10002248:	428b      	cmp	r3, r1
1000224a:	d302      	bcc.n	10002252 <low_priority_worker_irq+0x9a>
1000224c:	2201      	movs	r2, #1
1000224e:	4b0b      	ldr	r3, [pc, #44]	@ (1000227c <low_priority_worker_irq+0xc4>)
10002250:	4252      	negs	r2, r2
10002252:	2101      	movs	r1, #1
10002254:	9102      	str	r1, [sp, #8]
10002256:	2100      	movs	r1, #0
10002258:	9101      	str	r1, [sp, #4]
1000225a:	4909      	ldr	r1, [pc, #36]	@ (10002280 <low_priority_worker_irq+0xc8>)
1000225c:	0020      	movs	r0, r4
1000225e:	9100      	str	r1, [sp, #0]
10002260:	f7fe fe6e 	bl	10000f40 <alarm_pool_add_alarm_at>
10002264:	e7cc      	b.n	10002200 <low_priority_worker_irq+0x48>
10002266:	46c0      	nop			@ (mov r8, r8)
10002268:	200020b4 	.word	0x200020b4
1000226c:	20001f8c 	.word	0x20001f8c
10002270:	200020d4 	.word	0x200020d4
10002274:	20001afc 	.word	0x20001afc
10002278:	20001b00 	.word	0x20001b00
1000227c:	7fffffff 	.word	0x7fffffff
10002280:	10001f71 	.word	0x10001f71

10002284 <stdio_usb_init>:
10002284:	23d0      	movs	r3, #208	@ 0xd0
10002286:	b510      	push	{r4, lr}
10002288:	061b      	lsls	r3, r3, #24
1000228a:	b084      	sub	sp, #16
1000228c:	681c      	ldr	r4, [r3, #0]
1000228e:	f7fe fe53 	bl	10000f38 <alarm_pool_get_default>
10002292:	f7fe ff51 	bl	10001138 <alarm_pool_core_num>
10002296:	42a0      	cmp	r0, r4
10002298:	d002      	beq.n	100022a0 <stdio_usb_init+0x1c>
1000229a:	2000      	movs	r0, #0
1000229c:	b004      	add	sp, #16
1000229e:	bd10      	pop	{r4, pc}
100022a0:	4b29      	ldr	r3, [pc, #164]	@ (10002348 <stdio_usb_init+0xc4>)
100022a2:	781b      	ldrb	r3, [r3, #0]
100022a4:	f001 fd6a 	bl	10003d7c <tusb_init>
100022a8:	4828      	ldr	r0, [pc, #160]	@ (1000234c <stdio_usb_init+0xc8>)
100022aa:	6803      	ldr	r3, [r0, #0]
100022ac:	2b00      	cmp	r3, #0
100022ae:	d047      	beq.n	10002340 <stdio_usb_init+0xbc>
100022b0:	2001      	movs	r0, #1
100022b2:	f7fe fbd1 	bl	10000a58 <user_irq_claim_unused>
100022b6:	23ff      	movs	r3, #255	@ 0xff
100022b8:	4c25      	ldr	r4, [pc, #148]	@ (10002350 <stdio_usb_init+0xcc>)
100022ba:	4926      	ldr	r1, [pc, #152]	@ (10002354 <stdio_usb_init+0xd0>)
100022bc:	7020      	strb	r0, [r4, #0]
100022be:	4018      	ands	r0, r3
100022c0:	f7fe fa4c 	bl	1000075c <irq_set_exclusive_handler>
100022c4:	7820      	ldrb	r0, [r4, #0]
100022c6:	2101      	movs	r1, #1
100022c8:	f7fe fa0c 	bl	100006e4 <irq_set_enabled>
100022cc:	2005      	movs	r0, #5
100022ce:	f7fe fa2f 	bl	10000730 <irq_has_shared_handler>
100022d2:	2800      	cmp	r0, #0
100022d4:	d126      	bne.n	10002324 <stdio_usb_init+0xa0>
100022d6:	2208      	movs	r2, #8
100022d8:	2100      	movs	r1, #0
100022da:	481f      	ldr	r0, [pc, #124]	@ (10002358 <stdio_usb_init+0xd4>)
100022dc:	f7ff fc10 	bl	10001b00 <__wrap_memset>
100022e0:	f7fe fe2a 	bl	10000f38 <alarm_pool_get_default>
100022e4:	0004      	movs	r4, r0
100022e6:	f7ff f833 	bl	10001350 <time_us_64>
100022ea:	22fa      	movs	r2, #250	@ 0xfa
100022ec:	2300      	movs	r3, #0
100022ee:	0092      	lsls	r2, r2, #2
100022f0:	1812      	adds	r2, r2, r0
100022f2:	414b      	adcs	r3, r1
100022f4:	2180      	movs	r1, #128	@ 0x80
100022f6:	0609      	lsls	r1, r1, #24
100022f8:	428b      	cmp	r3, r1
100022fa:	d302      	bcc.n	10002302 <stdio_usb_init+0x7e>
100022fc:	2201      	movs	r2, #1
100022fe:	4b17      	ldr	r3, [pc, #92]	@ (1000235c <stdio_usb_init+0xd8>)
10002300:	4252      	negs	r2, r2
10002302:	2101      	movs	r1, #1
10002304:	9102      	str	r1, [sp, #8]
10002306:	2100      	movs	r1, #0
10002308:	9101      	str	r1, [sp, #4]
1000230a:	4915      	ldr	r1, [pc, #84]	@ (10002360 <stdio_usb_init+0xdc>)
1000230c:	0020      	movs	r0, r4
1000230e:	9100      	str	r1, [sp, #0]
10002310:	f7fe fe16 	bl	10000f40 <alarm_pool_add_alarm_at>
10002314:	2800      	cmp	r0, #0
10002316:	dbc0      	blt.n	1000229a <stdio_usb_init+0x16>
10002318:	4812      	ldr	r0, [pc, #72]	@ (10002364 <stdio_usb_init+0xe0>)
1000231a:	2101      	movs	r1, #1
1000231c:	f7ff fd0a 	bl	10001d34 <stdio_set_driver_enabled>
10002320:	2001      	movs	r0, #1
10002322:	e7bb      	b.n	1000229c <stdio_usb_init+0x18>
10002324:	2001      	movs	r0, #1
10002326:	f7fe f9ab 	bl	10000680 <spin_lock_claim_unused>
1000232a:	4b0b      	ldr	r3, [pc, #44]	@ (10002358 <stdio_usb_init+0xd4>)
1000232c:	0001      	movs	r1, r0
1000232e:	0018      	movs	r0, r3
10002330:	f7fe fbf4 	bl	10000b1c <critical_section_init_with_lock_num>
10002334:	2200      	movs	r2, #0
10002336:	2005      	movs	r0, #5
10002338:	490b      	ldr	r1, [pc, #44]	@ (10002368 <stdio_usb_init+0xe4>)
1000233a:	f7fe fa39 	bl	100007b0 <irq_add_shared_handler>
1000233e:	e7eb      	b.n	10002318 <stdio_usb_init+0x94>
10002340:	f7fe fbd0 	bl	10000ae4 <mutex_init>
10002344:	e7b4      	b.n	100022b0 <stdio_usb_init+0x2c>
10002346:	46c0      	nop			@ (mov r8, r8)
10002348:	10004b98 	.word	0x10004b98
1000234c:	200020b4 	.word	0x200020b4
10002350:	200020d3 	.word	0x200020d3
10002354:	100021b9 	.word	0x100021b9
10002358:	20001f8c 	.word	0x20001f8c
1000235c:	7fffffff 	.word	0x7fffffff
10002360:	10001f71 	.word	0x10001f71
10002364:	20001020 	.word	0x20001020
10002368:	10001f61 	.word	0x10001f61

1000236c <tud_descriptor_device_cb>:
1000236c:	4800      	ldr	r0, [pc, #0]	@ (10002370 <tud_descriptor_device_cb+0x4>)
1000236e:	4770      	bx	lr
10002370:	10004a7c 	.word	0x10004a7c

10002374 <tud_descriptor_configuration_cb>:
10002374:	4800      	ldr	r0, [pc, #0]	@ (10002378 <tud_descriptor_configuration_cb+0x4>)
10002376:	4770      	bx	lr
10002378:	10004a28 	.word	0x10004a28

1000237c <tud_descriptor_string_cb>:
1000237c:	b510      	push	{r4, lr}
1000237e:	0004      	movs	r4, r0
10002380:	4817      	ldr	r0, [pc, #92]	@ (100023e0 <tud_descriptor_string_cb+0x64>)
10002382:	7803      	ldrb	r3, [r0, #0]
10002384:	2b00      	cmp	r3, #0
10002386:	d020      	beq.n	100023ca <tud_descriptor_string_cb+0x4e>
10002388:	2c00      	cmp	r4, #0
1000238a:	d106      	bne.n	1000239a <tud_descriptor_string_cb+0x1e>
1000238c:	4b15      	ldr	r3, [pc, #84]	@ (100023e4 <tud_descriptor_string_cb+0x68>)
1000238e:	4816      	ldr	r0, [pc, #88]	@ (100023e8 <tud_descriptor_string_cb+0x6c>)
10002390:	8043      	strh	r3, [r0, #2]
10002392:	3b06      	subs	r3, #6
10002394:	3bff      	subs	r3, #255	@ 0xff
10002396:	8003      	strh	r3, [r0, #0]
10002398:	bd10      	pop	{r4, pc}
1000239a:	2c05      	cmp	r4, #5
1000239c:	d819      	bhi.n	100023d2 <tud_descriptor_string_cb+0x56>
1000239e:	4b13      	ldr	r3, [pc, #76]	@ (100023ec <tud_descriptor_string_cb+0x70>)
100023a0:	00a4      	lsls	r4, r4, #2
100023a2:	58e0      	ldr	r0, [r4, r3]
100023a4:	4912      	ldr	r1, [pc, #72]	@ (100023f0 <tud_descriptor_string_cb+0x74>)
100023a6:	2301      	movs	r3, #1
100023a8:	3801      	subs	r0, #1
100023aa:	e004      	b.n	100023b6 <tud_descriptor_string_cb+0x3a>
100023ac:	3301      	adds	r3, #1
100023ae:	800a      	strh	r2, [r1, #0]
100023b0:	3102      	adds	r1, #2
100023b2:	2b14      	cmp	r3, #20
100023b4:	d00f      	beq.n	100023d6 <tud_descriptor_string_cb+0x5a>
100023b6:	5cc2      	ldrb	r2, [r0, r3]
100023b8:	2a00      	cmp	r2, #0
100023ba:	d1f7      	bne.n	100023ac <tud_descriptor_string_cb+0x30>
100023bc:	22c0      	movs	r2, #192	@ 0xc0
100023be:	b2db      	uxtb	r3, r3
100023c0:	005b      	lsls	r3, r3, #1
100023c2:	0092      	lsls	r2, r2, #2
100023c4:	4808      	ldr	r0, [pc, #32]	@ (100023e8 <tud_descriptor_string_cb+0x6c>)
100023c6:	4313      	orrs	r3, r2
100023c8:	e7e5      	b.n	10002396 <tud_descriptor_string_cb+0x1a>
100023ca:	2111      	movs	r1, #17
100023cc:	f000 f81a 	bl	10002404 <pico_get_unique_board_id_string>
100023d0:	e7da      	b.n	10002388 <tud_descriptor_string_cb+0xc>
100023d2:	2000      	movs	r0, #0
100023d4:	e7e0      	b.n	10002398 <tud_descriptor_string_cb+0x1c>
100023d6:	23ca      	movs	r3, #202	@ 0xca
100023d8:	4803      	ldr	r0, [pc, #12]	@ (100023e8 <tud_descriptor_string_cb+0x6c>)
100023da:	009b      	lsls	r3, r3, #2
100023dc:	e7db      	b.n	10002396 <tud_descriptor_string_cb+0x1a>
100023de:	46c0      	nop			@ (mov r8, r8)
100023e0:	200020bc 	.word	0x200020bc
100023e4:	00000409 	.word	0x00000409
100023e8:	20001b34 	.word	0x20001b34
100023ec:	10004a10 	.word	0x10004a10
100023f0:	20001b36 	.word	0x20001b36

100023f4 <_retrieve_unique_id_on_boot>:
100023f4:	b510      	push	{r4, lr}
100023f6:	4802      	ldr	r0, [pc, #8]	@ (10002400 <_retrieve_unique_id_on_boot+0xc>)
100023f8:	f000 f8d8 	bl	100025ac <flash_get_unique_id>
100023fc:	bd10      	pop	{r4, pc}
100023fe:	46c0      	nop			@ (mov r8, r8)
10002400:	20001fa4 	.word	0x20001fa4

10002404 <pico_get_unique_board_id_string>:
10002404:	b530      	push	{r4, r5, lr}
10002406:	1e4b      	subs	r3, r1, #1
10002408:	2901      	cmp	r1, #1
1000240a:	d100      	bne.n	1000240e <pico_get_unique_board_id_string+0xa>
1000240c:	e0a7      	b.n	1000255e <pico_get_unique_board_id_string+0x15a>
1000240e:	4a66      	ldr	r2, [pc, #408]	@ (100025a8 <pico_get_unique_board_id_string+0x1a4>)
10002410:	7811      	ldrb	r1, [r2, #0]
10002412:	090d      	lsrs	r5, r1, #4
10002414:	002c      	movs	r4, r5
10002416:	3430      	adds	r4, #48	@ 0x30
10002418:	299f      	cmp	r1, #159	@ 0x9f
1000241a:	d900      	bls.n	1000241e <pico_get_unique_board_id_string+0x1a>
1000241c:	e0a2      	b.n	10002564 <pico_get_unique_board_id_string+0x160>
1000241e:	7004      	strb	r4, [r0, #0]
10002420:	2b01      	cmp	r3, #1
10002422:	d100      	bne.n	10002426 <pico_get_unique_board_id_string+0x22>
10002424:	e0be      	b.n	100025a4 <pico_get_unique_board_id_string+0x1a0>
10002426:	210f      	movs	r1, #15
10002428:	7814      	ldrb	r4, [r2, #0]
1000242a:	4021      	ands	r1, r4
1000242c:	000c      	movs	r4, r1
1000242e:	3430      	adds	r4, #48	@ 0x30
10002430:	2909      	cmp	r1, #9
10002432:	d900      	bls.n	10002436 <pico_get_unique_board_id_string+0x32>
10002434:	e098      	b.n	10002568 <pico_get_unique_board_id_string+0x164>
10002436:	7044      	strb	r4, [r0, #1]
10002438:	2b02      	cmp	r3, #2
1000243a:	d100      	bne.n	1000243e <pico_get_unique_board_id_string+0x3a>
1000243c:	e0b2      	b.n	100025a4 <pico_get_unique_board_id_string+0x1a0>
1000243e:	7854      	ldrb	r4, [r2, #1]
10002440:	0925      	lsrs	r5, r4, #4
10002442:	0029      	movs	r1, r5
10002444:	3130      	adds	r1, #48	@ 0x30
10002446:	2c9f      	cmp	r4, #159	@ 0x9f
10002448:	d900      	bls.n	1000244c <pico_get_unique_board_id_string+0x48>
1000244a:	e090      	b.n	1000256e <pico_get_unique_board_id_string+0x16a>
1000244c:	7081      	strb	r1, [r0, #2]
1000244e:	2b03      	cmp	r3, #3
10002450:	d100      	bne.n	10002454 <pico_get_unique_board_id_string+0x50>
10002452:	e0a7      	b.n	100025a4 <pico_get_unique_board_id_string+0x1a0>
10002454:	210f      	movs	r1, #15
10002456:	4021      	ands	r1, r4
10002458:	000c      	movs	r4, r1
1000245a:	3430      	adds	r4, #48	@ 0x30
1000245c:	2909      	cmp	r1, #9
1000245e:	d900      	bls.n	10002462 <pico_get_unique_board_id_string+0x5e>
10002460:	e087      	b.n	10002572 <pico_get_unique_board_id_string+0x16e>
10002462:	70c4      	strb	r4, [r0, #3]
10002464:	2b04      	cmp	r3, #4
10002466:	d100      	bne.n	1000246a <pico_get_unique_board_id_string+0x66>
10002468:	e09c      	b.n	100025a4 <pico_get_unique_board_id_string+0x1a0>
1000246a:	7894      	ldrb	r4, [r2, #2]
1000246c:	0925      	lsrs	r5, r4, #4
1000246e:	0029      	movs	r1, r5
10002470:	3130      	adds	r1, #48	@ 0x30
10002472:	2c9f      	cmp	r4, #159	@ 0x9f
10002474:	d900      	bls.n	10002478 <pico_get_unique_board_id_string+0x74>
10002476:	e07f      	b.n	10002578 <pico_get_unique_board_id_string+0x174>
10002478:	7101      	strb	r1, [r0, #4]
1000247a:	2b05      	cmp	r3, #5
1000247c:	d100      	bne.n	10002480 <pico_get_unique_board_id_string+0x7c>
1000247e:	e091      	b.n	100025a4 <pico_get_unique_board_id_string+0x1a0>
10002480:	210f      	movs	r1, #15
10002482:	4021      	ands	r1, r4
10002484:	000c      	movs	r4, r1
10002486:	3430      	adds	r4, #48	@ 0x30
10002488:	2909      	cmp	r1, #9
1000248a:	d900      	bls.n	1000248e <pico_get_unique_board_id_string+0x8a>
1000248c:	e076      	b.n	1000257c <pico_get_unique_board_id_string+0x178>
1000248e:	7144      	strb	r4, [r0, #5]
10002490:	2b06      	cmp	r3, #6
10002492:	d100      	bne.n	10002496 <pico_get_unique_board_id_string+0x92>
10002494:	e086      	b.n	100025a4 <pico_get_unique_board_id_string+0x1a0>
10002496:	78d4      	ldrb	r4, [r2, #3]
10002498:	0925      	lsrs	r5, r4, #4
1000249a:	0029      	movs	r1, r5
1000249c:	3130      	adds	r1, #48	@ 0x30
1000249e:	2c9f      	cmp	r4, #159	@ 0x9f
100024a0:	d900      	bls.n	100024a4 <pico_get_unique_board_id_string+0xa0>
100024a2:	e06e      	b.n	10002582 <pico_get_unique_board_id_string+0x17e>
100024a4:	7181      	strb	r1, [r0, #6]
100024a6:	2b07      	cmp	r3, #7
100024a8:	d100      	bne.n	100024ac <pico_get_unique_board_id_string+0xa8>
100024aa:	e07b      	b.n	100025a4 <pico_get_unique_board_id_string+0x1a0>
100024ac:	210f      	movs	r1, #15
100024ae:	4021      	ands	r1, r4
100024b0:	000c      	movs	r4, r1
100024b2:	3430      	adds	r4, #48	@ 0x30
100024b4:	2909      	cmp	r1, #9
100024b6:	d866      	bhi.n	10002586 <pico_get_unique_board_id_string+0x182>
100024b8:	71c4      	strb	r4, [r0, #7]
100024ba:	2b08      	cmp	r3, #8
100024bc:	d100      	bne.n	100024c0 <pico_get_unique_board_id_string+0xbc>
100024be:	e071      	b.n	100025a4 <pico_get_unique_board_id_string+0x1a0>
100024c0:	7914      	ldrb	r4, [r2, #4]
100024c2:	0925      	lsrs	r5, r4, #4
100024c4:	0029      	movs	r1, r5
100024c6:	3130      	adds	r1, #48	@ 0x30
100024c8:	2c9f      	cmp	r4, #159	@ 0x9f
100024ca:	d85f      	bhi.n	1000258c <pico_get_unique_board_id_string+0x188>
100024cc:	7201      	strb	r1, [r0, #8]
100024ce:	2b09      	cmp	r3, #9
100024d0:	d068      	beq.n	100025a4 <pico_get_unique_board_id_string+0x1a0>
100024d2:	210f      	movs	r1, #15
100024d4:	4021      	ands	r1, r4
100024d6:	000c      	movs	r4, r1
100024d8:	3430      	adds	r4, #48	@ 0x30
100024da:	2909      	cmp	r1, #9
100024dc:	d858      	bhi.n	10002590 <pico_get_unique_board_id_string+0x18c>
100024de:	7244      	strb	r4, [r0, #9]
100024e0:	2b0a      	cmp	r3, #10
100024e2:	d05f      	beq.n	100025a4 <pico_get_unique_board_id_string+0x1a0>
100024e4:	7954      	ldrb	r4, [r2, #5]
100024e6:	0925      	lsrs	r5, r4, #4
100024e8:	0029      	movs	r1, r5
100024ea:	3130      	adds	r1, #48	@ 0x30
100024ec:	2c9f      	cmp	r4, #159	@ 0x9f
100024ee:	d852      	bhi.n	10002596 <pico_get_unique_board_id_string+0x192>
100024f0:	7281      	strb	r1, [r0, #10]
100024f2:	2b0b      	cmp	r3, #11
100024f4:	d056      	beq.n	100025a4 <pico_get_unique_board_id_string+0x1a0>
100024f6:	210f      	movs	r1, #15
100024f8:	4021      	ands	r1, r4
100024fa:	000c      	movs	r4, r1
100024fc:	3430      	adds	r4, #48	@ 0x30
100024fe:	2909      	cmp	r1, #9
10002500:	d84b      	bhi.n	1000259a <pico_get_unique_board_id_string+0x196>
10002502:	72c4      	strb	r4, [r0, #11]
10002504:	2b0c      	cmp	r3, #12
10002506:	d04d      	beq.n	100025a4 <pico_get_unique_board_id_string+0x1a0>
10002508:	7994      	ldrb	r4, [r2, #6]
1000250a:	0925      	lsrs	r5, r4, #4
1000250c:	0029      	movs	r1, r5
1000250e:	3130      	adds	r1, #48	@ 0x30
10002510:	2c9f      	cmp	r4, #159	@ 0x9f
10002512:	d900      	bls.n	10002516 <pico_get_unique_board_id_string+0x112>
10002514:	3107      	adds	r1, #7
10002516:	7301      	strb	r1, [r0, #12]
10002518:	2b0d      	cmp	r3, #13
1000251a:	d043      	beq.n	100025a4 <pico_get_unique_board_id_string+0x1a0>
1000251c:	210f      	movs	r1, #15
1000251e:	4021      	ands	r1, r4
10002520:	000c      	movs	r4, r1
10002522:	3430      	adds	r4, #48	@ 0x30
10002524:	2909      	cmp	r1, #9
10002526:	d901      	bls.n	1000252c <pico_get_unique_board_id_string+0x128>
10002528:	3137      	adds	r1, #55	@ 0x37
1000252a:	000c      	movs	r4, r1
1000252c:	7344      	strb	r4, [r0, #13]
1000252e:	2b0e      	cmp	r3, #14
10002530:	d038      	beq.n	100025a4 <pico_get_unique_board_id_string+0x1a0>
10002532:	79d1      	ldrb	r1, [r2, #7]
10002534:	090c      	lsrs	r4, r1, #4
10002536:	0022      	movs	r2, r4
10002538:	3230      	adds	r2, #48	@ 0x30
1000253a:	299f      	cmp	r1, #159	@ 0x9f
1000253c:	d900      	bls.n	10002540 <pico_get_unique_board_id_string+0x13c>
1000253e:	3207      	adds	r2, #7
10002540:	7382      	strb	r2, [r0, #14]
10002542:	2b0f      	cmp	r3, #15
10002544:	d02e      	beq.n	100025a4 <pico_get_unique_board_id_string+0x1a0>
10002546:	220f      	movs	r2, #15
10002548:	400a      	ands	r2, r1
1000254a:	0011      	movs	r1, r2
1000254c:	3137      	adds	r1, #55	@ 0x37
1000254e:	2a09      	cmp	r2, #9
10002550:	d801      	bhi.n	10002556 <pico_get_unique_board_id_string+0x152>
10002552:	3230      	adds	r2, #48	@ 0x30
10002554:	0011      	movs	r1, r2
10002556:	73c1      	strb	r1, [r0, #15]
10002558:	2b10      	cmp	r3, #16
1000255a:	d023      	beq.n	100025a4 <pico_get_unique_board_id_string+0x1a0>
1000255c:	3010      	adds	r0, #16
1000255e:	2300      	movs	r3, #0
10002560:	7003      	strb	r3, [r0, #0]
10002562:	bd30      	pop	{r4, r5, pc}
10002564:	3407      	adds	r4, #7
10002566:	e75a      	b.n	1000241e <pico_get_unique_board_id_string+0x1a>
10002568:	3137      	adds	r1, #55	@ 0x37
1000256a:	000c      	movs	r4, r1
1000256c:	e763      	b.n	10002436 <pico_get_unique_board_id_string+0x32>
1000256e:	3107      	adds	r1, #7
10002570:	e76c      	b.n	1000244c <pico_get_unique_board_id_string+0x48>
10002572:	3137      	adds	r1, #55	@ 0x37
10002574:	000c      	movs	r4, r1
10002576:	e774      	b.n	10002462 <pico_get_unique_board_id_string+0x5e>
10002578:	3107      	adds	r1, #7
1000257a:	e77d      	b.n	10002478 <pico_get_unique_board_id_string+0x74>
1000257c:	3137      	adds	r1, #55	@ 0x37
1000257e:	000c      	movs	r4, r1
10002580:	e785      	b.n	1000248e <pico_get_unique_board_id_string+0x8a>
10002582:	3107      	adds	r1, #7
10002584:	e78e      	b.n	100024a4 <pico_get_unique_board_id_string+0xa0>
10002586:	3137      	adds	r1, #55	@ 0x37
10002588:	000c      	movs	r4, r1
1000258a:	e795      	b.n	100024b8 <pico_get_unique_board_id_string+0xb4>
1000258c:	3107      	adds	r1, #7
1000258e:	e79d      	b.n	100024cc <pico_get_unique_board_id_string+0xc8>
10002590:	3137      	adds	r1, #55	@ 0x37
10002592:	000c      	movs	r4, r1
10002594:	e7a3      	b.n	100024de <pico_get_unique_board_id_string+0xda>
10002596:	3107      	adds	r1, #7
10002598:	e7aa      	b.n	100024f0 <pico_get_unique_board_id_string+0xec>
1000259a:	3137      	adds	r1, #55	@ 0x37
1000259c:	000c      	movs	r4, r1
1000259e:	72c4      	strb	r4, [r0, #11]
100025a0:	2b0c      	cmp	r3, #12
100025a2:	d1b1      	bne.n	10002508 <pico_get_unique_board_id_string+0x104>
100025a4:	18c0      	adds	r0, r0, r3
100025a6:	e7da      	b.n	1000255e <pico_get_unique_board_id_string+0x15a>
100025a8:	20001fa4 	.word	0x20001fa4

100025ac <flash_get_unique_id>:
100025ac:	b510      	push	{r4, lr}
100025ae:	b088      	sub	sp, #32
100025b0:	0004      	movs	r4, r0
100025b2:	220d      	movs	r2, #13
100025b4:	2100      	movs	r1, #0
100025b6:	4668      	mov	r0, sp
100025b8:	f7ff faa2 	bl	10001b00 <__wrap_memset>
100025bc:	220d      	movs	r2, #13
100025be:	2100      	movs	r1, #0
100025c0:	a804      	add	r0, sp, #16
100025c2:	f7ff fa9d 	bl	10001b00 <__wrap_memset>
100025c6:	234b      	movs	r3, #75	@ 0x4b
100025c8:	466a      	mov	r2, sp
100025ca:	4668      	mov	r0, sp
100025cc:	7013      	strb	r3, [r2, #0]
100025ce:	a904      	add	r1, sp, #16
100025d0:	220d      	movs	r2, #13
100025d2:	f002 f831 	bl	10004638 <__flash_do_cmd_veneer>
100025d6:	2115      	movs	r1, #21
100025d8:	2208      	movs	r2, #8
100025da:	0020      	movs	r0, r4
100025dc:	4469      	add	r1, sp
100025de:	f7ff fa95 	bl	10001b0c <__wrap___aeabi_memcpy>
100025e2:	b008      	add	sp, #32
100025e4:	bd10      	pop	{r4, pc}
100025e6:	46c0      	nop			@ (mov r8, r8)

100025e8 <dcd_init>:
100025e8:	b5f8      	push	{r3, r4, r5, r6, r7, lr}
100025ea:	f000 f93b 	bl	10002864 <rp2040_usb_init>
100025ee:	230c      	movs	r3, #12
100025f0:	4d18      	ldr	r5, [pc, #96]	@ (10002654 <dcd_init+0x6c>)
100025f2:	22ff      	movs	r2, #255	@ 0xff
100025f4:	67ab      	str	r3, [r5, #120]	@ 0x78
100025f6:	2005      	movs	r0, #5
100025f8:	4917      	ldr	r1, [pc, #92]	@ (10002658 <dcd_init+0x70>)
100025fa:	f7fe f8d9 	bl	100007b0 <irq_add_shared_handler>
100025fe:	4c17      	ldr	r4, [pc, #92]	@ (1000265c <dcd_init+0x74>)
10002600:	2240      	movs	r2, #64	@ 0x40
10002602:	2100      	movs	r1, #0
10002604:	0020      	movs	r0, r4
10002606:	f7ff fa7b 	bl	10001b00 <__wrap_memset>
1000260a:	2740      	movs	r7, #64	@ 0x40
1000260c:	2300      	movs	r3, #0
1000260e:	2601      	movs	r6, #1
10002610:	2121      	movs	r1, #33	@ 0x21
10002612:	4a13      	ldr	r2, [pc, #76]	@ (10002660 <dcd_init+0x78>)
10002614:	7066      	strb	r6, [r4, #1]
10002616:	8327      	strh	r7, [r4, #24]
10002618:	60a2      	str	r2, [r4, #8]
1000261a:	6013      	str	r3, [r2, #0]
1000261c:	5463      	strb	r3, [r4, r1]
1000261e:	315f      	adds	r1, #95	@ 0x5f
10002620:	8461      	strh	r1, [r4, #34]	@ 0x22
10002622:	3945      	subs	r1, #69	@ 0x45
10002624:	5463      	strb	r3, [r4, r1]
10002626:	4a0f      	ldr	r2, [pc, #60]	@ (10002664 <dcd_init+0x7c>)
10002628:	490f      	ldr	r1, [pc, #60]	@ (10002668 <dcd_init+0x80>)
1000262a:	6063      	str	r3, [r4, #4]
1000262c:	60e2      	str	r2, [r4, #12]
1000262e:	8727      	strh	r7, [r4, #56]	@ 0x38
10002630:	62a1      	str	r1, [r4, #40]	@ 0x28
10002632:	600b      	str	r3, [r1, #0]
10002634:	6263      	str	r3, [r4, #36]	@ 0x24
10002636:	62e2      	str	r2, [r4, #44]	@ 0x2c
10002638:	f002 f836 	bl	100046a8 <__reset_non_control_endpoints_veneer>
1000263c:	2380      	movs	r3, #128	@ 0x80
1000263e:	059b      	lsls	r3, r3, #22
10002640:	642e      	str	r6, [r5, #64]	@ 0x40
10002642:	64eb      	str	r3, [r5, #76]	@ 0x4c
10002644:	2390      	movs	r3, #144	@ 0x90
10002646:	4a09      	ldr	r2, [pc, #36]	@ (1000266c <dcd_init+0x84>)
10002648:	50ea      	str	r2, [r5, r3]
1000264a:	2280      	movs	r2, #128	@ 0x80
1000264c:	4b08      	ldr	r3, [pc, #32]	@ (10002670 <dcd_init+0x88>)
1000264e:	0252      	lsls	r2, r2, #9
10002650:	64da      	str	r2, [r3, #76]	@ 0x4c
10002652:	bdf8      	pop	{r3, r4, r5, r6, r7, pc}
10002654:	50110000 	.word	0x50110000
10002658:	200004a1 	.word	0x200004a1
1000265c:	20001b68 	.word	0x20001b68
10002660:	50100084 	.word	0x50100084
10002664:	50100100 	.word	0x50100100
10002668:	50100080 	.word	0x50100080
1000266c:	0001d010 	.word	0x0001d010
10002670:	50112000 	.word	0x50112000

10002674 <dcd_int_enable>:
10002674:	b510      	push	{r4, lr}
10002676:	2101      	movs	r1, #1
10002678:	2005      	movs	r0, #5
1000267a:	f7fe f833 	bl	100006e4 <irq_set_enabled>
1000267e:	bd10      	pop	{r4, pc}

10002680 <dcd_set_address>:
10002680:	b510      	push	{r4, lr}
10002682:	2200      	movs	r2, #0
10002684:	2100      	movs	r1, #0
10002686:	4802      	ldr	r0, [pc, #8]	@ (10002690 <dcd_set_address+0x10>)
10002688:	f000 f90c 	bl	100028a4 <hw_endpoint_xfer_start>
1000268c:	bd10      	pop	{r4, pc}
1000268e:	46c0      	nop			@ (mov r8, r8)
10002690:	20001b88 	.word	0x20001b88

10002694 <dcd_sof_enable>:
10002694:	4b04      	ldr	r3, [pc, #16]	@ (100026a8 <dcd_sof_enable+0x14>)
10002696:	7019      	strb	r1, [r3, #0]
10002698:	2900      	cmp	r1, #0
1000269a:	d004      	beq.n	100026a6 <dcd_sof_enable+0x12>
1000269c:	2180      	movs	r1, #128	@ 0x80
1000269e:	2390      	movs	r3, #144	@ 0x90
100026a0:	4a02      	ldr	r2, [pc, #8]	@ (100026ac <dcd_sof_enable+0x18>)
100026a2:	0289      	lsls	r1, r1, #10
100026a4:	50d1      	str	r1, [r2, r3]
100026a6:	4770      	bx	lr
100026a8:	200020ce 	.word	0x200020ce
100026ac:	50112000 	.word	0x50112000

100026b0 <dcd_edpt0_status_complete>:
100026b0:	780b      	ldrb	r3, [r1, #0]
100026b2:	065b      	lsls	r3, r3, #25
100026b4:	d102      	bne.n	100026bc <dcd_edpt0_status_complete+0xc>
100026b6:	784b      	ldrb	r3, [r1, #1]
100026b8:	2b05      	cmp	r3, #5
100026ba:	d000      	beq.n	100026be <dcd_edpt0_status_complete+0xe>
100026bc:	4770      	bx	lr
100026be:	788a      	ldrb	r2, [r1, #2]
100026c0:	4b01      	ldr	r3, [pc, #4]	@ (100026c8 <dcd_edpt0_status_complete+0x18>)
100026c2:	601a      	str	r2, [r3, #0]
100026c4:	e7fa      	b.n	100026bc <dcd_edpt0_status_complete+0xc>
100026c6:	46c0      	nop			@ (mov r8, r8)
100026c8:	50110000 	.word	0x50110000

100026cc <dcd_edpt_open>:
100026cc:	b5f0      	push	{r4, r5, r6, r7, lr}
100026ce:	46c6      	mov	lr, r8
100026d0:	b500      	push	{lr}
100026d2:	78cc      	ldrb	r4, [r1, #3]
100026d4:	7888      	ldrb	r0, [r1, #2]
100026d6:	790a      	ldrb	r2, [r1, #4]
100026d8:	794b      	ldrb	r3, [r1, #5]
100026da:	217f      	movs	r1, #127	@ 0x7f
100026dc:	07a4      	lsls	r4, r4, #30
100026de:	4001      	ands	r1, r0
100026e0:	021b      	lsls	r3, r3, #8
100026e2:	09c5      	lsrs	r5, r0, #7
100026e4:	4313      	orrs	r3, r2
100026e6:	004f      	lsls	r7, r1, #1
100026e8:	0fa2      	lsrs	r2, r4, #30
100026ea:	0014      	movs	r4, r2
100026ec:	4e32      	ldr	r6, [pc, #200]	@ (100027b8 <dcd_edpt_open+0xec>)
100026ee:	197a      	adds	r2, r7, r5
100026f0:	0152      	lsls	r2, r2, #5
100026f2:	18b2      	adds	r2, r6, r2
100026f4:	7090      	strb	r0, [r2, #2]
100026f6:	2001      	movs	r0, #1
100026f8:	4068      	eors	r0, r5
100026fa:	7050      	strb	r0, [r2, #1]
100026fc:	2000      	movs	r0, #0
100026fe:	055b      	lsls	r3, r3, #21
10002700:	0d5b      	lsrs	r3, r3, #21
10002702:	70d0      	strb	r0, [r2, #3]
10002704:	8313      	strh	r3, [r2, #24]
10002706:	76d4      	strb	r4, [r2, #27]
10002708:	4680      	mov	r8, r0
1000270a:	00ca      	lsls	r2, r1, #3
1000270c:	2d01      	cmp	r5, #1
1000270e:	d033      	beq.n	10002778 <dcd_edpt_open+0xac>
10002710:	482a      	ldr	r0, [pc, #168]	@ (100027bc <dcd_edpt_open+0xf0>)
10002712:	4684      	mov	ip, r0
10002714:	0188      	lsls	r0, r1, #6
10002716:	4462      	add	r2, ip
10002718:	4684      	mov	ip, r0
1000271a:	44b4      	add	ip, r6
1000271c:	4660      	mov	r0, ip
1000271e:	6082      	str	r2, [r0, #8]
10002720:	4640      	mov	r0, r8
10002722:	6010      	str	r0, [r2, #0]
10002724:	2900      	cmp	r1, #0
10002726:	d033      	beq.n	10002790 <dcd_edpt_open+0xc4>
10002728:	4a25      	ldr	r2, [pc, #148]	@ (100027c0 <dcd_edpt_open+0xf4>)
1000272a:	00c9      	lsls	r1, r1, #3
1000272c:	4690      	mov	r8, r2
1000272e:	4662      	mov	r2, ip
10002730:	4441      	add	r1, r8
10002732:	6051      	str	r1, [r2, #4]
10002734:	223f      	movs	r2, #63	@ 0x3f
10002736:	333f      	adds	r3, #63	@ 0x3f
10002738:	4393      	bics	r3, r2
1000273a:	2c02      	cmp	r4, #2
1000273c:	d100      	bne.n	10002740 <dcd_edpt_open+0x74>
1000273e:	005b      	lsls	r3, r3, #1
10002740:	4820      	ldr	r0, [pc, #128]	@ (100027c4 <dcd_edpt_open+0xf8>)
10002742:	197a      	adds	r2, r7, r5
10002744:	6801      	ldr	r1, [r0, #0]
10002746:	0152      	lsls	r2, r2, #5
10002748:	18b2      	adds	r2, r6, r2
1000274a:	60d1      	str	r1, [r2, #12]
1000274c:	4a1e      	ldr	r2, [pc, #120]	@ (100027c8 <dcd_edpt_open+0xfc>)
1000274e:	18cb      	adds	r3, r1, r3
10002750:	6003      	str	r3, [r0, #0]
10002752:	4051      	eors	r1, r2
10002754:	405a      	eors	r2, r3
10002756:	2380      	movs	r3, #128	@ 0x80
10002758:	4688      	mov	r8, r1
1000275a:	015b      	lsls	r3, r3, #5
1000275c:	429a      	cmp	r2, r3
1000275e:	d828      	bhi.n	100027b2 <dcd_edpt_open+0xe6>
10002760:	4643      	mov	r3, r8
10002762:	06a4      	lsls	r4, r4, #26
10002764:	431c      	orrs	r4, r3
10002766:	2380      	movs	r3, #128	@ 0x80
10002768:	197f      	adds	r7, r7, r5
1000276a:	017f      	lsls	r7, r7, #5
1000276c:	19f6      	adds	r6, r6, r7
1000276e:	6872      	ldr	r2, [r6, #4]
10002770:	061b      	lsls	r3, r3, #24
10002772:	4323      	orrs	r3, r4
10002774:	6013      	str	r3, [r2, #0]
10002776:	e011      	b.n	1000279c <dcd_edpt_open+0xd0>
10002778:	4814      	ldr	r0, [pc, #80]	@ (100027cc <dcd_edpt_open+0x100>)
1000277a:	4684      	mov	ip, r0
1000277c:	0188      	lsls	r0, r1, #6
1000277e:	4462      	add	r2, ip
10002780:	4684      	mov	ip, r0
10002782:	44b4      	add	ip, r6
10002784:	4660      	mov	r0, ip
10002786:	6282      	str	r2, [r0, #40]	@ 0x28
10002788:	4640      	mov	r0, r8
1000278a:	6010      	str	r0, [r2, #0]
1000278c:	2900      	cmp	r1, #0
1000278e:	d109      	bne.n	100027a4 <dcd_edpt_open+0xd8>
10002790:	2300      	movs	r3, #0
10002792:	016d      	lsls	r5, r5, #5
10002794:	1975      	adds	r5, r6, r5
10002796:	606b      	str	r3, [r5, #4]
10002798:	4b0d      	ldr	r3, [pc, #52]	@ (100027d0 <dcd_edpt_open+0x104>)
1000279a:	60eb      	str	r3, [r5, #12]
1000279c:	2001      	movs	r0, #1
1000279e:	bc80      	pop	{r7}
100027a0:	46b8      	mov	r8, r7
100027a2:	bdf0      	pop	{r4, r5, r6, r7, pc}
100027a4:	4a08      	ldr	r2, [pc, #32]	@ (100027c8 <dcd_edpt_open+0xfc>)
100027a6:	00c9      	lsls	r1, r1, #3
100027a8:	4690      	mov	r8, r2
100027aa:	4662      	mov	r2, ip
100027ac:	4441      	add	r1, r8
100027ae:	6251      	str	r1, [r2, #36]	@ 0x24
100027b0:	e7c0      	b.n	10002734 <dcd_edpt_open+0x68>
100027b2:	f7fe ffdf 	bl	10001774 <hard_assertion_failure>
100027b6:	e7d3      	b.n	10002760 <dcd_edpt_open+0x94>
100027b8:	20001b68 	.word	0x20001b68
100027bc:	50100084 	.word	0x50100084
100027c0:	50100004 	.word	0x50100004
100027c4:	20001f70 	.word	0x20001f70
100027c8:	50100000 	.word	0x50100000
100027cc:	50100080 	.word	0x50100080
100027d0:	50100100 	.word	0x50100100

100027d4 <dcd_edpt_close_all>:
100027d4:	b510      	push	{r4, lr}
100027d6:	f001 ff67 	bl	100046a8 <__reset_non_control_endpoints_veneer>
100027da:	bd10      	pop	{r4, pc}

100027dc <dcd_edpt_xfer>:
100027dc:	b510      	push	{r4, lr}
100027de:	207f      	movs	r0, #127	@ 0x7f
100027e0:	000c      	movs	r4, r1
100027e2:	4020      	ands	r0, r4
100027e4:	0040      	lsls	r0, r0, #1
100027e6:	09e4      	lsrs	r4, r4, #7
100027e8:	0011      	movs	r1, r2
100027ea:	1900      	adds	r0, r0, r4
100027ec:	001a      	movs	r2, r3
100027ee:	4b03      	ldr	r3, [pc, #12]	@ (100027fc <dcd_edpt_xfer+0x20>)
100027f0:	0140      	lsls	r0, r0, #5
100027f2:	18c0      	adds	r0, r0, r3
100027f4:	f000 f856 	bl	100028a4 <hw_endpoint_xfer_start>
100027f8:	2001      	movs	r0, #1
100027fa:	bd10      	pop	{r4, pc}
100027fc:	20001b68 	.word	0x20001b68

10002800 <dcd_edpt_stall>:
10002800:	237f      	movs	r3, #127	@ 0x7f
10002802:	0018      	movs	r0, r3
10002804:	b510      	push	{r4, lr}
10002806:	4008      	ands	r0, r1
10002808:	09ca      	lsrs	r2, r1, #7
1000280a:	420b      	tst	r3, r1
1000280c:	d103      	bne.n	10002816 <dcd_edpt_stall+0x16>
1000280e:	4907      	ldr	r1, [pc, #28]	@ (1000282c <dcd_edpt_stall+0x2c>)
10002810:	3b7d      	subs	r3, #125	@ 0x7d
10002812:	1a9b      	subs	r3, r3, r2
10002814:	668b      	str	r3, [r1, #104]	@ 0x68
10002816:	0040      	lsls	r0, r0, #1
10002818:	1880      	adds	r0, r0, r2
1000281a:	2280      	movs	r2, #128	@ 0x80
1000281c:	4b04      	ldr	r3, [pc, #16]	@ (10002830 <dcd_edpt_stall+0x30>)
1000281e:	0140      	lsls	r0, r0, #5
10002820:	2100      	movs	r1, #0
10002822:	18c0      	adds	r0, r0, r3
10002824:	0112      	lsls	r2, r2, #4
10002826:	f001 ff57 	bl	100046d8 <___hw_endpoint_buffer_control_update32_veneer>
1000282a:	bd10      	pop	{r4, pc}
1000282c:	50112000 	.word	0x50112000
10002830:	20001b68 	.word	0x20001b68

10002834 <dcd_edpt_clear_stall>:
10002834:	227f      	movs	r2, #127	@ 0x7f
10002836:	0013      	movs	r3, r2
10002838:	b510      	push	{r4, lr}
1000283a:	400b      	ands	r3, r1
1000283c:	420a      	tst	r2, r1
1000283e:	d100      	bne.n	10002842 <dcd_edpt_clear_stall+0xe>
10002840:	bd10      	pop	{r4, pc}
10002842:	09c9      	lsrs	r1, r1, #7
10002844:	005b      	lsls	r3, r3, #1
10002846:	185b      	adds	r3, r3, r1
10002848:	4804      	ldr	r0, [pc, #16]	@ (1000285c <dcd_edpt_clear_stall+0x28>)
1000284a:	015b      	lsls	r3, r3, #5
1000284c:	18c0      	adds	r0, r0, r3
1000284e:	2300      	movs	r3, #0
10002850:	2200      	movs	r2, #0
10002852:	4903      	ldr	r1, [pc, #12]	@ (10002860 <dcd_edpt_clear_stall+0x2c>)
10002854:	70c3      	strb	r3, [r0, #3]
10002856:	f001 ff3f 	bl	100046d8 <___hw_endpoint_buffer_control_update32_veneer>
1000285a:	e7f1      	b.n	10002840 <dcd_edpt_clear_stall+0xc>
1000285c:	20001b68 	.word	0x20001b68
10002860:	fffff7ff 	.word	0xfffff7ff

10002864 <rp2040_usb_init>:
10002864:	2280      	movs	r2, #128	@ 0x80
10002866:	4b0a      	ldr	r3, [pc, #40]	@ (10002890 <rp2040_usb_init+0x2c>)
10002868:	0452      	lsls	r2, r2, #17
1000286a:	b510      	push	{r4, lr}
1000286c:	601a      	str	r2, [r3, #0]
1000286e:	4b09      	ldr	r3, [pc, #36]	@ (10002894 <rp2040_usb_init+0x30>)
10002870:	4909      	ldr	r1, [pc, #36]	@ (10002898 <rp2040_usb_init+0x34>)
10002872:	601a      	str	r2, [r3, #0]
10002874:	0010      	movs	r0, r2
10002876:	680b      	ldr	r3, [r1, #0]
10002878:	4398      	bics	r0, r3
1000287a:	d1fb      	bne.n	10002874 <rp2040_usb_init+0x10>
1000287c:	2280      	movs	r2, #128	@ 0x80
1000287e:	2100      	movs	r1, #0
10002880:	0152      	lsls	r2, r2, #5
10002882:	4806      	ldr	r0, [pc, #24]	@ (1000289c <rp2040_usb_init+0x38>)
10002884:	f7ff f93c 	bl	10001b00 <__wrap_memset>
10002888:	2209      	movs	r2, #9
1000288a:	4b05      	ldr	r3, [pc, #20]	@ (100028a0 <rp2040_usb_init+0x3c>)
1000288c:	675a      	str	r2, [r3, #116]	@ 0x74
1000288e:	bd10      	pop	{r4, pc}
10002890:	4000e000 	.word	0x4000e000
10002894:	4000f000 	.word	0x4000f000
10002898:	4000c008 	.word	0x4000c008
1000289c:	50100000 	.word	0x50100000
100028a0:	50110000 	.word	0x50110000

100028a4 <hw_endpoint_xfer_start>:
100028a4:	2300      	movs	r3, #0
100028a6:	b510      	push	{r4, lr}
100028a8:	82c3      	strh	r3, [r0, #22]
100028aa:	3301      	adds	r3, #1
100028ac:	8282      	strh	r2, [r0, #20]
100028ae:	7683      	strb	r3, [r0, #26]
100028b0:	6101      	str	r1, [r0, #16]
100028b2:	0004      	movs	r4, r0
100028b4:	f001 fed0 	bl	10004658 <__e15_is_bulkin_ep_veneer>
100028b8:	2800      	cmp	r0, #0
100028ba:	d004      	beq.n	100028c6 <hw_endpoint_xfer_start+0x22>
100028bc:	2180      	movs	r1, #128	@ 0x80
100028be:	2390      	movs	r3, #144	@ 0x90
100028c0:	4a07      	ldr	r2, [pc, #28]	@ (100028e0 <hw_endpoint_xfer_start+0x3c>)
100028c2:	0289      	lsls	r1, r1, #10
100028c4:	50d1      	str	r1, [r2, r3]
100028c6:	0020      	movs	r0, r4
100028c8:	f001 fece 	bl	10004668 <__e15_is_critical_frame_period_veneer>
100028cc:	2800      	cmp	r0, #0
100028ce:	d002      	beq.n	100028d6 <hw_endpoint_xfer_start+0x32>
100028d0:	2301      	movs	r3, #1
100028d2:	7723      	strb	r3, [r4, #28]
100028d4:	bd10      	pop	{r4, pc}
100028d6:	0020      	movs	r0, r4
100028d8:	f001 fef6 	bl	100046c8 <__hw_endpoint_start_next_buffer_veneer>
100028dc:	e7fa      	b.n	100028d4 <hw_endpoint_xfer_start+0x30>
100028de:	46c0      	nop			@ (mov r8, r8)
100028e0:	50112000 	.word	0x50112000

100028e4 <tud_event_hook_cb>:
100028e4:	4770      	bx	lr
100028e6:	46c0      	nop			@ (mov r8, r8)

100028e8 <tud_sof_cb>:
100028e8:	4770      	bx	lr
100028ea:	46c0      	nop			@ (mov r8, r8)

100028ec <tud_descriptor_device_qualifier_cb>:
100028ec:	2000      	movs	r0, #0
100028ee:	4770      	bx	lr

100028f0 <tud_descriptor_other_speed_configuration_cb>:
100028f0:	2000      	movs	r0, #0
100028f2:	4770      	bx	lr

100028f4 <tud_mount_cb>:
100028f4:	4770      	bx	lr
100028f6:	46c0      	nop			@ (mov r8, r8)

100028f8 <tud_umount_cb>:
100028f8:	4770      	bx	lr
100028fa:	46c0      	nop			@ (mov r8, r8)

100028fc <tud_suspend_cb>:
100028fc:	4770      	bx	lr
100028fe:	46c0      	nop			@ (mov r8, r8)

10002900 <tud_resume_cb>:
10002900:	4770      	bx	lr
10002902:	46c0      	nop			@ (mov r8, r8)

10002904 <tud_mounted>:
10002904:	4b02      	ldr	r3, [pc, #8]	@ (10002910 <tud_mounted+0xc>)
10002906:	7858      	ldrb	r0, [r3, #1]
10002908:	1e43      	subs	r3, r0, #1
1000290a:	4198      	sbcs	r0, r3
1000290c:	b2c0      	uxtb	r0, r0
1000290e:	4770      	bx	lr
10002910:	20001614 	.word	0x20001614

10002914 <tud_suspended>:
10002914:	4b02      	ldr	r3, [pc, #8]	@ (10002920 <tud_suspended+0xc>)
10002916:	7818      	ldrb	r0, [r3, #0]
10002918:	0740      	lsls	r0, r0, #29
1000291a:	0fc0      	lsrs	r0, r0, #31
1000291c:	4770      	bx	lr
1000291e:	46c0      	nop			@ (mov r8, r8)
10002920:	20001614 	.word	0x20001614

10002924 <tud_init>:
10002924:	b5f8      	push	{r3, r4, r5, r6, r7, lr}
10002926:	4647      	mov	r7, r8
10002928:	46ce      	mov	lr, r9
1000292a:	b580      	push	{r7, lr}
1000292c:	4f2b      	ldr	r7, [pc, #172]	@ (100029dc <tud_init+0xb8>)
1000292e:	0006      	movs	r6, r0
10002930:	783b      	ldrb	r3, [r7, #0]
10002932:	2bff      	cmp	r3, #255	@ 0xff
10002934:	d004      	beq.n	10002940 <tud_init+0x1c>
10002936:	2001      	movs	r0, #1
10002938:	bcc0      	pop	{r6, r7}
1000293a:	46b9      	mov	r9, r7
1000293c:	46b0      	mov	r8, r6
1000293e:	bdf8      	pop	{r3, r4, r5, r6, r7, pc}
10002940:	2100      	movs	r1, #0
10002942:	2254      	movs	r2, #84	@ 0x54
10002944:	4826      	ldr	r0, [pc, #152]	@ (100029e0 <tud_init+0xbc>)
10002946:	f7ff f8db 	bl	10001b00 <__wrap_memset>
1000294a:	2200      	movs	r2, #0
1000294c:	4c25      	ldr	r4, [pc, #148]	@ (100029e4 <tud_init+0xc0>)
1000294e:	4b26      	ldr	r3, [pc, #152]	@ (100029e8 <tud_init+0xc4>)
10002950:	0020      	movs	r0, r4
10002952:	701a      	strb	r2, [r3, #0]
10002954:	f7fe f8c6 	bl	10000ae4 <mutex_init>
10002958:	4b24      	ldr	r3, [pc, #144]	@ (100029ec <tud_init+0xc8>)
1000295a:	601c      	str	r4, [r3, #0]
1000295c:	4c24      	ldr	r4, [pc, #144]	@ (100029f0 <tud_init+0xcc>)
1000295e:	0020      	movs	r0, r4
10002960:	3c14      	subs	r4, #20
10002962:	f7fe f8cd 	bl	10000b00 <critical_section_init>
10002966:	0020      	movs	r0, r4
10002968:	f001 fdf2 	bl	10004550 <tu_fifo_clear>
1000296c:	4b21      	ldr	r3, [pc, #132]	@ (100029f4 <tud_init+0xd0>)
1000296e:	4d22      	ldr	r5, [pc, #136]	@ (100029f8 <tud_init+0xd4>)
10002970:	601c      	str	r4, [r3, #0]
10002972:	4b22      	ldr	r3, [pc, #136]	@ (100029fc <tud_init+0xd8>)
10002974:	2b00      	cmp	r3, #0
10002976:	d027      	beq.n	100029c8 <tud_init+0xa4>
10002978:	0028      	movs	r0, r5
1000297a:	f7ff facb 	bl	10001f14 <usbd_app_driver_get_cb>
1000297e:	4b20      	ldr	r3, [pc, #128]	@ (10002a00 <tud_init+0xdc>)
10002980:	782a      	ldrb	r2, [r5, #0]
10002982:	6018      	str	r0, [r3, #0]
10002984:	491f      	ldr	r1, [pc, #124]	@ (10002a04 <tud_init+0xe0>)
10002986:	2400      	movs	r4, #0
10002988:	4689      	mov	r9, r1
1000298a:	491d      	ldr	r1, [pc, #116]	@ (10002a00 <tud_init+0xdc>)
1000298c:	2300      	movs	r3, #0
1000298e:	4688      	mov	r8, r1
10002990:	e010      	b.n	100029b4 <tud_init+0x90>
10002992:	4643      	mov	r3, r8
10002994:	681b      	ldr	r3, [r3, #0]
10002996:	0162      	lsls	r2, r4, #5
10002998:	189b      	adds	r3, r3, r2
1000299a:	2b00      	cmp	r3, #0
1000299c:	d012      	beq.n	100029c4 <tud_init+0xa0>
1000299e:	685b      	ldr	r3, [r3, #4]
100029a0:	2b00      	cmp	r3, #0
100029a2:	d00f      	beq.n	100029c4 <tud_init+0xa0>
100029a4:	4798      	blx	r3
100029a6:	782a      	ldrb	r2, [r5, #0]
100029a8:	3401      	adds	r4, #1
100029aa:	b2e4      	uxtb	r4, r4
100029ac:	1c51      	adds	r1, r2, #1
100029ae:	0023      	movs	r3, r4
100029b0:	42a1      	cmp	r1, r4
100029b2:	db0b      	blt.n	100029cc <tud_init+0xa8>
100029b4:	42a2      	cmp	r2, r4
100029b6:	d8ec      	bhi.n	10002992 <tud_init+0x6e>
100029b8:	1a9b      	subs	r3, r3, r2
100029ba:	015b      	lsls	r3, r3, #5
100029bc:	444b      	add	r3, r9
100029be:	685b      	ldr	r3, [r3, #4]
100029c0:	2b00      	cmp	r3, #0
100029c2:	d1ef      	bne.n	100029a4 <tud_init+0x80>
100029c4:	2000      	movs	r0, #0
100029c6:	e7b7      	b.n	10002938 <tud_init+0x14>
100029c8:	782a      	ldrb	r2, [r5, #0]
100029ca:	e7db      	b.n	10002984 <tud_init+0x60>
100029cc:	0030      	movs	r0, r6
100029ce:	703e      	strb	r6, [r7, #0]
100029d0:	f7ff fe0a 	bl	100025e8 <dcd_init>
100029d4:	0030      	movs	r0, r6
100029d6:	f7ff fe4d 	bl	10002674 <dcd_int_enable>
100029da:	e7ac      	b.n	10002936 <tud_init+0x12>
100029dc:	20001054 	.word	0x20001054
100029e0:	20001614 	.word	0x20001614
100029e4:	200015cc 	.word	0x200015cc
100029e8:	200020cf 	.word	0x200020cf
100029ec:	20001668 	.word	0x20001668
100029f0:	2000104c 	.word	0x2000104c
100029f4:	2000166c 	.word	0x2000166c
100029f8:	200020cd 	.word	0x200020cd
100029fc:	10001f15 	.word	0x10001f15
10002a00:	200012e8 	.word	0x200012e8
10002a04:	10004b38 	.word	0x10004b38

10002a08 <tud_task_ext>:
10002a08:	b5f0      	push	{r4, r5, r6, r7, lr}
10002a0a:	46de      	mov	lr, fp
10002a0c:	4657      	mov	r7, sl
10002a0e:	464e      	mov	r6, r9
10002a10:	4645      	mov	r5, r8
10002a12:	b5e0      	push	{r5, r6, r7, lr}
10002a14:	4bc8      	ldr	r3, [pc, #800]	@ (10002d38 <tud_task_ext+0x330>)
10002a16:	b091      	sub	sp, #68	@ 0x44
10002a18:	9302      	str	r3, [sp, #8]
10002a1a:	781b      	ldrb	r3, [r3, #0]
10002a1c:	2bff      	cmp	r3, #255	@ 0xff
10002a1e:	d100      	bne.n	10002a22 <tud_task_ext+0x1a>
10002a20:	e13e      	b.n	10002ca0 <tud_task_ext+0x298>
10002a22:	4bc6      	ldr	r3, [pc, #792]	@ (10002d3c <tud_task_ext+0x334>)
10002a24:	4ec6      	ldr	r6, [pc, #792]	@ (10002d40 <tud_task_ext+0x338>)
10002a26:	469b      	mov	fp, r3
10002a28:	465f      	mov	r7, fp
10002a2a:	4bc6      	ldr	r3, [pc, #792]	@ (10002d44 <tud_task_ext+0x33c>)
10002a2c:	ac0d      	add	r4, sp, #52	@ 0x34
10002a2e:	9301      	str	r3, [sp, #4]
10002a30:	4bc5      	ldr	r3, [pc, #788]	@ (10002d48 <tud_task_ext+0x340>)
10002a32:	9300      	str	r3, [sp, #0]
10002a34:	6835      	ldr	r5, [r6, #0]
10002a36:	696a      	ldr	r2, [r5, #20]
10002a38:	f3ef 8110 	mrs	r1, PRIMASK
10002a3c:	b672      	cpsid	i
10002a3e:	6813      	ldr	r3, [r2, #0]
10002a40:	2b00      	cmp	r3, #0
10002a42:	d0fc      	beq.n	10002a3e <tud_task_ext+0x36>
10002a44:	f3bf 8f5f 	dmb	sy
10002a48:	61a9      	str	r1, [r5, #24]
10002a4a:	0028      	movs	r0, r5
10002a4c:	0021      	movs	r1, r4
10002a4e:	f001 fbad 	bl	100041ac <tu_fifo_read>
10002a52:	696a      	ldr	r2, [r5, #20]
10002a54:	69ab      	ldr	r3, [r5, #24]
10002a56:	f3bf 8f5f 	dmb	sy
10002a5a:	2100      	movs	r1, #0
10002a5c:	6011      	str	r1, [r2, #0]
10002a5e:	f383 8810 	msr	PRIMASK, r3
10002a62:	2800      	cmp	r0, #0
10002a64:	d100      	bne.n	10002a68 <tud_task_ext+0x60>
10002a66:	e11b      	b.n	10002ca0 <tud_task_ext+0x298>
10002a68:	7863      	ldrb	r3, [r4, #1]
10002a6a:	2b08      	cmp	r3, #8
10002a6c:	d8e2      	bhi.n	10002a34 <tud_task_ext+0x2c>
10002a6e:	009b      	lsls	r3, r3, #2
10002a70:	58fb      	ldr	r3, [r7, r3]
10002a72:	469f      	mov	pc, r3
10002a74:	6863      	ldr	r3, [r4, #4]
10002a76:	2b00      	cmp	r3, #0
10002a78:	d0dc      	beq.n	10002a34 <tud_task_ext+0x2c>
10002a7a:	68a0      	ldr	r0, [r4, #8]
10002a7c:	4798      	blx	r3
10002a7e:	e7d9      	b.n	10002a34 <tud_task_ext+0x2c>
10002a80:	227f      	movs	r2, #127	@ 0x7f
10002a82:	7921      	ldrb	r1, [r4, #4]
10002a84:	4daf      	ldr	r5, [pc, #700]	@ (10002d44 <tud_task_ext+0x33c>)
10002a86:	400a      	ands	r2, r1
10002a88:	0053      	lsls	r3, r2, #1
10002a8a:	18eb      	adds	r3, r5, r3
10002a8c:	4698      	mov	r8, r3
10002a8e:	09c8      	lsrs	r0, r1, #7
10002a90:	4480      	add	r8, r0
10002a92:	4640      	mov	r0, r8
10002a94:	2301      	movs	r3, #1
10002a96:	3030      	adds	r0, #48	@ 0x30
10002a98:	7905      	ldrb	r5, [r0, #4]
10002a9a:	439d      	bics	r5, r3
10002a9c:	7105      	strb	r5, [r0, #4]
10002a9e:	7905      	ldrb	r5, [r0, #4]
10002aa0:	3303      	adds	r3, #3
10002aa2:	439d      	bics	r5, r3
10002aa4:	7105      	strb	r5, [r0, #4]
10002aa6:	2a00      	cmp	r2, #0
10002aa8:	d100      	bne.n	10002aac <tud_task_ext+0xa4>
10002aaa:	e100      	b.n	10002cae <tud_task_ext+0x2a6>
10002aac:	4643      	mov	r3, r8
10002aae:	4aa7      	ldr	r2, [pc, #668]	@ (10002d4c <tud_task_ext+0x344>)
10002ab0:	7d1b      	ldrb	r3, [r3, #20]
10002ab2:	7812      	ldrb	r2, [r2, #0]
10002ab4:	4293      	cmp	r3, r2
10002ab6:	d300      	bcc.n	10002aba <tud_task_ext+0xb2>
10002ab8:	e0ef      	b.n	10002c9a <tud_task_ext+0x292>
10002aba:	4aa5      	ldr	r2, [pc, #660]	@ (10002d50 <tud_task_ext+0x348>)
10002abc:	015b      	lsls	r3, r3, #5
10002abe:	6815      	ldr	r5, [r2, #0]
10002ac0:	18ed      	adds	r5, r5, r3
10002ac2:	2d00      	cmp	r5, #0
10002ac4:	d100      	bne.n	10002ac8 <tud_task_ext+0xc0>
10002ac6:	e0eb      	b.n	10002ca0 <tud_task_ext+0x298>
10002ac8:	68a3      	ldr	r3, [r4, #8]
10002aca:	7962      	ldrb	r2, [r4, #5]
10002acc:	7820      	ldrb	r0, [r4, #0]
10002ace:	69ad      	ldr	r5, [r5, #24]
10002ad0:	47a8      	blx	r5
10002ad2:	e7af      	b.n	10002a34 <tud_task_ext+0x2c>
10002ad4:	4a9f      	ldr	r2, [pc, #636]	@ (10002d54 <tud_task_ext+0x34c>)
10002ad6:	7813      	ldrb	r3, [r2, #0]
10002ad8:	2b00      	cmp	r3, #0
10002ada:	d100      	bne.n	10002ade <tud_task_ext+0xd6>
10002adc:	e0e0      	b.n	10002ca0 <tud_task_ext+0x298>
10002ade:	7813      	ldrb	r3, [r2, #0]
10002ae0:	3b01      	subs	r3, #1
10002ae2:	b2db      	uxtb	r3, r3
10002ae4:	7013      	strb	r3, [r2, #0]
10002ae6:	7813      	ldrb	r3, [r2, #0]
10002ae8:	2b00      	cmp	r3, #0
10002aea:	d1a3      	bne.n	10002a34 <tud_task_ext+0x2c>
10002aec:	2201      	movs	r2, #1
10002aee:	4d95      	ldr	r5, [pc, #596]	@ (10002d44 <tud_task_ext+0x33c>)
10002af0:	2101      	movs	r1, #1
10002af2:	782b      	ldrb	r3, [r5, #0]
10002af4:	2004      	movs	r0, #4
10002af6:	4313      	orrs	r3, r2
10002af8:	702b      	strb	r3, [r5, #0]
10002afa:	2334      	movs	r3, #52	@ 0x34
10002afc:	5cea      	ldrb	r2, [r5, r3]
10002afe:	438a      	bics	r2, r1
10002b00:	54ea      	strb	r2, [r5, r3]
10002b02:	5cea      	ldrb	r2, [r5, r3]
10002b04:	4382      	bics	r2, r0
10002b06:	54ea      	strb	r2, [r5, r3]
10002b08:	3301      	adds	r3, #1
10002b0a:	5cea      	ldrb	r2, [r5, r3]
10002b0c:	438a      	bics	r2, r1
10002b0e:	54ea      	strb	r2, [r5, r3]
10002b10:	5cea      	ldrb	r2, [r5, r3]
10002b12:	4382      	bics	r2, r0
10002b14:	54ea      	strb	r2, [r5, r3]
10002b16:	7823      	ldrb	r3, [r4, #0]
10002b18:	2000      	movs	r0, #0
10002b1a:	469b      	mov	fp, r3
10002b1c:	f000 fca0 	bl	10003460 <usbd_control_set_complete_callback>
10002b20:	2260      	movs	r2, #96	@ 0x60
10002b22:	7923      	ldrb	r3, [r4, #4]
10002b24:	401a      	ands	r2, r3
10002b26:	2a60      	cmp	r2, #96	@ 0x60
10002b28:	d100      	bne.n	10002b2c <tud_task_ext+0x124>
10002b2a:	e0ef      	b.n	10002d0c <tud_task_ext+0x304>
10002b2c:	2a40      	cmp	r2, #64	@ 0x40
10002b2e:	d100      	bne.n	10002b32 <tud_task_ext+0x12a>
10002b30:	e0f5      	b.n	10002d1e <tud_task_ext+0x316>
10002b32:	06db      	lsls	r3, r3, #27
10002b34:	0edb      	lsrs	r3, r3, #27
10002b36:	2b01      	cmp	r3, #1
10002b38:	d100      	bne.n	10002b3c <tud_task_ext+0x134>
10002b3a:	e113      	b.n	10002d64 <tud_task_ext+0x35c>
10002b3c:	2b02      	cmp	r3, #2
10002b3e:	d100      	bne.n	10002b42 <tud_task_ext+0x13a>
10002b40:	e0c7      	b.n	10002cd2 <tud_task_ext+0x2ca>
10002b42:	2b00      	cmp	r3, #0
10002b44:	d000      	beq.n	10002b48 <tud_task_ext+0x140>
10002b46:	e0e1      	b.n	10002d0c <tud_task_ext+0x304>
10002b48:	2a20      	cmp	r2, #32
10002b4a:	d100      	bne.n	10002b4e <tud_task_ext+0x146>
10002b4c:	e21c      	b.n	10002f88 <tud_task_ext+0x580>
10002b4e:	2a00      	cmp	r2, #0
10002b50:	d000      	beq.n	10002b54 <tud_task_ext+0x14c>
10002b52:	e0db      	b.n	10002d0c <tud_task_ext+0x304>
10002b54:	7963      	ldrb	r3, [r4, #5]
10002b56:	2b09      	cmp	r3, #9
10002b58:	d900      	bls.n	10002b5c <tud_task_ext+0x154>
10002b5a:	e0d7      	b.n	10002d0c <tud_task_ext+0x304>
10002b5c:	4a7e      	ldr	r2, [pc, #504]	@ (10002d58 <tud_task_ext+0x350>)
10002b5e:	009b      	lsls	r3, r3, #2
10002b60:	58d3      	ldr	r3, [r2, r3]
10002b62:	469f      	mov	pc, r3
10002b64:	4d77      	ldr	r5, [pc, #476]	@ (10002d44 <tud_task_ext+0x33c>)
10002b66:	782b      	ldrb	r3, [r5, #0]
10002b68:	07db      	lsls	r3, r3, #31
10002b6a:	d400      	bmi.n	10002b6e <tud_task_ext+0x166>
10002b6c:	e762      	b.n	10002a34 <tud_task_ext+0x2c>
10002b6e:	f7ff fec7 	bl	10002900 <tud_resume_cb>
10002b72:	e75f      	b.n	10002a34 <tud_task_ext+0x2c>
10002b74:	9b01      	ldr	r3, [sp, #4]
10002b76:	78db      	ldrb	r3, [r3, #3]
10002b78:	07db      	lsls	r3, r3, #31
10002b7a:	d400      	bmi.n	10002b7e <tud_task_ext+0x176>
10002b7c:	e75a      	b.n	10002a34 <tud_task_ext+0x2c>
10002b7e:	6860      	ldr	r0, [r4, #4]
10002b80:	f7ff feb2 	bl	100028e8 <tud_sof_cb>
10002b84:	e756      	b.n	10002a34 <tud_task_ext+0x2c>
10002b86:	4d6f      	ldr	r5, [pc, #444]	@ (10002d44 <tud_task_ext+0x33c>)
10002b88:	782b      	ldrb	r3, [r5, #0]
10002b8a:	07db      	lsls	r3, r3, #31
10002b8c:	d400      	bmi.n	10002b90 <tud_task_ext+0x188>
10002b8e:	e751      	b.n	10002a34 <tud_task_ext+0x2c>
10002b90:	7828      	ldrb	r0, [r5, #0]
10002b92:	0700      	lsls	r0, r0, #28
10002b94:	0fc0      	lsrs	r0, r0, #31
10002b96:	f7ff feb1 	bl	100028fc <tud_suspend_cb>
10002b9a:	e74b      	b.n	10002a34 <tud_task_ext+0x2c>
10002b9c:	7823      	ldrb	r3, [r4, #0]
10002b9e:	496a      	ldr	r1, [pc, #424]	@ (10002d48 <tud_task_ext+0x340>)
10002ba0:	4699      	mov	r9, r3
10002ba2:	468b      	mov	fp, r1
10002ba4:	4b69      	ldr	r3, [pc, #420]	@ (10002d4c <tud_task_ext+0x344>)
10002ba6:	496a      	ldr	r1, [pc, #424]	@ (10002d50 <tud_task_ext+0x348>)
10002ba8:	4698      	mov	r8, r3
10002baa:	468a      	mov	sl, r1
10002bac:	0039      	movs	r1, r7
10002bae:	781a      	ldrb	r2, [r3, #0]
10002bb0:	4647      	mov	r7, r8
10002bb2:	2300      	movs	r3, #0
10002bb4:	46b0      	mov	r8, r6
10002bb6:	2500      	movs	r5, #0
10002bb8:	464e      	mov	r6, r9
10002bba:	4689      	mov	r9, r1
10002bbc:	e010      	b.n	10002be0 <tud_task_ext+0x1d8>
10002bbe:	4653      	mov	r3, sl
10002bc0:	681b      	ldr	r3, [r3, #0]
10002bc2:	016a      	lsls	r2, r5, #5
10002bc4:	189b      	adds	r3, r3, r2
10002bc6:	2b00      	cmp	r3, #0
10002bc8:	d100      	bne.n	10002bcc <tud_task_ext+0x1c4>
10002bca:	e076      	b.n	10002cba <tud_task_ext+0x2b2>
10002bcc:	68db      	ldr	r3, [r3, #12]
10002bce:	0030      	movs	r0, r6
10002bd0:	4798      	blx	r3
10002bd2:	783a      	ldrb	r2, [r7, #0]
10002bd4:	3501      	adds	r5, #1
10002bd6:	b2ed      	uxtb	r5, r5
10002bd8:	1c51      	adds	r1, r2, #1
10002bda:	002b      	movs	r3, r5
10002bdc:	428d      	cmp	r5, r1
10002bde:	dc44      	bgt.n	10002c6a <tud_task_ext+0x262>
10002be0:	4295      	cmp	r5, r2
10002be2:	d3ec      	bcc.n	10002bbe <tud_task_ext+0x1b6>
10002be4:	1a9b      	subs	r3, r3, r2
10002be6:	015b      	lsls	r3, r3, #5
10002be8:	445b      	add	r3, fp
10002bea:	e7ef      	b.n	10002bcc <tud_task_ext+0x1c4>
10002bec:	7823      	ldrb	r3, [r4, #0]
10002bee:	4958      	ldr	r1, [pc, #352]	@ (10002d50 <tud_task_ext+0x348>)
10002bf0:	4699      	mov	r9, r3
10002bf2:	4b56      	ldr	r3, [pc, #344]	@ (10002d4c <tud_task_ext+0x344>)
10002bf4:	468a      	mov	sl, r1
10002bf6:	4698      	mov	r8, r3
10002bf8:	0031      	movs	r1, r6
10002bfa:	46bb      	mov	fp, r7
10002bfc:	464e      	mov	r6, r9
10002bfe:	781a      	ldrb	r2, [r3, #0]
10002c00:	2500      	movs	r5, #0
10002c02:	2300      	movs	r3, #0
10002c04:	4647      	mov	r7, r8
10002c06:	4689      	mov	r9, r1
10002c08:	e00f      	b.n	10002c2a <tud_task_ext+0x222>
10002c0a:	4653      	mov	r3, sl
10002c0c:	681b      	ldr	r3, [r3, #0]
10002c0e:	016a      	lsls	r2, r5, #5
10002c10:	189b      	adds	r3, r3, r2
10002c12:	2b00      	cmp	r3, #0
10002c14:	d055      	beq.n	10002cc2 <tud_task_ext+0x2ba>
10002c16:	68db      	ldr	r3, [r3, #12]
10002c18:	0030      	movs	r0, r6
10002c1a:	4798      	blx	r3
10002c1c:	783a      	ldrb	r2, [r7, #0]
10002c1e:	3501      	adds	r5, #1
10002c20:	b2ed      	uxtb	r5, r5
10002c22:	1c51      	adds	r1, r2, #1
10002c24:	002b      	movs	r3, r5
10002c26:	428d      	cmp	r5, r1
10002c28:	dc07      	bgt.n	10002c3a <tud_task_ext+0x232>
10002c2a:	4295      	cmp	r5, r2
10002c2c:	d3ed      	bcc.n	10002c0a <tud_task_ext+0x202>
10002c2e:	1a9b      	subs	r3, r3, r2
10002c30:	9a00      	ldr	r2, [sp, #0]
10002c32:	015b      	lsls	r3, r3, #5
10002c34:	4694      	mov	ip, r2
10002c36:	4463      	add	r3, ip
10002c38:	e7ed      	b.n	10002c16 <tud_task_ext+0x20e>
10002c3a:	9d01      	ldr	r5, [sp, #4]
10002c3c:	2254      	movs	r2, #84	@ 0x54
10002c3e:	2100      	movs	r1, #0
10002c40:	0028      	movs	r0, r5
10002c42:	f7fe ff5d 	bl	10001b00 <__wrap_memset>
10002c46:	2210      	movs	r2, #16
10002c48:	21ff      	movs	r1, #255	@ 0xff
10002c4a:	4844      	ldr	r0, [pc, #272]	@ (10002d5c <tud_task_ext+0x354>)
10002c4c:	f7fe ff58 	bl	10001b00 <__wrap_memset>
10002c50:	0028      	movs	r0, r5
10002c52:	2220      	movs	r2, #32
10002c54:	21ff      	movs	r1, #255	@ 0xff
10002c56:	3014      	adds	r0, #20
10002c58:	464e      	mov	r6, r9
10002c5a:	465f      	mov	r7, fp
10002c5c:	f7fe ff50 	bl	10001b00 <__wrap_memset>
10002c60:	f000 fbf4 	bl	1000344c <usbd_control_reset>
10002c64:	f7ff fe48 	bl	100028f8 <tud_umount_cb>
10002c68:	e6e4      	b.n	10002a34 <tud_task_ext+0x2c>
10002c6a:	4d36      	ldr	r5, [pc, #216]	@ (10002d44 <tud_task_ext+0x33c>)
10002c6c:	2254      	movs	r2, #84	@ 0x54
10002c6e:	2100      	movs	r1, #0
10002c70:	0028      	movs	r0, r5
10002c72:	f7fe ff45 	bl	10001b00 <__wrap_memset>
10002c76:	2210      	movs	r2, #16
10002c78:	21ff      	movs	r1, #255	@ 0xff
10002c7a:	1d28      	adds	r0, r5, #4
10002c7c:	f7fe ff40 	bl	10001b00 <__wrap_memset>
10002c80:	0028      	movs	r0, r5
10002c82:	2220      	movs	r2, #32
10002c84:	21ff      	movs	r1, #255	@ 0xff
10002c86:	3014      	adds	r0, #20
10002c88:	4646      	mov	r6, r8
10002c8a:	464f      	mov	r7, r9
10002c8c:	f7fe ff38 	bl	10001b00 <__wrap_memset>
10002c90:	f000 fbdc 	bl	1000344c <usbd_control_reset>
10002c94:	7923      	ldrb	r3, [r4, #4]
10002c96:	70ab      	strb	r3, [r5, #2]
10002c98:	e6cc      	b.n	10002a34 <tud_task_ext+0x2c>
10002c9a:	1c50      	adds	r0, r2, #1
10002c9c:	4298      	cmp	r0, r3
10002c9e:	da13      	bge.n	10002cc8 <tud_task_ext+0x2c0>
10002ca0:	b011      	add	sp, #68	@ 0x44
10002ca2:	bcf0      	pop	{r4, r5, r6, r7}
10002ca4:	46bb      	mov	fp, r7
10002ca6:	46b2      	mov	sl, r6
10002ca8:	46a9      	mov	r9, r5
10002caa:	46a0      	mov	r8, r4
10002cac:	bdf0      	pop	{r4, r5, r6, r7, pc}
10002cae:	68a3      	ldr	r3, [r4, #8]
10002cb0:	7962      	ldrb	r2, [r4, #5]
10002cb2:	7820      	ldrb	r0, [r4, #0]
10002cb4:	f000 fbe8 	bl	10003488 <usbd_control_xfer_cb>
10002cb8:	e6bc      	b.n	10002a34 <tud_task_ext+0x2c>
10002cba:	4646      	mov	r6, r8
10002cbc:	464f      	mov	r7, r9
10002cbe:	4d21      	ldr	r5, [pc, #132]	@ (10002d44 <tud_task_ext+0x33c>)
10002cc0:	e7e6      	b.n	10002c90 <tud_task_ext+0x288>
10002cc2:	464e      	mov	r6, r9
10002cc4:	465f      	mov	r7, fp
10002cc6:	e7cb      	b.n	10002c60 <tud_task_ext+0x258>
10002cc8:	4d1f      	ldr	r5, [pc, #124]	@ (10002d48 <tud_task_ext+0x340>)
10002cca:	1a9b      	subs	r3, r3, r2
10002ccc:	015b      	lsls	r3, r3, #5
10002cce:	195d      	adds	r5, r3, r5
10002cd0:	e6fa      	b.n	10002ac8 <tud_task_ext+0xc0>
10002cd2:	2370      	movs	r3, #112	@ 0x70
10002cd4:	7a21      	ldrb	r1, [r4, #8]
10002cd6:	420b      	tst	r3, r1
10002cd8:	d118      	bne.n	10002d0c <tud_task_ext+0x304>
10002cda:	09c8      	lsrs	r0, r1, #7
10002cdc:	4682      	mov	sl, r0
10002cde:	330f      	adds	r3, #15
10002ce0:	400b      	ands	r3, r1
10002ce2:	005b      	lsls	r3, r3, #1
10002ce4:	4698      	mov	r8, r3
10002ce6:	4819      	ldr	r0, [pc, #100]	@ (10002d4c <tud_task_ext+0x344>)
10002ce8:	18eb      	adds	r3, r5, r3
10002cea:	4453      	add	r3, sl
10002cec:	7d1b      	ldrb	r3, [r3, #20]
10002cee:	7800      	ldrb	r0, [r0, #0]
10002cf0:	4699      	mov	r9, r3
10002cf2:	4283      	cmp	r3, r0
10002cf4:	d266      	bcs.n	10002dc4 <tud_task_ext+0x3bc>
10002cf6:	4816      	ldr	r0, [pc, #88]	@ (10002d50 <tud_task_ext+0x348>)
10002cf8:	015b      	lsls	r3, r3, #5
10002cfa:	6800      	ldr	r0, [r0, #0]
10002cfc:	4681      	mov	r9, r0
10002cfe:	4499      	add	r9, r3
10002d00:	2a00      	cmp	r2, #0
10002d02:	d100      	bne.n	10002d06 <tud_task_ext+0x2fe>
10002d04:	e15f      	b.n	10002fc6 <tud_task_ext+0x5be>
10002d06:	464b      	mov	r3, r9
10002d08:	2b00      	cmp	r3, #0
10002d0a:	d168      	bne.n	10002dde <tud_task_ext+0x3d6>
10002d0c:	7820      	ldrb	r0, [r4, #0]
10002d0e:	2100      	movs	r1, #0
10002d10:	f7ff fd76 	bl	10002800 <dcd_edpt_stall>
10002d14:	2180      	movs	r1, #128	@ 0x80
10002d16:	7820      	ldrb	r0, [r4, #0]
10002d18:	f7ff fd72 	bl	10002800 <dcd_edpt_stall>
10002d1c:	e68a      	b.n	10002a34 <tud_task_ext+0x2c>
10002d1e:	4810      	ldr	r0, [pc, #64]	@ (10002d60 <tud_task_ext+0x358>)
10002d20:	f000 fb9e 	bl	10003460 <usbd_control_set_complete_callback>
10002d24:	2101      	movs	r1, #1
10002d26:	4658      	mov	r0, fp
10002d28:	aa0e      	add	r2, sp, #56	@ 0x38
10002d2a:	f7ff f8d9 	bl	10001ee0 <tud_vendor_control_xfer_cb>
10002d2e:	2800      	cmp	r0, #0
10002d30:	d000      	beq.n	10002d34 <tud_task_ext+0x32c>
10002d32:	e67f      	b.n	10002a34 <tud_task_ext+0x2c>
10002d34:	e7ea      	b.n	10002d0c <tud_task_ext+0x304>
10002d36:	46c0      	nop			@ (mov r8, r8)
10002d38:	20001054 	.word	0x20001054
10002d3c:	10004a90 	.word	0x10004a90
10002d40:	2000166c 	.word	0x2000166c
10002d44:	20001614 	.word	0x20001614
10002d48:	10004b38 	.word	0x10004b38
10002d4c:	200020cd 	.word	0x200020cd
10002d50:	200012e8 	.word	0x200012e8
10002d54:	200020cf 	.word	0x200020cf
10002d58:	10004ab4 	.word	0x10004ab4
10002d5c:	20001618 	.word	0x20001618
10002d60:	10001ee1 	.word	0x10001ee1
10002d64:	7a23      	ldrb	r3, [r4, #8]
10002d66:	2b0f      	cmp	r3, #15
10002d68:	d8d0      	bhi.n	10002d0c <tud_task_ext+0x304>
10002d6a:	4acf      	ldr	r2, [pc, #828]	@ (100030a8 <tud_task_ext+0x6a0>)
10002d6c:	18eb      	adds	r3, r5, r3
10002d6e:	791b      	ldrb	r3, [r3, #4]
10002d70:	7815      	ldrb	r5, [r2, #0]
10002d72:	42ab      	cmp	r3, r5
10002d74:	d33e      	bcc.n	10002df4 <tud_task_ext+0x3ec>
10002d76:	1c69      	adds	r1, r5, #1
10002d78:	4299      	cmp	r1, r3
10002d7a:	dbc7      	blt.n	10002d0c <tud_task_ext+0x304>
10002d7c:	1b5d      	subs	r5, r3, r5
10002d7e:	4bcb      	ldr	r3, [pc, #812]	@ (100030ac <tud_task_ext+0x6a4>)
10002d80:	016d      	lsls	r5, r5, #5
10002d82:	18ed      	adds	r5, r5, r3
10002d84:	6968      	ldr	r0, [r5, #20]
10002d86:	f000 fb6b 	bl	10003460 <usbd_control_set_complete_callback>
10002d8a:	2101      	movs	r1, #1
10002d8c:	4658      	mov	r0, fp
10002d8e:	696b      	ldr	r3, [r5, #20]
10002d90:	aa0e      	add	r2, sp, #56	@ 0x38
10002d92:	4798      	blx	r3
10002d94:	2800      	cmp	r0, #0
10002d96:	d000      	beq.n	10002d9a <tud_task_ext+0x392>
10002d98:	e64c      	b.n	10002a34 <tud_task_ext+0x2c>
10002d9a:	2260      	movs	r2, #96	@ 0x60
10002d9c:	0015      	movs	r5, r2
10002d9e:	7923      	ldrb	r3, [r4, #4]
10002da0:	401d      	ands	r5, r3
10002da2:	421a      	tst	r2, r3
10002da4:	d1b2      	bne.n	10002d0c <tud_task_ext+0x304>
10002da6:	7963      	ldrb	r3, [r4, #5]
10002da8:	3b0a      	subs	r3, #10
10002daa:	2b01      	cmp	r3, #1
10002dac:	d8ae      	bhi.n	10002d0c <tud_task_ext+0x304>
10002dae:	f000 fb57 	bl	10003460 <usbd_control_set_complete_callback>
10002db2:	7963      	ldrb	r3, [r4, #5]
10002db4:	2b0a      	cmp	r3, #10
10002db6:	d100      	bne.n	10002dba <tud_task_ext+0x3b2>
10002db8:	e199      	b.n	100030ee <tud_task_ext+0x6e6>
10002dba:	4658      	mov	r0, fp
10002dbc:	a90e      	add	r1, sp, #56	@ 0x38
10002dbe:	f000 fad9 	bl	10003374 <tud_control_status>
10002dc2:	e637      	b.n	10002a34 <tud_task_ext+0x2c>
10002dc4:	1c43      	adds	r3, r0, #1
10002dc6:	454b      	cmp	r3, r9
10002dc8:	da00      	bge.n	10002dcc <tud_task_ext+0x3c4>
10002dca:	e0f7      	b.n	10002fbc <tud_task_ext+0x5b4>
10002dcc:	464b      	mov	r3, r9
10002dce:	1a1b      	subs	r3, r3, r0
10002dd0:	015b      	lsls	r3, r3, #5
10002dd2:	4699      	mov	r9, r3
10002dd4:	48b5      	ldr	r0, [pc, #724]	@ (100030ac <tud_task_ext+0x6a4>)
10002dd6:	4481      	add	r9, r0
10002dd8:	2a00      	cmp	r2, #0
10002dda:	d100      	bne.n	10002dde <tud_task_ext+0x3d6>
10002ddc:	e0f3      	b.n	10002fc6 <tud_task_ext+0x5be>
10002dde:	464b      	mov	r3, r9
10002de0:	6958      	ldr	r0, [r3, #20]
10002de2:	f000 fb3d 	bl	10003460 <usbd_control_set_complete_callback>
10002de6:	464b      	mov	r3, r9
10002de8:	2101      	movs	r1, #1
10002dea:	4658      	mov	r0, fp
10002dec:	695b      	ldr	r3, [r3, #20]
10002dee:	aa0e      	add	r2, sp, #56	@ 0x38
10002df0:	4798      	blx	r3
10002df2:	e79c      	b.n	10002d2e <tud_task_ext+0x326>
10002df4:	4aae      	ldr	r2, [pc, #696]	@ (100030b0 <tud_task_ext+0x6a8>)
10002df6:	015b      	lsls	r3, r3, #5
10002df8:	6815      	ldr	r5, [r2, #0]
10002dfa:	18ed      	adds	r5, r5, r3
10002dfc:	2d00      	cmp	r5, #0
10002dfe:	d1c1      	bne.n	10002d84 <tud_task_ext+0x37c>
10002e00:	e784      	b.n	10002d0c <tud_task_ext+0x304>
10002e02:	79a3      	ldrb	r3, [r4, #6]
10002e04:	4699      	mov	r9, r3
10002e06:	786b      	ldrb	r3, [r5, #1]
10002e08:	4599      	cmp	r9, r3
10002e0a:	d0d6      	beq.n	10002dba <tud_task_ext+0x3b2>
10002e0c:	786b      	ldrb	r3, [r5, #1]
10002e0e:	2b00      	cmp	r3, #0
10002e10:	d000      	beq.n	10002e14 <tud_task_ext+0x40c>
10002e12:	e133      	b.n	1000307c <tud_task_ext+0x674>
10002e14:	464b      	mov	r3, r9
10002e16:	706b      	strb	r3, [r5, #1]
10002e18:	2b00      	cmp	r3, #0
10002e1a:	d100      	bne.n	10002e1e <tud_task_ext+0x416>
10002e1c:	e12b      	b.n	10003076 <tud_task_ext+0x66e>
10002e1e:	4648      	mov	r0, r9
10002e20:	3801      	subs	r0, #1
10002e22:	b2c0      	uxtb	r0, r0
10002e24:	f7ff faa6 	bl	10002374 <tud_descriptor_configuration_cb>
10002e28:	2800      	cmp	r0, #0
10002e2a:	d100      	bne.n	10002e2e <tud_task_ext+0x426>
10002e2c:	e17e      	b.n	1000312c <tud_task_ext+0x724>
10002e2e:	7843      	ldrb	r3, [r0, #1]
10002e30:	9307      	str	r3, [sp, #28]
10002e32:	2b02      	cmp	r3, #2
10002e34:	d000      	beq.n	10002e38 <tud_task_ext+0x430>
10002e36:	e179      	b.n	1000312c <tud_task_ext+0x724>
10002e38:	2201      	movs	r2, #1
10002e3a:	79c1      	ldrb	r1, [r0, #7]
10002e3c:	46b1      	mov	r9, r6
10002e3e:	118b      	asrs	r3, r1, #6
10002e40:	1149      	asrs	r1, r1, #5
10002e42:	4013      	ands	r3, r2
10002e44:	400a      	ands	r2, r1
10002e46:	2130      	movs	r1, #48	@ 0x30
10002e48:	0112      	lsls	r2, r2, #4
10002e4a:	015b      	lsls	r3, r3, #5
10002e4c:	4313      	orrs	r3, r2
10002e4e:	782a      	ldrb	r2, [r5, #0]
10002e50:	46a8      	mov	r8, r5
10002e52:	438a      	bics	r2, r1
10002e54:	4313      	orrs	r3, r2
10002e56:	702b      	strb	r3, [r5, #0]
10002e58:	2309      	movs	r3, #9
10002e5a:	469a      	mov	sl, r3
10002e5c:	4482      	add	sl, r0
10002e5e:	4656      	mov	r6, sl
10002e60:	46ba      	mov	sl, r7
10002e62:	78c3      	ldrb	r3, [r0, #3]
10002e64:	7882      	ldrb	r2, [r0, #2]
10002e66:	021b      	lsls	r3, r3, #8
10002e68:	4313      	orrs	r3, r2
10002e6a:	18c3      	adds	r3, r0, r3
10002e6c:	9305      	str	r3, [sp, #20]
10002e6e:	4b8e      	ldr	r3, [pc, #568]	@ (100030a8 <tud_task_ext+0x6a0>)
10002e70:	9304      	str	r3, [sp, #16]
10002e72:	4b8e      	ldr	r3, [pc, #568]	@ (100030ac <tud_task_ext+0x6a4>)
10002e74:	9308      	str	r3, [sp, #32]
10002e76:	4b8e      	ldr	r3, [pc, #568]	@ (100030b0 <tud_task_ext+0x6a8>)
10002e78:	9309      	str	r3, [sp, #36]	@ 0x24
10002e7a:	4b8e      	ldr	r3, [pc, #568]	@ (100030b4 <tud_task_ext+0x6ac>)
10002e7c:	930a      	str	r3, [sp, #40]	@ 0x28
10002e7e:	9b05      	ldr	r3, [sp, #20]
10002e80:	42b3      	cmp	r3, r6
10002e82:	d800      	bhi.n	10002e86 <tud_task_ext+0x47e>
10002e84:	e155      	b.n	10003132 <tud_task_ext+0x72a>
10002e86:	7873      	ldrb	r3, [r6, #1]
10002e88:	2201      	movs	r2, #1
10002e8a:	2b0b      	cmp	r3, #11
10002e8c:	d103      	bne.n	10002e96 <tud_task_ext+0x48e>
10002e8e:	7833      	ldrb	r3, [r6, #0]
10002e90:	78f2      	ldrb	r2, [r6, #3]
10002e92:	18f6      	adds	r6, r6, r3
10002e94:	7873      	ldrb	r3, [r6, #1]
10002e96:	2b04      	cmp	r3, #4
10002e98:	d000      	beq.n	10002e9c <tud_task_ext+0x494>
10002e9a:	e144      	b.n	10003126 <tud_task_ext+0x71e>
10002e9c:	9b05      	ldr	r3, [sp, #20]
10002e9e:	2700      	movs	r7, #0
10002ea0:	1b9b      	subs	r3, r3, r6
10002ea2:	b29b      	uxth	r3, r3
10002ea4:	9306      	str	r3, [sp, #24]
10002ea6:	9b04      	ldr	r3, [sp, #16]
10002ea8:	920b      	str	r2, [sp, #44]	@ 0x2c
10002eaa:	781d      	ldrb	r5, [r3, #0]
10002eac:	2300      	movs	r3, #0
10002eae:	9303      	str	r3, [sp, #12]
10002eb0:	e01b      	b.n	10002eea <tud_task_ext+0x4e2>
10002eb2:	9a09      	ldr	r2, [sp, #36]	@ 0x24
10002eb4:	017b      	lsls	r3, r7, #5
10002eb6:	6815      	ldr	r5, [r2, #0]
10002eb8:	18ed      	adds	r5, r5, r3
10002eba:	2d00      	cmp	r5, #0
10002ebc:	d100      	bne.n	10002ec0 <tud_task_ext+0x4b8>
10002ebe:	e132      	b.n	10003126 <tud_task_ext+0x71e>
10002ec0:	0031      	movs	r1, r6
10002ec2:	4658      	mov	r0, fp
10002ec4:	692b      	ldr	r3, [r5, #16]
10002ec6:	9a06      	ldr	r2, [sp, #24]
10002ec8:	4798      	blx	r3
10002eca:	4684      	mov	ip, r0
10002ecc:	2808      	cmp	r0, #8
10002ece:	d903      	bls.n	10002ed8 <tud_task_ext+0x4d0>
10002ed0:	9a06      	ldr	r2, [sp, #24]
10002ed2:	4282      	cmp	r2, r0
10002ed4:	d300      	bcc.n	10002ed8 <tud_task_ext+0x4d0>
10002ed6:	e113      	b.n	10003100 <tud_task_ext+0x6f8>
10002ed8:	9b04      	ldr	r3, [sp, #16]
10002eda:	3701      	adds	r7, #1
10002edc:	781d      	ldrb	r5, [r3, #0]
10002ede:	b2ff      	uxtb	r7, r7
10002ee0:	1c6b      	adds	r3, r5, #1
10002ee2:	9703      	str	r7, [sp, #12]
10002ee4:	429f      	cmp	r7, r3
10002ee6:	dd00      	ble.n	10002eea <tud_task_ext+0x4e2>
10002ee8:	e11d      	b.n	10003126 <tud_task_ext+0x71e>
10002eea:	42bd      	cmp	r5, r7
10002eec:	d8e1      	bhi.n	10002eb2 <tud_task_ext+0x4aa>
10002eee:	9b03      	ldr	r3, [sp, #12]
10002ef0:	1b5d      	subs	r5, r3, r5
10002ef2:	9b08      	ldr	r3, [sp, #32]
10002ef4:	016d      	lsls	r5, r5, #5
10002ef6:	469c      	mov	ip, r3
10002ef8:	4465      	add	r5, ip
10002efa:	e7e1      	b.n	10002ec0 <tud_task_ext+0x4b8>
10002efc:	786b      	ldrb	r3, [r5, #1]
10002efe:	aa0c      	add	r2, sp, #48	@ 0x30
10002f00:	3202      	adds	r2, #2
10002f02:	7013      	strb	r3, [r2, #0]
10002f04:	4658      	mov	r0, fp
10002f06:	2301      	movs	r3, #1
10002f08:	a90e      	add	r1, sp, #56	@ 0x38
10002f0a:	f000 fa49 	bl	100033a0 <tud_control_xfer>
10002f0e:	e591      	b.n	10002a34 <tud_task_ext+0x2c>
10002f10:	88e3      	ldrh	r3, [r4, #6]
10002f12:	0a1a      	lsrs	r2, r3, #8
10002f14:	b2d8      	uxtb	r0, r3
10002f16:	2a0f      	cmp	r2, #15
10002f18:	d900      	bls.n	10002f1c <tud_task_ext+0x514>
10002f1a:	e6f7      	b.n	10002d0c <tud_task_ext+0x304>
10002f1c:	4966      	ldr	r1, [pc, #408]	@ (100030b8 <tud_task_ext+0x6b0>)
10002f1e:	0093      	lsls	r3, r2, #2
10002f20:	58cb      	ldr	r3, [r1, r3]
10002f22:	469f      	mov	pc, r3
10002f24:	a80e      	add	r0, sp, #56	@ 0x38
10002f26:	f000 faa1 	bl	1000346c <usbd_control_set_request>
10002f2a:	4658      	mov	r0, fp
10002f2c:	79a1      	ldrb	r1, [r4, #6]
10002f2e:	f7ff fba7 	bl	10002680 <dcd_set_address>
10002f32:	2202      	movs	r2, #2
10002f34:	782b      	ldrb	r3, [r5, #0]
10002f36:	4313      	orrs	r3, r2
10002f38:	702b      	strb	r3, [r5, #0]
10002f3a:	e57b      	b.n	10002a34 <tud_task_ext+0x2c>
10002f3c:	88e3      	ldrh	r3, [r4, #6]
10002f3e:	2b01      	cmp	r3, #1
10002f40:	d000      	beq.n	10002f44 <tud_task_ext+0x53c>
10002f42:	e6e3      	b.n	10002d0c <tud_task_ext+0x304>
10002f44:	2208      	movs	r2, #8
10002f46:	782b      	ldrb	r3, [r5, #0]
10002f48:	4658      	mov	r0, fp
10002f4a:	4393      	bics	r3, r2
10002f4c:	a90e      	add	r1, sp, #56	@ 0x38
10002f4e:	702b      	strb	r3, [r5, #0]
10002f50:	f000 fa10 	bl	10003374 <tud_control_status>
10002f54:	e56e      	b.n	10002a34 <tud_task_ext+0x2c>
10002f56:	2002      	movs	r0, #2
10002f58:	7829      	ldrb	r1, [r5, #0]
10002f5a:	ab0c      	add	r3, sp, #48	@ 0x30
10002f5c:	1c9a      	adds	r2, r3, #2
10002f5e:	068b      	lsls	r3, r1, #26
10002f60:	0889      	lsrs	r1, r1, #2
10002f62:	0fdb      	lsrs	r3, r3, #31
10002f64:	4001      	ands	r1, r0
10002f66:	430b      	orrs	r3, r1
10002f68:	8013      	strh	r3, [r2, #0]
10002f6a:	4658      	mov	r0, fp
10002f6c:	2302      	movs	r3, #2
10002f6e:	a90e      	add	r1, sp, #56	@ 0x38
10002f70:	f000 fa16 	bl	100033a0 <tud_control_xfer>
10002f74:	e55e      	b.n	10002a34 <tud_task_ext+0x2c>
10002f76:	88e3      	ldrh	r3, [r4, #6]
10002f78:	2b01      	cmp	r3, #1
10002f7a:	d000      	beq.n	10002f7e <tud_task_ext+0x576>
10002f7c:	e6c6      	b.n	10002d0c <tud_task_ext+0x304>
10002f7e:	2208      	movs	r2, #8
10002f80:	782b      	ldrb	r3, [r5, #0]
10002f82:	4313      	orrs	r3, r2
10002f84:	702b      	strb	r3, [r5, #0]
10002f86:	e718      	b.n	10002dba <tud_task_ext+0x3b2>
10002f88:	7a23      	ldrb	r3, [r4, #8]
10002f8a:	2b0f      	cmp	r3, #15
10002f8c:	d900      	bls.n	10002f90 <tud_task_ext+0x588>
10002f8e:	e6bd      	b.n	10002d0c <tud_task_ext+0x304>
10002f90:	18eb      	adds	r3, r5, r3
10002f92:	791d      	ldrb	r5, [r3, #4]
10002f94:	4b44      	ldr	r3, [pc, #272]	@ (100030a8 <tud_task_ext+0x6a0>)
10002f96:	781b      	ldrb	r3, [r3, #0]
10002f98:	429d      	cmp	r5, r3
10002f9a:	d228      	bcs.n	10002fee <tud_task_ext+0x5e6>
10002f9c:	4b44      	ldr	r3, [pc, #272]	@ (100030b0 <tud_task_ext+0x6a8>)
10002f9e:	016d      	lsls	r5, r5, #5
10002fa0:	681b      	ldr	r3, [r3, #0]
10002fa2:	195d      	adds	r5, r3, r5
10002fa4:	2d00      	cmp	r5, #0
10002fa6:	d100      	bne.n	10002faa <tud_task_ext+0x5a2>
10002fa8:	e6b0      	b.n	10002d0c <tud_task_ext+0x304>
10002faa:	6968      	ldr	r0, [r5, #20]
10002fac:	f000 fa58 	bl	10003460 <usbd_control_set_complete_callback>
10002fb0:	2101      	movs	r1, #1
10002fb2:	4658      	mov	r0, fp
10002fb4:	696b      	ldr	r3, [r5, #20]
10002fb6:	aa0e      	add	r2, sp, #56	@ 0x38
10002fb8:	4798      	blx	r3
10002fba:	e6b8      	b.n	10002d2e <tud_task_ext+0x326>
10002fbc:	2a00      	cmp	r2, #0
10002fbe:	d000      	beq.n	10002fc2 <tud_task_ext+0x5ba>
10002fc0:	e6a4      	b.n	10002d0c <tud_task_ext+0x304>
10002fc2:	2300      	movs	r3, #0
10002fc4:	4699      	mov	r9, r3
10002fc6:	7962      	ldrb	r2, [r4, #5]
10002fc8:	2002      	movs	r0, #2
10002fca:	0013      	movs	r3, r2
10002fcc:	9203      	str	r2, [sp, #12]
10002fce:	4383      	bics	r3, r0
10002fd0:	2b01      	cmp	r3, #1
10002fd2:	d015      	beq.n	10003000 <tud_task_ext+0x5f8>
10002fd4:	2a00      	cmp	r2, #0
10002fd6:	d000      	beq.n	10002fda <tud_task_ext+0x5d2>
10002fd8:	e698      	b.n	10002d0c <tud_task_ext+0x304>
10002fda:	002b      	movs	r3, r5
10002fdc:	4443      	add	r3, r8
10002fde:	4453      	add	r3, sl
10002fe0:	3330      	adds	r3, #48	@ 0x30
10002fe2:	791b      	ldrb	r3, [r3, #4]
10002fe4:	aa0c      	add	r2, sp, #48	@ 0x30
10002fe6:	079b      	lsls	r3, r3, #30
10002fe8:	0fdb      	lsrs	r3, r3, #31
10002fea:	3202      	adds	r2, #2
10002fec:	e7bc      	b.n	10002f68 <tud_task_ext+0x560>
10002fee:	1c5a      	adds	r2, r3, #1
10002ff0:	42aa      	cmp	r2, r5
10002ff2:	da00      	bge.n	10002ff6 <tud_task_ext+0x5ee>
10002ff4:	e68a      	b.n	10002d0c <tud_task_ext+0x304>
10002ff6:	1aed      	subs	r5, r5, r3
10002ff8:	4b2c      	ldr	r3, [pc, #176]	@ (100030ac <tud_task_ext+0x6a4>)
10002ffa:	016d      	lsls	r5, r5, #5
10002ffc:	18ed      	adds	r5, r5, r3
10002ffe:	e7d4      	b.n	10002faa <tud_task_ext+0x5a2>
10003000:	88e3      	ldrh	r3, [r4, #6]
10003002:	2b00      	cmp	r3, #0
10003004:	d112      	bne.n	1000302c <tud_task_ext+0x624>
10003006:	9b02      	ldr	r3, [sp, #8]
10003008:	7818      	ldrb	r0, [r3, #0]
1000300a:	9b03      	ldr	r3, [sp, #12]
1000300c:	2b01      	cmp	r3, #1
1000300e:	d023      	beq.n	10003058 <tud_task_ext+0x650>
10003010:	f7ff fbf6 	bl	10002800 <dcd_edpt_stall>
10003014:	4643      	mov	r3, r8
10003016:	2102      	movs	r1, #2
10003018:	18eb      	adds	r3, r5, r3
1000301a:	4453      	add	r3, sl
1000301c:	3330      	adds	r3, #48	@ 0x30
1000301e:	791a      	ldrb	r2, [r3, #4]
10003020:	430a      	orrs	r2, r1
10003022:	2101      	movs	r1, #1
10003024:	711a      	strb	r2, [r3, #4]
10003026:	791a      	ldrb	r2, [r3, #4]
10003028:	430a      	orrs	r2, r1
1000302a:	711a      	strb	r2, [r3, #4]
1000302c:	464b      	mov	r3, r9
1000302e:	2b00      	cmp	r3, #0
10003030:	d100      	bne.n	10003034 <tud_task_ext+0x62c>
10003032:	e4ff      	b.n	10002a34 <tud_task_ext+0x2c>
10003034:	6958      	ldr	r0, [r3, #20]
10003036:	f000 fa13 	bl	10003460 <usbd_control_set_complete_callback>
1000303a:	464b      	mov	r3, r9
1000303c:	2101      	movs	r1, #1
1000303e:	695b      	ldr	r3, [r3, #20]
10003040:	aa0e      	add	r2, sp, #56	@ 0x38
10003042:	4658      	mov	r0, fp
10003044:	4798      	blx	r3
10003046:	2000      	movs	r0, #0
10003048:	f000 fa0a 	bl	10003460 <usbd_control_set_complete_callback>
1000304c:	2335      	movs	r3, #53	@ 0x35
1000304e:	5ceb      	ldrb	r3, [r5, r3]
10003050:	07db      	lsls	r3, r3, #31
10003052:	d500      	bpl.n	10003056 <tud_task_ext+0x64e>
10003054:	e4ee      	b.n	10002a34 <tud_task_ext+0x2c>
10003056:	e6b0      	b.n	10002dba <tud_task_ext+0x3b2>
10003058:	f7ff fbec 	bl	10002834 <dcd_edpt_clear_stall>
1000305c:	4643      	mov	r3, r8
1000305e:	2102      	movs	r1, #2
10003060:	18eb      	adds	r3, r5, r3
10003062:	4453      	add	r3, sl
10003064:	3330      	adds	r3, #48	@ 0x30
10003066:	791a      	ldrb	r2, [r3, #4]
10003068:	438a      	bics	r2, r1
1000306a:	711a      	strb	r2, [r3, #4]
1000306c:	791a      	ldrb	r2, [r3, #4]
1000306e:	9903      	ldr	r1, [sp, #12]
10003070:	438a      	bics	r2, r1
10003072:	711a      	strb	r2, [r3, #4]
10003074:	e7da      	b.n	1000302c <tud_task_ext+0x624>
10003076:	f7ff fc3f 	bl	100028f8 <tud_umount_cb>
1000307a:	e69e      	b.n	10002dba <tud_task_ext+0x3b2>
1000307c:	2100      	movs	r1, #0
1000307e:	4658      	mov	r0, fp
10003080:	f7ff fb08 	bl	10002694 <dcd_sof_enable>
10003084:	4658      	mov	r0, fp
10003086:	f7ff fba5 	bl	100027d4 <dcd_edpt_close_all>
1000308a:	78ab      	ldrb	r3, [r5, #2]
1000308c:	4907      	ldr	r1, [pc, #28]	@ (100030ac <tud_task_ext+0x6a4>)
1000308e:	9303      	str	r3, [sp, #12]
10003090:	9104      	str	r1, [sp, #16]
10003092:	4b05      	ldr	r3, [pc, #20]	@ (100030a8 <tud_task_ext+0x6a0>)
10003094:	4906      	ldr	r1, [pc, #24]	@ (100030b0 <tud_task_ext+0x6a8>)
10003096:	4698      	mov	r8, r3
10003098:	781a      	ldrb	r2, [r3, #0]
1000309a:	9105      	str	r1, [sp, #20]
1000309c:	2300      	movs	r3, #0
1000309e:	0029      	movs	r1, r5
100030a0:	001d      	movs	r5, r3
100030a2:	468a      	mov	sl, r1
100030a4:	e01b      	b.n	100030de <tud_task_ext+0x6d6>
100030a6:	46c0      	nop			@ (mov r8, r8)
100030a8:	200020cd 	.word	0x200020cd
100030ac:	10004b38 	.word	0x10004b38
100030b0:	200012e8 	.word	0x200012e8
100030b4:	20001628 	.word	0x20001628
100030b8:	10004adc 	.word	0x10004adc
100030bc:	9b05      	ldr	r3, [sp, #20]
100030be:	016a      	lsls	r2, r5, #5
100030c0:	681b      	ldr	r3, [r3, #0]
100030c2:	189b      	adds	r3, r3, r2
100030c4:	2b00      	cmp	r3, #0
100030c6:	d04d      	beq.n	10003164 <tud_task_ext+0x75c>
100030c8:	68db      	ldr	r3, [r3, #12]
100030ca:	4658      	mov	r0, fp
100030cc:	4798      	blx	r3
100030ce:	4643      	mov	r3, r8
100030d0:	781a      	ldrb	r2, [r3, #0]
100030d2:	3501      	adds	r5, #1
100030d4:	b2ed      	uxtb	r5, r5
100030d6:	1c51      	adds	r1, r2, #1
100030d8:	002b      	movs	r3, r5
100030da:	428d      	cmp	r5, r1
100030dc:	dc2e      	bgt.n	1000313c <tud_task_ext+0x734>
100030de:	4295      	cmp	r5, r2
100030e0:	d3ec      	bcc.n	100030bc <tud_task_ext+0x6b4>
100030e2:	1a9b      	subs	r3, r3, r2
100030e4:	9a04      	ldr	r2, [sp, #16]
100030e6:	015b      	lsls	r3, r3, #5
100030e8:	4694      	mov	ip, r2
100030ea:	4463      	add	r3, ip
100030ec:	e7ec      	b.n	100030c8 <tud_task_ext+0x6c0>
100030ee:	ab0c      	add	r3, sp, #48	@ 0x30
100030f0:	1c9a      	adds	r2, r3, #2
100030f2:	4658      	mov	r0, fp
100030f4:	2301      	movs	r3, #1
100030f6:	a90e      	add	r1, sp, #56	@ 0x38
100030f8:	7015      	strb	r5, [r2, #0]
100030fa:	f000 f951 	bl	100033a0 <tud_control_xfer>
100030fe:	e499      	b.n	10002a34 <tud_task_ext+0x2c>
10003100:	9a0b      	ldr	r2, [sp, #44]	@ 0x2c
10003102:	2a01      	cmp	r2, #1
10003104:	d04f      	beq.n	100031a6 <tud_task_ext+0x79e>
10003106:	2a00      	cmp	r2, #0
10003108:	d03c      	beq.n	10003184 <tud_task_ext+0x77c>
1000310a:	2300      	movs	r3, #0
1000310c:	78b0      	ldrb	r0, [r6, #2]
1000310e:	e004      	b.n	1000311a <tud_task_ext+0x712>
10003110:	3301      	adds	r3, #1
10003112:	b2db      	uxtb	r3, r3
10003114:	710f      	strb	r7, [r1, #4]
10003116:	4293      	cmp	r3, r2
10003118:	d234      	bcs.n	10003184 <tud_task_ext+0x77c>
1000311a:	18c1      	adds	r1, r0, r3
1000311c:	b2c9      	uxtb	r1, r1
1000311e:	4441      	add	r1, r8
10003120:	790d      	ldrb	r5, [r1, #4]
10003122:	2dff      	cmp	r5, #255	@ 0xff
10003124:	d0f4      	beq.n	10003110 <tud_task_ext+0x708>
10003126:	464e      	mov	r6, r9
10003128:	4645      	mov	r5, r8
1000312a:	4657      	mov	r7, sl
1000312c:	2300      	movs	r3, #0
1000312e:	706b      	strb	r3, [r5, #1]
10003130:	e5ec      	b.n	10002d0c <tud_task_ext+0x304>
10003132:	464e      	mov	r6, r9
10003134:	4657      	mov	r7, sl
10003136:	f7ff fbdd 	bl	100028f4 <tud_mount_cb>
1000313a:	e63e      	b.n	10002dba <tud_task_ext+0x3b2>
1000313c:	4655      	mov	r5, sl
1000313e:	2254      	movs	r2, #84	@ 0x54
10003140:	2100      	movs	r1, #0
10003142:	0028      	movs	r0, r5
10003144:	f7fe fcdc 	bl	10001b00 <__wrap_memset>
10003148:	2210      	movs	r2, #16
1000314a:	21ff      	movs	r1, #255	@ 0xff
1000314c:	1d28      	adds	r0, r5, #4
1000314e:	f7fe fcd7 	bl	10001b00 <__wrap_memset>
10003152:	0028      	movs	r0, r5
10003154:	2220      	movs	r2, #32
10003156:	21ff      	movs	r1, #255	@ 0xff
10003158:	3014      	adds	r0, #20
1000315a:	f7fe fcd1 	bl	10001b00 <__wrap_memset>
1000315e:	9b03      	ldr	r3, [sp, #12]
10003160:	70ab      	strb	r3, [r5, #2]
10003162:	e657      	b.n	10002e14 <tud_task_ext+0x40c>
10003164:	4655      	mov	r5, sl
10003166:	e7fa      	b.n	1000315e <tud_task_ext+0x756>
10003168:	f7fe feb6 	bl	10001ed8 <tud_descriptor_bos_cb>
1000316c:	1e02      	subs	r2, r0, #0
1000316e:	d100      	bne.n	10003172 <tud_task_ext+0x76a>
10003170:	e5cc      	b.n	10002d0c <tud_task_ext+0x304>
10003172:	78d3      	ldrb	r3, [r2, #3]
10003174:	7891      	ldrb	r1, [r2, #2]
10003176:	021b      	lsls	r3, r3, #8
10003178:	430b      	orrs	r3, r1
1000317a:	4658      	mov	r0, fp
1000317c:	a90e      	add	r1, sp, #56	@ 0x38
1000317e:	f000 f90f 	bl	100033a0 <tud_control_xfer>
10003182:	e5d4      	b.n	10002d2e <tud_task_ext+0x326>
10003184:	4665      	mov	r5, ip
10003186:	003b      	movs	r3, r7
10003188:	002a      	movs	r2, r5
1000318a:	0031      	movs	r1, r6
1000318c:	980a      	ldr	r0, [sp, #40]	@ 0x28
1000318e:	f000 fe7d 	bl	10003e8c <tu_edpt_bind_driver>
10003192:	46ac      	mov	ip, r5
10003194:	9b04      	ldr	r3, [sp, #16]
10003196:	9a03      	ldr	r2, [sp, #12]
10003198:	781b      	ldrb	r3, [r3, #0]
1000319a:	4466      	add	r6, ip
1000319c:	3301      	adds	r3, #1
1000319e:	4293      	cmp	r3, r2
100031a0:	db00      	blt.n	100031a4 <tud_task_ext+0x79c>
100031a2:	e66c      	b.n	10002e7e <tud_task_ext+0x476>
100031a4:	e7bf      	b.n	10003126 <tud_task_ext+0x71e>
100031a6:	4b17      	ldr	r3, [pc, #92]	@ (10003204 <tud_task_ext+0x7fc>)
100031a8:	6929      	ldr	r1, [r5, #16]
100031aa:	4299      	cmp	r1, r3
100031ac:	d1ad      	bne.n	1000310a <tud_task_ext+0x702>
100031ae:	9a07      	ldr	r2, [sp, #28]
100031b0:	e7ab      	b.n	1000310a <tud_task_ext+0x702>
100031b2:	f7ff fb9b 	bl	100028ec <tud_descriptor_device_qualifier_cb>
100031b6:	1e02      	subs	r2, r0, #0
100031b8:	d100      	bne.n	100031bc <tud_task_ext+0x7b4>
100031ba:	e5a7      	b.n	10002d0c <tud_task_ext+0x304>
100031bc:	4658      	mov	r0, fp
100031be:	7813      	ldrb	r3, [r2, #0]
100031c0:	a90e      	add	r1, sp, #56	@ 0x38
100031c2:	f000 f8ed 	bl	100033a0 <tud_control_xfer>
100031c6:	e5b2      	b.n	10002d2e <tud_task_ext+0x326>
100031c8:	8921      	ldrh	r1, [r4, #8]
100031ca:	f7ff f8d7 	bl	1000237c <tud_descriptor_string_cb>
100031ce:	1e02      	subs	r2, r0, #0
100031d0:	d1f4      	bne.n	100031bc <tud_task_ext+0x7b4>
100031d2:	e59b      	b.n	10002d0c <tud_task_ext+0x304>
100031d4:	2a02      	cmp	r2, #2
100031d6:	d00f      	beq.n	100031f8 <tud_task_ext+0x7f0>
100031d8:	f7ff fb8a 	bl	100028f0 <tud_descriptor_other_speed_configuration_cb>
100031dc:	1e02      	subs	r2, r0, #0
100031de:	d1c8      	bne.n	10003172 <tud_task_ext+0x76a>
100031e0:	e594      	b.n	10002d0c <tud_task_ext+0x304>
100031e2:	f7ff f8c3 	bl	1000236c <tud_descriptor_device_cb>
100031e6:	1e02      	subs	r2, r0, #0
100031e8:	d100      	bne.n	100031ec <tud_task_ext+0x7e4>
100031ea:	e58f      	b.n	10002d0c <tud_task_ext+0x304>
100031ec:	2312      	movs	r3, #18
100031ee:	4658      	mov	r0, fp
100031f0:	a90e      	add	r1, sp, #56	@ 0x38
100031f2:	f000 f8d5 	bl	100033a0 <tud_control_xfer>
100031f6:	e59a      	b.n	10002d2e <tud_task_ext+0x326>
100031f8:	f7ff f8bc 	bl	10002374 <tud_descriptor_configuration_cb>
100031fc:	1e02      	subs	r2, r0, #0
100031fe:	d1b8      	bne.n	10003172 <tud_task_ext+0x76a>
10003200:	e584      	b.n	10002d0c <tud_task_ext+0x304>
10003202:	46c0      	nop			@ (mov r8, r8)
10003204:	1000387d 	.word	0x1000387d

10003208 <usbd_open_edpt_pair>:
10003208:	b5f8      	push	{r3, r4, r5, r6, r7, lr}
1000320a:	4657      	mov	r7, sl
1000320c:	464e      	mov	r6, r9
1000320e:	46de      	mov	lr, fp
10003210:	4645      	mov	r5, r8
10003212:	000c      	movs	r4, r1
10003214:	b5e0      	push	{r5, r6, r7, lr}
10003216:	0016      	movs	r6, r2
10003218:	001f      	movs	r7, r3
1000321a:	2a00      	cmp	r2, #0
1000321c:	d03c      	beq.n	10003298 <usbd_open_edpt_pair+0x90>
1000321e:	4b1f      	ldr	r3, [pc, #124]	@ (1000329c <usbd_open_edpt_pair+0x94>)
10003220:	2500      	movs	r5, #0
10003222:	469a      	mov	sl, r3
10003224:	2370      	movs	r3, #112	@ 0x70
10003226:	4699      	mov	r9, r3
10003228:	4b1d      	ldr	r3, [pc, #116]	@ (100032a0 <usbd_open_edpt_pair+0x98>)
1000322a:	469b      	mov	fp, r3
1000322c:	e017      	b.n	1000325e <usbd_open_edpt_pair+0x56>
1000322e:	465b      	mov	r3, fp
10003230:	0020      	movs	r0, r4
10003232:	7899      	ldrb	r1, [r3, #2]
10003234:	f000 fdec 	bl	10003e10 <tu_edpt_validate>
10003238:	2800      	cmp	r0, #0
1000323a:	d01f      	beq.n	1000327c <usbd_open_edpt_pair+0x74>
1000323c:	0021      	movs	r1, r4
1000323e:	4640      	mov	r0, r8
10003240:	f7ff fa44 	bl	100026cc <dcd_edpt_open>
10003244:	2800      	cmp	r0, #0
10003246:	d019      	beq.n	1000327c <usbd_open_edpt_pair+0x74>
10003248:	78a3      	ldrb	r3, [r4, #2]
1000324a:	09da      	lsrs	r2, r3, #7
1000324c:	2a01      	cmp	r2, #1
1000324e:	d01c      	beq.n	1000328a <usbd_open_edpt_pair+0x82>
10003250:	9a0a      	ldr	r2, [sp, #40]	@ 0x28
10003252:	3501      	adds	r5, #1
10003254:	7013      	strb	r3, [r2, #0]
10003256:	7823      	ldrb	r3, [r4, #0]
10003258:	18e4      	adds	r4, r4, r3
1000325a:	42b5      	cmp	r5, r6
1000325c:	da1c      	bge.n	10003298 <usbd_open_edpt_pair+0x90>
1000325e:	7863      	ldrb	r3, [r4, #1]
10003260:	2b05      	cmp	r3, #5
10003262:	d10b      	bne.n	1000327c <usbd_open_edpt_pair+0x74>
10003264:	78e3      	ldrb	r3, [r4, #3]
10003266:	079b      	lsls	r3, r3, #30
10003268:	0f9b      	lsrs	r3, r3, #30
1000326a:	42bb      	cmp	r3, r7
1000326c:	d106      	bne.n	1000327c <usbd_open_edpt_pair+0x74>
1000326e:	4653      	mov	r3, sl
10003270:	464a      	mov	r2, r9
10003272:	781b      	ldrb	r3, [r3, #0]
10003274:	4698      	mov	r8, r3
10003276:	78a3      	ldrb	r3, [r4, #2]
10003278:	421a      	tst	r2, r3
1000327a:	d0d8      	beq.n	1000322e <usbd_open_edpt_pair+0x26>
1000327c:	2000      	movs	r0, #0
1000327e:	bcf0      	pop	{r4, r5, r6, r7}
10003280:	46bb      	mov	fp, r7
10003282:	46b2      	mov	sl, r6
10003284:	46a9      	mov	r9, r5
10003286:	46a0      	mov	r8, r4
10003288:	bdf8      	pop	{r3, r4, r5, r6, r7, pc}
1000328a:	9a0b      	ldr	r2, [sp, #44]	@ 0x2c
1000328c:	3501      	adds	r5, #1
1000328e:	7013      	strb	r3, [r2, #0]
10003290:	7823      	ldrb	r3, [r4, #0]
10003292:	18e4      	adds	r4, r4, r3
10003294:	42b5      	cmp	r5, r6
10003296:	dbe2      	blt.n	1000325e <usbd_open_edpt_pair+0x56>
10003298:	2001      	movs	r0, #1
1000329a:	e7f0      	b.n	1000327e <usbd_open_edpt_pair+0x76>
1000329c:	20001054 	.word	0x20001054
100032a0:	20001614 	.word	0x20001614

100032a4 <usbd_edpt_open>:
100032a4:	2270      	movs	r2, #112	@ 0x70
100032a6:	b570      	push	{r4, r5, r6, lr}
100032a8:	4b09      	ldr	r3, [pc, #36]	@ (100032d0 <usbd_edpt_open+0x2c>)
100032aa:	000c      	movs	r4, r1
100032ac:	781d      	ldrb	r5, [r3, #0]
100032ae:	788b      	ldrb	r3, [r1, #2]
100032b0:	421a      	tst	r2, r3
100032b2:	d001      	beq.n	100032b8 <usbd_edpt_open+0x14>
100032b4:	2000      	movs	r0, #0
100032b6:	bd70      	pop	{r4, r5, r6, pc}
100032b8:	4b06      	ldr	r3, [pc, #24]	@ (100032d4 <usbd_edpt_open+0x30>)
100032ba:	0020      	movs	r0, r4
100032bc:	7899      	ldrb	r1, [r3, #2]
100032be:	f000 fda7 	bl	10003e10 <tu_edpt_validate>
100032c2:	2800      	cmp	r0, #0
100032c4:	d0f6      	beq.n	100032b4 <usbd_edpt_open+0x10>
100032c6:	0021      	movs	r1, r4
100032c8:	0028      	movs	r0, r5
100032ca:	f7ff f9ff 	bl	100026cc <dcd_edpt_open>
100032ce:	e7f2      	b.n	100032b6 <usbd_edpt_open+0x12>
100032d0:	20001054 	.word	0x20001054
100032d4:	20001614 	.word	0x20001614

100032d8 <usbd_edpt_claim>:
100032d8:	000b      	movs	r3, r1
100032da:	207f      	movs	r0, #127	@ 0x7f
100032dc:	b510      	push	{r4, lr}
100032de:	4018      	ands	r0, r3
100032e0:	09db      	lsrs	r3, r3, #7
100032e2:	3334      	adds	r3, #52	@ 0x34
100032e4:	0040      	lsls	r0, r0, #1
100032e6:	4a04      	ldr	r2, [pc, #16]	@ (100032f8 <usbd_edpt_claim+0x20>)
100032e8:	18c0      	adds	r0, r0, r3
100032ea:	4b04      	ldr	r3, [pc, #16]	@ (100032fc <usbd_edpt_claim+0x24>)
100032ec:	6811      	ldr	r1, [r2, #0]
100032ee:	18c0      	adds	r0, r0, r3
100032f0:	f000 fd4a 	bl	10003d88 <tu_edpt_claim>
100032f4:	bd10      	pop	{r4, pc}
100032f6:	46c0      	nop			@ (mov r8, r8)
100032f8:	20001668 	.word	0x20001668
100032fc:	20001614 	.word	0x20001614

10003300 <usbd_edpt_release>:
10003300:	000b      	movs	r3, r1
10003302:	207f      	movs	r0, #127	@ 0x7f
10003304:	b510      	push	{r4, lr}
10003306:	4018      	ands	r0, r3
10003308:	09db      	lsrs	r3, r3, #7
1000330a:	3334      	adds	r3, #52	@ 0x34
1000330c:	0040      	lsls	r0, r0, #1
1000330e:	4a04      	ldr	r2, [pc, #16]	@ (10003320 <usbd_edpt_release+0x20>)
10003310:	18c0      	adds	r0, r0, r3
10003312:	4b04      	ldr	r3, [pc, #16]	@ (10003324 <usbd_edpt_release+0x24>)
10003314:	6811      	ldr	r1, [r2, #0]
10003316:	18c0      	adds	r0, r0, r3
10003318:	f000 fd5e 	bl	10003dd8 <tu_edpt_release>
1000331c:	bd10      	pop	{r4, pc}
1000331e:	46c0      	nop			@ (mov r8, r8)
10003320:	20001668 	.word	0x20001668
10003324:	20001614 	.word	0x20001614

10003328 <usbd_edpt_xfer>:
10003328:	b570      	push	{r4, r5, r6, lr}
1000332a:	247f      	movs	r4, #127	@ 0x7f
1000332c:	480f      	ldr	r0, [pc, #60]	@ (1000336c <usbd_edpt_xfer+0x44>)
1000332e:	400c      	ands	r4, r1
10003330:	0064      	lsls	r4, r4, #1
10003332:	1904      	adds	r4, r0, r4
10003334:	09cd      	lsrs	r5, r1, #7
10003336:	1964      	adds	r4, r4, r5
10003338:	3430      	adds	r4, #48	@ 0x30
1000333a:	7920      	ldrb	r0, [r4, #4]
1000333c:	07c0      	lsls	r0, r0, #31
1000333e:	d501      	bpl.n	10003344 <usbd_edpt_xfer+0x1c>
10003340:	2000      	movs	r0, #0
10003342:	bd70      	pop	{r4, r5, r6, pc}
10003344:	2601      	movs	r6, #1
10003346:	7925      	ldrb	r5, [r4, #4]
10003348:	4809      	ldr	r0, [pc, #36]	@ (10003370 <usbd_edpt_xfer+0x48>)
1000334a:	4335      	orrs	r5, r6
1000334c:	7800      	ldrb	r0, [r0, #0]
1000334e:	7125      	strb	r5, [r4, #4]
10003350:	f7ff fa44 	bl	100027dc <dcd_edpt_xfer>
10003354:	2800      	cmp	r0, #0
10003356:	d1f4      	bne.n	10003342 <usbd_edpt_xfer+0x1a>
10003358:	2201      	movs	r2, #1
1000335a:	7923      	ldrb	r3, [r4, #4]
1000335c:	4393      	bics	r3, r2
1000335e:	7123      	strb	r3, [r4, #4]
10003360:	7923      	ldrb	r3, [r4, #4]
10003362:	3203      	adds	r2, #3
10003364:	4393      	bics	r3, r2
10003366:	7123      	strb	r3, [r4, #4]
10003368:	e7ea      	b.n	10003340 <usbd_edpt_xfer+0x18>
1000336a:	46c0      	nop			@ (mov r8, r8)
1000336c:	20001614 	.word	0x20001614
10003370:	20001054 	.word	0x20001054

10003374 <tud_control_status>:
10003374:	b570      	push	{r4, r5, r6, lr}
10003376:	4c09      	ldr	r4, [pc, #36]	@ (1000339c <tud_control_status+0x28>)
10003378:	0006      	movs	r6, r0
1000337a:	2208      	movs	r2, #8
1000337c:	0020      	movs	r0, r4
1000337e:	000d      	movs	r5, r1
10003380:	f7fe fbc4 	bl	10001b0c <__wrap___aeabi_memcpy>
10003384:	2300      	movs	r3, #0
10003386:	2180      	movs	r1, #128	@ 0x80
10003388:	60e3      	str	r3, [r4, #12]
1000338a:	60a3      	str	r3, [r4, #8]
1000338c:	782b      	ldrb	r3, [r5, #0]
1000338e:	0030      	movs	r0, r6
10003390:	4399      	bics	r1, r3
10003392:	2200      	movs	r2, #0
10003394:	2300      	movs	r3, #0
10003396:	f7ff ffc7 	bl	10003328 <usbd_edpt_xfer>
1000339a:	bd70      	pop	{r4, r5, r6, pc}
1000339c:	200015b8 	.word	0x200015b8

100033a0 <tud_control_xfer>:
100033a0:	b5f8      	push	{r3, r4, r5, r6, r7, lr}
100033a2:	46ce      	mov	lr, r9
100033a4:	4647      	mov	r7, r8
100033a6:	4690      	mov	r8, r2
100033a8:	4e26      	ldr	r6, [pc, #152]	@ (10003444 <tud_control_xfer+0xa4>)
100033aa:	b580      	push	{r7, lr}
100033ac:	4681      	mov	r9, r0
100033ae:	2208      	movs	r2, #8
100033b0:	0030      	movs	r0, r6
100033b2:	000d      	movs	r5, r1
100033b4:	001f      	movs	r7, r3
100033b6:	f7fe fba9 	bl	10001b0c <__wrap___aeabi_memcpy>
100033ba:	4643      	mov	r3, r8
100033bc:	60b3      	str	r3, [r6, #8]
100033be:	2300      	movs	r3, #0
100033c0:	81f3      	strh	r3, [r6, #14]
100033c2:	79ec      	ldrb	r4, [r5, #7]
100033c4:	79ab      	ldrb	r3, [r5, #6]
100033c6:	0224      	lsls	r4, r4, #8
100033c8:	431c      	orrs	r4, r3
100033ca:	1c23      	adds	r3, r4, #0
100033cc:	42bc      	cmp	r4, r7
100033ce:	d900      	bls.n	100033d2 <tud_control_xfer+0x32>
100033d0:	1c3b      	adds	r3, r7, #0
100033d2:	b29f      	uxth	r7, r3
100033d4:	81b3      	strh	r3, [r6, #12]
100033d6:	2c00      	cmp	r4, #0
100033d8:	d00e      	beq.n	100033f8 <tud_control_xfer+0x58>
100033da:	2f00      	cmp	r7, #0
100033dc:	d018      	beq.n	10003410 <tud_control_xfer+0x70>
100033de:	4643      	mov	r3, r8
100033e0:	2b00      	cmp	r3, #0
100033e2:	d02c      	beq.n	1000343e <tud_control_xfer+0x9e>
100033e4:	1c3b      	adds	r3, r7, #0
100033e6:	2f40      	cmp	r7, #64	@ 0x40
100033e8:	d81b      	bhi.n	10003422 <tud_control_xfer+0x82>
100033ea:	b29f      	uxth	r7, r3
100033ec:	7833      	ldrb	r3, [r6, #0]
100033ee:	2b7f      	cmp	r3, #127	@ 0x7f
100033f0:	d81c      	bhi.n	1000342c <tud_control_xfer+0x8c>
100033f2:	2100      	movs	r1, #0
100033f4:	4a14      	ldr	r2, [pc, #80]	@ (10003448 <tud_control_xfer+0xa8>)
100033f6:	e00f      	b.n	10003418 <tud_control_xfer+0x78>
100033f8:	2180      	movs	r1, #128	@ 0x80
100033fa:	782b      	ldrb	r3, [r5, #0]
100033fc:	2200      	movs	r2, #0
100033fe:	4399      	bics	r1, r3
10003400:	4648      	mov	r0, r9
10003402:	2300      	movs	r3, #0
10003404:	f7ff ff90 	bl	10003328 <usbd_edpt_xfer>
10003408:	bcc0      	pop	{r6, r7}
1000340a:	46b9      	mov	r9, r7
1000340c:	46b0      	mov	r8, r6
1000340e:	bdf8      	pop	{r3, r4, r5, r6, r7, pc}
10003410:	237f      	movs	r3, #127	@ 0x7f
10003412:	2200      	movs	r2, #0
10003414:	7831      	ldrb	r1, [r6, #0]
10003416:	4399      	bics	r1, r3
10003418:	003b      	movs	r3, r7
1000341a:	4648      	mov	r0, r9
1000341c:	f7ff ff84 	bl	10003328 <usbd_edpt_xfer>
10003420:	e7f2      	b.n	10003408 <tud_control_xfer+0x68>
10003422:	2340      	movs	r3, #64	@ 0x40
10003424:	b29f      	uxth	r7, r3
10003426:	7833      	ldrb	r3, [r6, #0]
10003428:	2b7f      	cmp	r3, #127	@ 0x7f
1000342a:	d9e2      	bls.n	100033f2 <tud_control_xfer+0x52>
1000342c:	4c06      	ldr	r4, [pc, #24]	@ (10003448 <tud_control_xfer+0xa8>)
1000342e:	003a      	movs	r2, r7
10003430:	4641      	mov	r1, r8
10003432:	0020      	movs	r0, r4
10003434:	f7fe fb6a 	bl	10001b0c <__wrap___aeabi_memcpy>
10003438:	2180      	movs	r1, #128	@ 0x80
1000343a:	0022      	movs	r2, r4
1000343c:	e7ec      	b.n	10003418 <tud_control_xfer+0x78>
1000343e:	2000      	movs	r0, #0
10003440:	e7e2      	b.n	10003408 <tud_control_xfer+0x68>
10003442:	46c0      	nop			@ (mov r8, r8)
10003444:	200015b8 	.word	0x200015b8
10003448:	200015d4 	.word	0x200015d4

1000344c <usbd_control_reset>:
1000344c:	b510      	push	{r4, lr}
1000344e:	2214      	movs	r2, #20
10003450:	2100      	movs	r1, #0
10003452:	4802      	ldr	r0, [pc, #8]	@ (1000345c <usbd_control_reset+0x10>)
10003454:	f7fe fb54 	bl	10001b00 <__wrap_memset>
10003458:	bd10      	pop	{r4, pc}
1000345a:	46c0      	nop			@ (mov r8, r8)
1000345c:	200015b8 	.word	0x200015b8

10003460 <usbd_control_set_complete_callback>:
10003460:	4b01      	ldr	r3, [pc, #4]	@ (10003468 <usbd_control_set_complete_callback+0x8>)
10003462:	6118      	str	r0, [r3, #16]
10003464:	4770      	bx	lr
10003466:	46c0      	nop			@ (mov r8, r8)
10003468:	200015b8 	.word	0x200015b8

1000346c <usbd_control_set_request>:
1000346c:	b510      	push	{r4, lr}
1000346e:	4c05      	ldr	r4, [pc, #20]	@ (10003484 <usbd_control_set_request+0x18>)
10003470:	0001      	movs	r1, r0
10003472:	2208      	movs	r2, #8
10003474:	0020      	movs	r0, r4
10003476:	f7fe fb49 	bl	10001b0c <__wrap___aeabi_memcpy>
1000347a:	2300      	movs	r3, #0
1000347c:	60a3      	str	r3, [r4, #8]
1000347e:	60e3      	str	r3, [r4, #12]
10003480:	bd10      	pop	{r4, pc}
10003482:	46c0      	nop			@ (mov r8, r8)
10003484:	200015b8 	.word	0x200015b8

10003488 <usbd_control_xfer_cb>:
10003488:	b570      	push	{r4, r5, r6, lr}
1000348a:	4c38      	ldr	r4, [pc, #224]	@ (1000356c <usbd_control_xfer_cb+0xe4>)
1000348c:	001d      	movs	r5, r3
1000348e:	7823      	ldrb	r3, [r4, #0]
10003490:	0006      	movs	r6, r0
10003492:	09da      	lsrs	r2, r3, #7
10003494:	09c9      	lsrs	r1, r1, #7
10003496:	428a      	cmp	r2, r1
10003498:	d010      	beq.n	100034bc <usbd_control_xfer_cb+0x34>
1000349a:	2000      	movs	r0, #0
1000349c:	2d00      	cmp	r5, #0
1000349e:	d000      	beq.n	100034a2 <usbd_control_xfer_cb+0x1a>
100034a0:	bd70      	pop	{r4, r5, r6, pc}
100034a2:	0021      	movs	r1, r4
100034a4:	0030      	movs	r0, r6
100034a6:	f7ff f903 	bl	100026b0 <dcd_edpt0_status_complete>
100034aa:	6923      	ldr	r3, [r4, #16]
100034ac:	2b00      	cmp	r3, #0
100034ae:	d003      	beq.n	100034b8 <usbd_control_xfer_cb+0x30>
100034b0:	0022      	movs	r2, r4
100034b2:	2103      	movs	r1, #3
100034b4:	0030      	movs	r0, r6
100034b6:	4798      	blx	r3
100034b8:	2001      	movs	r0, #1
100034ba:	e7f1      	b.n	100034a0 <usbd_control_xfer_cb+0x18>
100034bc:	68a0      	ldr	r0, [r4, #8]
100034be:	2b7f      	cmp	r3, #127	@ 0x7f
100034c0:	d805      	bhi.n	100034ce <usbd_control_xfer_cb+0x46>
100034c2:	2800      	cmp	r0, #0
100034c4:	d034      	beq.n	10003530 <usbd_control_xfer_cb+0xa8>
100034c6:	002a      	movs	r2, r5
100034c8:	4929      	ldr	r1, [pc, #164]	@ (10003570 <usbd_control_xfer_cb+0xe8>)
100034ca:	f7fe fb1f 	bl	10001b0c <__wrap___aeabi_memcpy>
100034ce:	89e2      	ldrh	r2, [r4, #14]
100034d0:	68a1      	ldr	r1, [r4, #8]
100034d2:	1952      	adds	r2, r2, r5
100034d4:	88e3      	ldrh	r3, [r4, #6]
100034d6:	b292      	uxth	r2, r2
100034d8:	1949      	adds	r1, r1, r5
100034da:	81e2      	strh	r2, [r4, #14]
100034dc:	60a1      	str	r1, [r4, #8]
100034de:	4293      	cmp	r3, r2
100034e0:	d014      	beq.n	1000350c <usbd_control_xfer_cb+0x84>
100034e2:	2d3f      	cmp	r5, #63	@ 0x3f
100034e4:	d912      	bls.n	1000350c <usbd_control_xfer_cb+0x84>
100034e6:	89a3      	ldrh	r3, [r4, #12]
100034e8:	1a98      	subs	r0, r3, r2
100034ea:	1c05      	adds	r5, r0, #0
100034ec:	b280      	uxth	r0, r0
100034ee:	2840      	cmp	r0, #64	@ 0x40
100034f0:	d82a      	bhi.n	10003548 <usbd_control_xfer_cb+0xc0>
100034f2:	7820      	ldrb	r0, [r4, #0]
100034f4:	b2ad      	uxth	r5, r5
100034f6:	287f      	cmp	r0, #127	@ 0x7f
100034f8:	d828      	bhi.n	1000354c <usbd_control_xfer_cb+0xc4>
100034fa:	2100      	movs	r1, #0
100034fc:	429a      	cmp	r2, r3
100034fe:	d032      	beq.n	10003566 <usbd_control_xfer_cb+0xde>
10003500:	4a1b      	ldr	r2, [pc, #108]	@ (10003570 <usbd_control_xfer_cb+0xe8>)
10003502:	002b      	movs	r3, r5
10003504:	0030      	movs	r0, r6
10003506:	f7ff ff0f 	bl	10003328 <usbd_edpt_xfer>
1000350a:	e7c9      	b.n	100034a0 <usbd_control_xfer_cb+0x18>
1000350c:	6923      	ldr	r3, [r4, #16]
1000350e:	2b00      	cmp	r3, #0
10003510:	d005      	beq.n	1000351e <usbd_control_xfer_cb+0x96>
10003512:	0022      	movs	r2, r4
10003514:	2102      	movs	r1, #2
10003516:	0030      	movs	r0, r6
10003518:	4798      	blx	r3
1000351a:	2800      	cmp	r0, #0
1000351c:	d00a      	beq.n	10003534 <usbd_control_xfer_cb+0xac>
1000351e:	2180      	movs	r1, #128	@ 0x80
10003520:	7823      	ldrb	r3, [r4, #0]
10003522:	2200      	movs	r2, #0
10003524:	4399      	bics	r1, r3
10003526:	0030      	movs	r0, r6
10003528:	2300      	movs	r3, #0
1000352a:	f7ff fefd 	bl	10003328 <usbd_edpt_xfer>
1000352e:	e7b7      	b.n	100034a0 <usbd_control_xfer_cb+0x18>
10003530:	2000      	movs	r0, #0
10003532:	e7b5      	b.n	100034a0 <usbd_control_xfer_cb+0x18>
10003534:	2100      	movs	r1, #0
10003536:	0030      	movs	r0, r6
10003538:	f7ff f962 	bl	10002800 <dcd_edpt_stall>
1000353c:	0030      	movs	r0, r6
1000353e:	2180      	movs	r1, #128	@ 0x80
10003540:	f7ff f95e 	bl	10002800 <dcd_edpt_stall>
10003544:	2001      	movs	r0, #1
10003546:	e7ab      	b.n	100034a0 <usbd_control_xfer_cb+0x18>
10003548:	2540      	movs	r5, #64	@ 0x40
1000354a:	e7d2      	b.n	100034f2 <usbd_control_xfer_cb+0x6a>
1000354c:	429a      	cmp	r2, r3
1000354e:	d007      	beq.n	10003560 <usbd_control_xfer_cb+0xd8>
10003550:	4c07      	ldr	r4, [pc, #28]	@ (10003570 <usbd_control_xfer_cb+0xe8>)
10003552:	002a      	movs	r2, r5
10003554:	0020      	movs	r0, r4
10003556:	f7fe fad9 	bl	10001b0c <__wrap___aeabi_memcpy>
1000355a:	2180      	movs	r1, #128	@ 0x80
1000355c:	0022      	movs	r2, r4
1000355e:	e7d0      	b.n	10003502 <usbd_control_xfer_cb+0x7a>
10003560:	2180      	movs	r1, #128	@ 0x80
10003562:	2200      	movs	r2, #0
10003564:	e7cd      	b.n	10003502 <usbd_control_xfer_cb+0x7a>
10003566:	2200      	movs	r2, #0
10003568:	e7cb      	b.n	10003502 <usbd_control_xfer_cb+0x7a>
1000356a:	46c0      	nop			@ (mov r8, r8)
1000356c:	200015b8 	.word	0x200015b8
10003570:	200015d4 	.word	0x200015d4

10003574 <_prep_out_transaction.isra.0>:
10003574:	b570      	push	{r4, r5, r6, lr}
10003576:	0004      	movs	r4, r0
10003578:	f7ff f9c4 	bl	10002904 <tud_mounted>
1000357c:	2800      	cmp	r0, #0
1000357e:	d100      	bne.n	10003582 <_prep_out_transaction.isra.0+0xe>
10003580:	bd70      	pop	{r4, r5, r6, pc}
10003582:	f7ff f9c7 	bl	10002914 <tud_suspended>
10003586:	2800      	cmp	r0, #0
10003588:	d1fa      	bne.n	10003580 <_prep_out_transaction.isra.0+0xc>
1000358a:	78e3      	ldrb	r3, [r4, #3]
1000358c:	2b00      	cmp	r3, #0
1000358e:	d0f7      	beq.n	10003580 <_prep_out_transaction.isra.0+0xc>
10003590:	0025      	movs	r5, r4
10003592:	3510      	adds	r5, #16
10003594:	0028      	movs	r0, r5
10003596:	f000 fdf3 	bl	10004180 <tu_fifo_remaining>
1000359a:	283f      	cmp	r0, #63	@ 0x3f
1000359c:	d9f0      	bls.n	10003580 <_prep_out_transaction.isra.0+0xc>
1000359e:	2000      	movs	r0, #0
100035a0:	78e1      	ldrb	r1, [r4, #3]
100035a2:	f7ff fe99 	bl	100032d8 <usbd_edpt_claim>
100035a6:	2800      	cmp	r0, #0
100035a8:	d0ea      	beq.n	10003580 <_prep_out_transaction.isra.0+0xc>
100035aa:	0028      	movs	r0, r5
100035ac:	f000 fde8 	bl	10004180 <tu_fifo_remaining>
100035b0:	283f      	cmp	r0, #63	@ 0x3f
100035b2:	d908      	bls.n	100035c6 <_prep_out_transaction.isra.0+0x52>
100035b4:	2392      	movs	r3, #146	@ 0x92
100035b6:	009b      	lsls	r3, r3, #2
100035b8:	18e2      	adds	r2, r4, r3
100035ba:	78e1      	ldrb	r1, [r4, #3]
100035bc:	2340      	movs	r3, #64	@ 0x40
100035be:	2000      	movs	r0, #0
100035c0:	f7ff feb2 	bl	10003328 <usbd_edpt_xfer>
100035c4:	e7dc      	b.n	10003580 <_prep_out_transaction.isra.0+0xc>
100035c6:	78e1      	ldrb	r1, [r4, #3]
100035c8:	2000      	movs	r0, #0
100035ca:	f7ff fe99 	bl	10003300 <usbd_edpt_release>
100035ce:	e7d7      	b.n	10003580 <_prep_out_transaction.isra.0+0xc>

100035d0 <tud_cdc_n_connected>:
100035d0:	b510      	push	{r4, lr}
100035d2:	0004      	movs	r4, r0
100035d4:	f7ff f996 	bl	10002904 <tud_mounted>
100035d8:	2800      	cmp	r0, #0
100035da:	d101      	bne.n	100035e0 <tud_cdc_n_connected+0x10>
100035dc:	2000      	movs	r0, #0
100035de:	bd10      	pop	{r4, pc}
100035e0:	f7ff f998 	bl	10002914 <tud_suspended>
100035e4:	2800      	cmp	r0, #0
100035e6:	d1f9      	bne.n	100035dc <tud_cdc_n_connected+0xc>
100035e8:	22b2      	movs	r2, #178	@ 0xb2
100035ea:	0092      	lsls	r2, r2, #2
100035ec:	4362      	muls	r2, r4
100035ee:	4b03      	ldr	r3, [pc, #12]	@ (100035fc <tud_cdc_n_connected+0x2c>)
100035f0:	3001      	adds	r0, #1
100035f2:	189b      	adds	r3, r3, r2
100035f4:	791b      	ldrb	r3, [r3, #4]
100035f6:	4018      	ands	r0, r3
100035f8:	e7f1      	b.n	100035de <tud_cdc_n_connected+0xe>
100035fa:	46c0      	nop			@ (mov r8, r8)
100035fc:	200012f0 	.word	0x200012f0

10003600 <tud_cdc_n_available>:
10003600:	23b2      	movs	r3, #178	@ 0xb2
10003602:	009b      	lsls	r3, r3, #2
10003604:	4343      	muls	r3, r0
10003606:	b510      	push	{r4, lr}
10003608:	4802      	ldr	r0, [pc, #8]	@ (10003614 <tud_cdc_n_available+0x14>)
1000360a:	1818      	adds	r0, r3, r0
1000360c:	f000 fd9a 	bl	10004144 <tu_fifo_count>
10003610:	bd10      	pop	{r4, pc}
10003612:	46c0      	nop			@ (mov r8, r8)
10003614:	20001300 	.word	0x20001300

10003618 <tud_cdc_n_read>:
10003618:	b5f0      	push	{r4, r5, r6, r7, lr}
1000361a:	26b2      	movs	r6, #178	@ 0xb2
1000361c:	00b6      	lsls	r6, r6, #2
1000361e:	4346      	muls	r6, r0
10003620:	0035      	movs	r5, r6
10003622:	46c6      	mov	lr, r8
10003624:	2380      	movs	r3, #128	@ 0x80
10003626:	4f20      	ldr	r7, [pc, #128]	@ (100036a8 <tud_cdc_n_read+0x90>)
10003628:	3510      	adds	r5, #16
1000362a:	0004      	movs	r4, r0
1000362c:	b500      	push	{lr}
1000362e:	197d      	adds	r5, r7, r5
10003630:	025b      	lsls	r3, r3, #9
10003632:	429a      	cmp	r2, r3
10003634:	d300      	bcc.n	10003638 <tud_cdc_n_read+0x20>
10003636:	4a1d      	ldr	r2, [pc, #116]	@ (100036ac <tud_cdc_n_read+0x94>)
10003638:	0028      	movs	r0, r5
1000363a:	b292      	uxth	r2, r2
1000363c:	f000 fe04 	bl	10004248 <tu_fifo_read_n>
10003640:	4680      	mov	r8, r0
10003642:	f7ff f95f 	bl	10002904 <tud_mounted>
10003646:	2800      	cmp	r0, #0
10003648:	d103      	bne.n	10003652 <tud_cdc_n_read+0x3a>
1000364a:	4640      	mov	r0, r8
1000364c:	bc80      	pop	{r7}
1000364e:	46b8      	mov	r8, r7
10003650:	bdf0      	pop	{r4, r5, r6, r7, pc}
10003652:	f7ff f95f 	bl	10002914 <tud_suspended>
10003656:	2800      	cmp	r0, #0
10003658:	d1f7      	bne.n	1000364a <tud_cdc_n_read+0x32>
1000365a:	23b2      	movs	r3, #178	@ 0xb2
1000365c:	009b      	lsls	r3, r3, #2
1000365e:	435c      	muls	r4, r3
10003660:	193c      	adds	r4, r7, r4
10003662:	78e3      	ldrb	r3, [r4, #3]
10003664:	2b00      	cmp	r3, #0
10003666:	d0f0      	beq.n	1000364a <tud_cdc_n_read+0x32>
10003668:	0028      	movs	r0, r5
1000366a:	f000 fd89 	bl	10004180 <tu_fifo_remaining>
1000366e:	283f      	cmp	r0, #63	@ 0x3f
10003670:	d9eb      	bls.n	1000364a <tud_cdc_n_read+0x32>
10003672:	2000      	movs	r0, #0
10003674:	78e1      	ldrb	r1, [r4, #3]
10003676:	f7ff fe2f 	bl	100032d8 <usbd_edpt_claim>
1000367a:	2800      	cmp	r0, #0
1000367c:	d0e5      	beq.n	1000364a <tud_cdc_n_read+0x32>
1000367e:	0028      	movs	r0, r5
10003680:	f000 fd7e 	bl	10004180 <tu_fifo_remaining>
10003684:	283f      	cmp	r0, #63	@ 0x3f
10003686:	d90a      	bls.n	1000369e <tud_cdc_n_read+0x86>
10003688:	2392      	movs	r3, #146	@ 0x92
1000368a:	009b      	lsls	r3, r3, #2
1000368c:	469c      	mov	ip, r3
1000368e:	4466      	add	r6, ip
10003690:	2340      	movs	r3, #64	@ 0x40
10003692:	78e1      	ldrb	r1, [r4, #3]
10003694:	19ba      	adds	r2, r7, r6
10003696:	2000      	movs	r0, #0
10003698:	f7ff fe46 	bl	10003328 <usbd_edpt_xfer>
1000369c:	e7d5      	b.n	1000364a <tud_cdc_n_read+0x32>
1000369e:	78e1      	ldrb	r1, [r4, #3]
100036a0:	2000      	movs	r0, #0
100036a2:	f7ff fe2d 	bl	10003300 <usbd_edpt_release>
100036a6:	e7d0      	b.n	1000364a <tud_cdc_n_read+0x32>
100036a8:	200012f0 	.word	0x200012f0
100036ac:	0000ffff 	.word	0x0000ffff

100036b0 <tud_cdc_n_write_flush>:
100036b0:	b5f8      	push	{r3, r4, r5, r6, r7, lr}
100036b2:	0004      	movs	r4, r0
100036b4:	f7ff f926 	bl	10002904 <tud_mounted>
100036b8:	2800      	cmp	r0, #0
100036ba:	d101      	bne.n	100036c0 <tud_cdc_n_write_flush+0x10>
100036bc:	2000      	movs	r0, #0
100036be:	bdf8      	pop	{r3, r4, r5, r6, r7, pc}
100036c0:	f7ff f928 	bl	10002914 <tud_suspended>
100036c4:	2800      	cmp	r0, #0
100036c6:	d1f9      	bne.n	100036bc <tud_cdc_n_write_flush+0xc>
100036c8:	23b2      	movs	r3, #178	@ 0xb2
100036ca:	009b      	lsls	r3, r3, #2
100036cc:	435c      	muls	r4, r3
100036ce:	0025      	movs	r5, r4
100036d0:	4e14      	ldr	r6, [pc, #80]	@ (10003724 <tud_cdc_n_write_flush+0x74>)
100036d2:	3524      	adds	r5, #36	@ 0x24
100036d4:	19ad      	adds	r5, r5, r6
100036d6:	0028      	movs	r0, r5
100036d8:	f000 fd34 	bl	10004144 <tu_fifo_count>
100036dc:	2800      	cmp	r0, #0
100036de:	d0ed      	beq.n	100036bc <tud_cdc_n_write_flush+0xc>
100036e0:	1937      	adds	r7, r6, r4
100036e2:	2000      	movs	r0, #0
100036e4:	78b9      	ldrb	r1, [r7, #2]
100036e6:	f7ff fdf7 	bl	100032d8 <usbd_edpt_claim>
100036ea:	2800      	cmp	r0, #0
100036ec:	d0e6      	beq.n	100036bc <tud_cdc_n_write_flush+0xc>
100036ee:	23a2      	movs	r3, #162	@ 0xa2
100036f0:	009b      	lsls	r3, r3, #2
100036f2:	469c      	mov	ip, r3
100036f4:	4464      	add	r4, ip
100036f6:	19a4      	adds	r4, r4, r6
100036f8:	0021      	movs	r1, r4
100036fa:	0028      	movs	r0, r5
100036fc:	2240      	movs	r2, #64	@ 0x40
100036fe:	f000 fda3 	bl	10004248 <tu_fifo_read_n>
10003702:	78b9      	ldrb	r1, [r7, #2]
10003704:	1e05      	subs	r5, r0, #0
10003706:	d008      	beq.n	1000371a <tud_cdc_n_write_flush+0x6a>
10003708:	0003      	movs	r3, r0
1000370a:	0022      	movs	r2, r4
1000370c:	2000      	movs	r0, #0
1000370e:	f7ff fe0b 	bl	10003328 <usbd_edpt_xfer>
10003712:	2800      	cmp	r0, #0
10003714:	d0d2      	beq.n	100036bc <tud_cdc_n_write_flush+0xc>
10003716:	0028      	movs	r0, r5
10003718:	e7d1      	b.n	100036be <tud_cdc_n_write_flush+0xe>
1000371a:	2000      	movs	r0, #0
1000371c:	f7ff fdf0 	bl	10003300 <usbd_edpt_release>
10003720:	e7cc      	b.n	100036bc <tud_cdc_n_write_flush+0xc>
10003722:	46c0      	nop			@ (mov r8, r8)
10003724:	200012f0 	.word	0x200012f0

10003728 <tud_cdc_n_write>:
10003728:	b570      	push	{r4, r5, r6, lr}
1000372a:	24b2      	movs	r4, #178	@ 0xb2
1000372c:	00a4      	lsls	r4, r4, #2
1000372e:	4344      	muls	r4, r0
10003730:	4b0b      	ldr	r3, [pc, #44]	@ (10003760 <tud_cdc_n_write+0x38>)
10003732:	0005      	movs	r5, r0
10003734:	18e4      	adds	r4, r4, r3
10003736:	2380      	movs	r3, #128	@ 0x80
10003738:	025b      	lsls	r3, r3, #9
1000373a:	429a      	cmp	r2, r3
1000373c:	d300      	bcc.n	10003740 <tud_cdc_n_write+0x18>
1000373e:	4a09      	ldr	r2, [pc, #36]	@ (10003764 <tud_cdc_n_write+0x3c>)
10003740:	0020      	movs	r0, r4
10003742:	b292      	uxth	r2, r2
10003744:	f000 fe48 	bl	100043d8 <tu_fifo_write_n>
10003748:	0006      	movs	r6, r0
1000374a:	0020      	movs	r0, r4
1000374c:	f000 fcfa 	bl	10004144 <tu_fifo_count>
10003750:	283f      	cmp	r0, #63	@ 0x3f
10003752:	d801      	bhi.n	10003758 <tud_cdc_n_write+0x30>
10003754:	0030      	movs	r0, r6
10003756:	bd70      	pop	{r4, r5, r6, pc}
10003758:	0028      	movs	r0, r5
1000375a:	f7ff ffa9 	bl	100036b0 <tud_cdc_n_write_flush>
1000375e:	e7f9      	b.n	10003754 <tud_cdc_n_write+0x2c>
10003760:	20001314 	.word	0x20001314
10003764:	0000ffff 	.word	0x0000ffff

10003768 <tud_cdc_n_write_available>:
10003768:	23b2      	movs	r3, #178	@ 0xb2
1000376a:	009b      	lsls	r3, r3, #2
1000376c:	4343      	muls	r3, r0
1000376e:	b510      	push	{r4, lr}
10003770:	4802      	ldr	r0, [pc, #8]	@ (1000377c <tud_cdc_n_write_available+0x14>)
10003772:	1818      	adds	r0, r3, r0
10003774:	f000 fd04 	bl	10004180 <tu_fifo_remaining>
10003778:	bd10      	pop	{r4, pc}
1000377a:	46c0      	nop			@ (mov r8, r8)
1000377c:	20001314 	.word	0x20001314

10003780 <cdcd_init>:
10003780:	22b2      	movs	r2, #178	@ 0xb2
10003782:	b5f0      	push	{r4, r5, r6, r7, lr}
10003784:	2500      	movs	r5, #0
10003786:	4c1b      	ldr	r4, [pc, #108]	@ (100037f4 <cdcd_init+0x74>)
10003788:	b083      	sub	sp, #12
1000378a:	2100      	movs	r1, #0
1000378c:	0020      	movs	r0, r4
1000378e:	0092      	lsls	r2, r2, #2
10003790:	f7fe f9b6 	bl	10001b00 <__wrap_memset>
10003794:	4b18      	ldr	r3, [pc, #96]	@ (100037f8 <cdcd_init+0x78>)
10003796:	2680      	movs	r6, #128	@ 0x80
10003798:	701d      	strb	r5, [r3, #0]
1000379a:	23ff      	movs	r3, #255	@ 0xff
1000379c:	7163      	strb	r3, [r4, #5]
1000379e:	23e1      	movs	r3, #225	@ 0xe1
100037a0:	025b      	lsls	r3, r3, #9
100037a2:	60a3      	str	r3, [r4, #8]
100037a4:	0021      	movs	r1, r4
100037a6:	2308      	movs	r3, #8
100037a8:	0020      	movs	r0, r4
100037aa:	0076      	lsls	r6, r6, #1
100037ac:	73a3      	strb	r3, [r4, #14]
100037ae:	0032      	movs	r2, r6
100037b0:	3138      	adds	r1, #56	@ 0x38
100037b2:	9500      	str	r5, [sp, #0]
100037b4:	3b07      	subs	r3, #7
100037b6:	3010      	adds	r0, #16
100037b8:	f000 fc8e 	bl	100040d8 <tu_fifo_config>
100037bc:	0021      	movs	r1, r4
100037be:	2301      	movs	r3, #1
100037c0:	0020      	movs	r0, r4
100037c2:	3139      	adds	r1, #57	@ 0x39
100037c4:	0032      	movs	r2, r6
100037c6:	31ff      	adds	r1, #255	@ 0xff
100037c8:	9300      	str	r3, [sp, #0]
100037ca:	3024      	adds	r0, #36	@ 0x24
100037cc:	f000 fc84 	bl	100040d8 <tu_fifo_config>
100037d0:	238e      	movs	r3, #142	@ 0x8e
100037d2:	009b      	lsls	r3, r3, #2
100037d4:	18e7      	adds	r7, r4, r3
100037d6:	0038      	movs	r0, r7
100037d8:	f7fd f984 	bl	10000ae4 <mutex_init>
100037dc:	2390      	movs	r3, #144	@ 0x90
100037de:	009b      	lsls	r3, r3, #2
100037e0:	18e6      	adds	r6, r4, r3
100037e2:	0030      	movs	r0, r6
100037e4:	f7fd f97e 	bl	10000ae4 <mutex_init>
100037e8:	61e5      	str	r5, [r4, #28]
100037ea:	6227      	str	r7, [r4, #32]
100037ec:	6326      	str	r6, [r4, #48]	@ 0x30
100037ee:	6365      	str	r5, [r4, #52]	@ 0x34
100037f0:	b003      	add	sp, #12
100037f2:	bdf0      	pop	{r4, r5, r6, r7, pc}
100037f4:	200012f0 	.word	0x200012f0
100037f8:	200012ec 	.word	0x200012ec

100037fc <cdcd_deinit>:
100037fc:	4b0b      	ldr	r3, [pc, #44]	@ (1000382c <cdcd_deinit+0x30>)
100037fe:	6b19      	ldr	r1, [r3, #48]	@ 0x30
10003800:	2900      	cmp	r1, #0
10003802:	d00a      	beq.n	1000381a <cdcd_deinit+0x1e>
10003804:	6a1a      	ldr	r2, [r3, #32]
10003806:	2a00      	cmp	r2, #0
10003808:	d00d      	beq.n	10003826 <cdcd_deinit+0x2a>
1000380a:	2200      	movs	r2, #0
1000380c:	621a      	str	r2, [r3, #32]
1000380e:	631a      	str	r2, [r3, #48]	@ 0x30
10003810:	61da      	str	r2, [r3, #28]
10003812:	2200      	movs	r2, #0
10003814:	635a      	str	r2, [r3, #52]	@ 0x34
10003816:	2001      	movs	r0, #1
10003818:	4770      	bx	lr
1000381a:	6a1a      	ldr	r2, [r3, #32]
1000381c:	2a00      	cmp	r2, #0
1000381e:	d0fa      	beq.n	10003816 <cdcd_deinit+0x1a>
10003820:	61d9      	str	r1, [r3, #28]
10003822:	6219      	str	r1, [r3, #32]
10003824:	e7f7      	b.n	10003816 <cdcd_deinit+0x1a>
10003826:	631a      	str	r2, [r3, #48]	@ 0x30
10003828:	e7f3      	b.n	10003812 <cdcd_deinit+0x16>
1000382a:	46c0      	nop			@ (mov r8, r8)
1000382c:	200012f0 	.word	0x200012f0

10003830 <cdcd_reset>:
10003830:	b570      	push	{r4, r5, r6, lr}
10003832:	4c0f      	ldr	r4, [pc, #60]	@ (10003870 <cdcd_reset+0x40>)
10003834:	2205      	movs	r2, #5
10003836:	2100      	movs	r1, #0
10003838:	0020      	movs	r0, r4
1000383a:	f7fe f961 	bl	10001b00 <__wrap_memset>
1000383e:	4d0d      	ldr	r5, [pc, #52]	@ (10003874 <cdcd_reset+0x44>)
10003840:	782b      	ldrb	r3, [r5, #0]
10003842:	07da      	lsls	r2, r3, #31
10003844:	d507      	bpl.n	10003856 <cdcd_reset+0x26>
10003846:	4c0c      	ldr	r4, [pc, #48]	@ (10003878 <cdcd_reset+0x48>)
10003848:	079b      	lsls	r3, r3, #30
1000384a:	d50c      	bpl.n	10003866 <cdcd_reset+0x36>
1000384c:	2101      	movs	r1, #1
1000384e:	0020      	movs	r0, r4
10003850:	f000 fe9e 	bl	10004590 <tu_fifo_set_overwritable>
10003854:	bd70      	pop	{r4, r5, r6, pc}
10003856:	0020      	movs	r0, r4
10003858:	3010      	adds	r0, #16
1000385a:	f000 fe79 	bl	10004550 <tu_fifo_clear>
1000385e:	782b      	ldrb	r3, [r5, #0]
10003860:	4c05      	ldr	r4, [pc, #20]	@ (10003878 <cdcd_reset+0x48>)
10003862:	079b      	lsls	r3, r3, #30
10003864:	d4f2      	bmi.n	1000384c <cdcd_reset+0x1c>
10003866:	0020      	movs	r0, r4
10003868:	f000 fe72 	bl	10004550 <tu_fifo_clear>
1000386c:	e7ee      	b.n	1000384c <cdcd_reset+0x1c>
1000386e:	46c0      	nop			@ (mov r8, r8)
10003870:	200012f0 	.word	0x200012f0
10003874:	200012ec 	.word	0x200012ec
10003878:	20001314 	.word	0x20001314

1000387c <cdcd_open>:
1000387c:	b5f0      	push	{r4, r5, r6, r7, lr}
1000387e:	46c6      	mov	lr, r8
10003880:	b500      	push	{lr}
10003882:	794b      	ldrb	r3, [r1, #5]
10003884:	0006      	movs	r6, r0
10003886:	b082      	sub	sp, #8
10003888:	2b02      	cmp	r3, #2
1000388a:	d102      	bne.n	10003892 <cdcd_open+0x16>
1000388c:	798b      	ldrb	r3, [r1, #6]
1000388e:	2b02      	cmp	r3, #2
10003890:	d005      	beq.n	1000389e <cdcd_open+0x22>
10003892:	2500      	movs	r5, #0
10003894:	0028      	movs	r0, r5
10003896:	b002      	add	sp, #8
10003898:	bc80      	pop	{r7}
1000389a:	46b8      	mov	r8, r7
1000389c:	bdf0      	pop	{r4, r5, r6, r7, pc}
1000389e:	4f21      	ldr	r7, [pc, #132]	@ (10003924 <cdcd_open+0xa8>)
100038a0:	78bb      	ldrb	r3, [r7, #2]
100038a2:	2b00      	cmp	r3, #0
100038a4:	d1f5      	bne.n	10003892 <cdcd_open+0x16>
100038a6:	788b      	ldrb	r3, [r1, #2]
100038a8:	2509      	movs	r5, #9
100038aa:	703b      	strb	r3, [r7, #0]
100038ac:	780c      	ldrb	r4, [r1, #0]
100038ae:	190c      	adds	r4, r1, r4
100038b0:	7863      	ldrb	r3, [r4, #1]
100038b2:	2b24      	cmp	r3, #36	@ 0x24
100038b4:	d10b      	bne.n	100038ce <cdcd_open+0x52>
100038b6:	2a08      	cmp	r2, #8
100038b8:	d802      	bhi.n	100038c0 <cdcd_open+0x44>
100038ba:	e021      	b.n	10003900 <cdcd_open+0x84>
100038bc:	42aa      	cmp	r2, r5
100038be:	d31f      	bcc.n	10003900 <cdcd_open+0x84>
100038c0:	7823      	ldrb	r3, [r4, #0]
100038c2:	18e4      	adds	r4, r4, r3
100038c4:	195d      	adds	r5, r3, r5
100038c6:	7863      	ldrb	r3, [r4, #1]
100038c8:	b2ad      	uxth	r5, r5
100038ca:	2b24      	cmp	r3, #36	@ 0x24
100038cc:	d0f6      	beq.n	100038bc <cdcd_open+0x40>
100038ce:	2b05      	cmp	r3, #5
100038d0:	d01a      	beq.n	10003908 <cdcd_open+0x8c>
100038d2:	2b04      	cmp	r3, #4
100038d4:	d114      	bne.n	10003900 <cdcd_open+0x84>
100038d6:	7963      	ldrb	r3, [r4, #5]
100038d8:	2b0a      	cmp	r3, #10
100038da:	d111      	bne.n	10003900 <cdcd_open+0x84>
100038dc:	7823      	ldrb	r3, [r4, #0]
100038de:	0021      	movs	r1, r4
100038e0:	4698      	mov	r8, r3
100038e2:	4b11      	ldr	r3, [pc, #68]	@ (10003928 <cdcd_open+0xac>)
100038e4:	2202      	movs	r2, #2
100038e6:	9301      	str	r3, [sp, #4]
100038e8:	3301      	adds	r3, #1
100038ea:	9300      	str	r3, [sp, #0]
100038ec:	0030      	movs	r0, r6
100038ee:	2302      	movs	r3, #2
100038f0:	4441      	add	r1, r8
100038f2:	f7ff fc89 	bl	10003208 <usbd_open_edpt_pair>
100038f6:	2800      	cmp	r0, #0
100038f8:	d0cb      	beq.n	10003892 <cdcd_open+0x16>
100038fa:	350e      	adds	r5, #14
100038fc:	4445      	add	r5, r8
100038fe:	b2ad      	uxth	r5, r5
10003900:	0038      	movs	r0, r7
10003902:	f7ff fe37 	bl	10003574 <_prep_out_transaction.isra.0>
10003906:	e7c5      	b.n	10003894 <cdcd_open+0x18>
10003908:	0021      	movs	r1, r4
1000390a:	0030      	movs	r0, r6
1000390c:	f7ff fcca 	bl	100032a4 <usbd_edpt_open>
10003910:	2800      	cmp	r0, #0
10003912:	d0be      	beq.n	10003892 <cdcd_open+0x16>
10003914:	78a3      	ldrb	r3, [r4, #2]
10003916:	707b      	strb	r3, [r7, #1]
10003918:	7823      	ldrb	r3, [r4, #0]
1000391a:	195d      	adds	r5, r3, r5
1000391c:	18e4      	adds	r4, r4, r3
1000391e:	7863      	ldrb	r3, [r4, #1]
10003920:	b2ad      	uxth	r5, r5
10003922:	e7d6      	b.n	100038d2 <cdcd_open+0x56>
10003924:	200012f0 	.word	0x200012f0
10003928:	200012f2 	.word	0x200012f2

1000392c <cdcd_control_xfer_cb>:
1000392c:	b5f8      	push	{r3, r4, r5, r6, r7, lr}
1000392e:	2360      	movs	r3, #96	@ 0x60
10003930:	0014      	movs	r4, r2
10003932:	7812      	ldrb	r2, [r2, #0]
10003934:	0005      	movs	r5, r0
10003936:	4013      	ands	r3, r2
10003938:	2000      	movs	r0, #0
1000393a:	2b20      	cmp	r3, #32
1000393c:	d112      	bne.n	10003964 <cdcd_control_xfer_cb+0x38>
1000393e:	4a2f      	ldr	r2, [pc, #188]	@ (100039fc <cdcd_control_xfer_cb+0xd0>)
10003940:	7963      	ldrb	r3, [r4, #5]
10003942:	7927      	ldrb	r7, [r4, #4]
10003944:	7816      	ldrb	r6, [r2, #0]
10003946:	021b      	lsls	r3, r3, #8
10003948:	433b      	orrs	r3, r7
1000394a:	429e      	cmp	r6, r3
1000394c:	d10a      	bne.n	10003964 <cdcd_control_xfer_cb+0x38>
1000394e:	7863      	ldrb	r3, [r4, #1]
10003950:	2b22      	cmp	r3, #34	@ 0x22
10003952:	d01a      	beq.n	1000398a <cdcd_control_xfer_cb+0x5e>
10003954:	d807      	bhi.n	10003966 <cdcd_control_xfer_cb+0x3a>
10003956:	2b20      	cmp	r3, #32
10003958:	d03c      	beq.n	100039d4 <cdcd_control_xfer_cb+0xa8>
1000395a:	2b21      	cmp	r3, #33	@ 0x21
1000395c:	d102      	bne.n	10003964 <cdcd_control_xfer_cb+0x38>
1000395e:	2901      	cmp	r1, #1
10003960:	d030      	beq.n	100039c4 <cdcd_control_xfer_cb+0x98>
10003962:	2001      	movs	r0, #1
10003964:	bdf8      	pop	{r3, r4, r5, r6, r7, pc}
10003966:	2b23      	cmp	r3, #35	@ 0x23
10003968:	d1fc      	bne.n	10003964 <cdcd_control_xfer_cb+0x38>
1000396a:	2901      	cmp	r1, #1
1000396c:	d040      	beq.n	100039f0 <cdcd_control_xfer_cb+0xc4>
1000396e:	2903      	cmp	r1, #3
10003970:	d1f7      	bne.n	10003962 <cdcd_control_xfer_cb+0x36>
10003972:	4b23      	ldr	r3, [pc, #140]	@ (10003a00 <cdcd_control_xfer_cb+0xd4>)
10003974:	2b00      	cmp	r3, #0
10003976:	d0f4      	beq.n	10003962 <cdcd_control_xfer_cb+0x36>
10003978:	78e1      	ldrb	r1, [r4, #3]
1000397a:	78a3      	ldrb	r3, [r4, #2]
1000397c:	0209      	lsls	r1, r1, #8
1000397e:	2000      	movs	r0, #0
10003980:	4319      	orrs	r1, r3
10003982:	e000      	b.n	10003986 <cdcd_control_xfer_cb+0x5a>
10003984:	bf00      	nop
10003986:	2001      	movs	r0, #1
10003988:	e7ec      	b.n	10003964 <cdcd_control_xfer_cb+0x38>
1000398a:	2901      	cmp	r1, #1
1000398c:	d030      	beq.n	100039f0 <cdcd_control_xfer_cb+0xc4>
1000398e:	2903      	cmp	r1, #3
10003990:	d1e7      	bne.n	10003962 <cdcd_control_xfer_cb+0x36>
10003992:	2501      	movs	r5, #1
10003994:	002e      	movs	r6, r5
10003996:	78a3      	ldrb	r3, [r4, #2]
10003998:	78e4      	ldrb	r4, [r4, #3]
1000399a:	3902      	subs	r1, #2
1000399c:	0224      	lsls	r4, r4, #8
1000399e:	431c      	orrs	r4, r3
100039a0:	7114      	strb	r4, [r2, #4]
100039a2:	4026      	ands	r6, r4
100039a4:	3224      	adds	r2, #36	@ 0x24
100039a6:	0010      	movs	r0, r2
100039a8:	4071      	eors	r1, r6
100039aa:	f000 fdf1 	bl	10004590 <tu_fifo_set_overwritable>
100039ae:	4b15      	ldr	r3, [pc, #84]	@ (10003a04 <cdcd_control_xfer_cb+0xd8>)
100039b0:	2b00      	cmp	r3, #0
100039b2:	d0d6      	beq.n	10003962 <cdcd_control_xfer_cb+0x36>
100039b4:	0862      	lsrs	r2, r4, #1
100039b6:	2000      	movs	r0, #0
100039b8:	0031      	movs	r1, r6
100039ba:	402a      	ands	r2, r5
100039bc:	e000      	b.n	100039c0 <cdcd_control_xfer_cb+0x94>
100039be:	bf00      	nop
100039c0:	2001      	movs	r0, #1
100039c2:	e7cf      	b.n	10003964 <cdcd_control_xfer_cb+0x38>
100039c4:	2307      	movs	r3, #7
100039c6:	0021      	movs	r1, r4
100039c8:	0028      	movs	r0, r5
100039ca:	4a0f      	ldr	r2, [pc, #60]	@ (10003a08 <cdcd_control_xfer_cb+0xdc>)
100039cc:	f7ff fce8 	bl	100033a0 <tud_control_xfer>
100039d0:	2001      	movs	r0, #1
100039d2:	e7c7      	b.n	10003964 <cdcd_control_xfer_cb+0x38>
100039d4:	2901      	cmp	r1, #1
100039d6:	d0f5      	beq.n	100039c4 <cdcd_control_xfer_cb+0x98>
100039d8:	2903      	cmp	r1, #3
100039da:	d1c2      	bne.n	10003962 <cdcd_control_xfer_cb+0x36>
100039dc:	4b0b      	ldr	r3, [pc, #44]	@ (10003a0c <cdcd_control_xfer_cb+0xe0>)
100039de:	2b00      	cmp	r3, #0
100039e0:	d0bf      	beq.n	10003962 <cdcd_control_xfer_cb+0x36>
100039e2:	3208      	adds	r2, #8
100039e4:	2000      	movs	r0, #0
100039e6:	0011      	movs	r1, r2
100039e8:	f7fe fa9a 	bl	10001f20 <tud_cdc_line_coding_cb>
100039ec:	2001      	movs	r0, #1
100039ee:	e7b9      	b.n	10003964 <cdcd_control_xfer_cb+0x38>
100039f0:	0021      	movs	r1, r4
100039f2:	0028      	movs	r0, r5
100039f4:	f7ff fcbe 	bl	10003374 <tud_control_status>
100039f8:	2001      	movs	r0, #1
100039fa:	e7b3      	b.n	10003964 <cdcd_control_xfer_cb+0x38>
100039fc:	200012f0 	.word	0x200012f0
	...
10003a08:	200012f8 	.word	0x200012f8
10003a0c:	10001f21 	.word	0x10001f21

10003a10 <cdcd_xfer_cb>:
10003a10:	b5f0      	push	{r4, r5, r6, r7, lr}
10003a12:	464f      	mov	r7, r9
10003a14:	4646      	mov	r6, r8
10003a16:	46d6      	mov	lr, sl
10003a18:	4d37      	ldr	r5, [pc, #220]	@ (10003af8 <cdcd_xfer_cb+0xe8>)
10003a1a:	b5c0      	push	{r6, r7, lr}
10003a1c:	78ea      	ldrb	r2, [r5, #3]
10003a1e:	001f      	movs	r7, r3
10003a20:	4680      	mov	r8, r0
10003a22:	000c      	movs	r4, r1
10003a24:	78ab      	ldrb	r3, [r5, #2]
10003a26:	428a      	cmp	r2, r1
10003a28:	d03b      	beq.n	10003aa2 <cdcd_xfer_cb+0x92>
10003a2a:	428b      	cmp	r3, r1
10003a2c:	d010      	beq.n	10003a50 <cdcd_xfer_cb+0x40>
10003a2e:	2000      	movs	r0, #0
10003a30:	bce0      	pop	{r5, r6, r7}
10003a32:	46ba      	mov	sl, r7
10003a34:	46b1      	mov	r9, r6
10003a36:	46a8      	mov	r8, r5
10003a38:	bdf0      	pop	{r4, r5, r6, r7, pc}
10003a3a:	4b30      	ldr	r3, [pc, #192]	@ (10003afc <cdcd_xfer_cb+0xec>)
10003a3c:	2b00      	cmp	r3, #0
10003a3e:	d004      	beq.n	10003a4a <cdcd_xfer_cb+0x3a>
10003a40:	482f      	ldr	r0, [pc, #188]	@ (10003b00 <cdcd_xfer_cb+0xf0>)
10003a42:	f000 fb95 	bl	10004170 <tu_fifo_empty>
10003a46:	2800      	cmp	r0, #0
10003a48:	d053      	beq.n	10003af2 <cdcd_xfer_cb+0xe2>
10003a4a:	0028      	movs	r0, r5
10003a4c:	f7ff fd92 	bl	10003574 <_prep_out_transaction.isra.0>
10003a50:	78ab      	ldrb	r3, [r5, #2]
10003a52:	42a3      	cmp	r3, r4
10003a54:	d001      	beq.n	10003a5a <cdcd_xfer_cb+0x4a>
10003a56:	2001      	movs	r0, #1
10003a58:	e7ea      	b.n	10003a30 <cdcd_xfer_cb+0x20>
10003a5a:	4b2a      	ldr	r3, [pc, #168]	@ (10003b04 <cdcd_xfer_cb+0xf4>)
10003a5c:	2b00      	cmp	r3, #0
10003a5e:	d002      	beq.n	10003a66 <cdcd_xfer_cb+0x56>
10003a60:	2000      	movs	r0, #0
10003a62:	e000      	b.n	10003a66 <cdcd_xfer_cb+0x56>
10003a64:	bf00      	nop
10003a66:	2000      	movs	r0, #0
10003a68:	f7ff fe22 	bl	100036b0 <tud_cdc_n_write_flush>
10003a6c:	2800      	cmp	r0, #0
10003a6e:	d1f2      	bne.n	10003a56 <cdcd_xfer_cb+0x46>
10003a70:	4c25      	ldr	r4, [pc, #148]	@ (10003b08 <cdcd_xfer_cb+0xf8>)
10003a72:	0020      	movs	r0, r4
10003a74:	f000 fb66 	bl	10004144 <tu_fifo_count>
10003a78:	2800      	cmp	r0, #0
10003a7a:	d1ec      	bne.n	10003a56 <cdcd_xfer_cb+0x46>
10003a7c:	2f00      	cmp	r7, #0
10003a7e:	d0ea      	beq.n	10003a56 <cdcd_xfer_cb+0x46>
10003a80:	06bf      	lsls	r7, r7, #26
10003a82:	d1e8      	bne.n	10003a56 <cdcd_xfer_cb+0x46>
10003a84:	3c24      	subs	r4, #36	@ 0x24
10003a86:	4640      	mov	r0, r8
10003a88:	78a1      	ldrb	r1, [r4, #2]
10003a8a:	f7ff fc25 	bl	100032d8 <usbd_edpt_claim>
10003a8e:	2800      	cmp	r0, #0
10003a90:	d0e1      	beq.n	10003a56 <cdcd_xfer_cb+0x46>
10003a92:	2300      	movs	r3, #0
10003a94:	2200      	movs	r2, #0
10003a96:	4640      	mov	r0, r8
10003a98:	78a1      	ldrb	r1, [r4, #2]
10003a9a:	f7ff fc45 	bl	10003328 <usbd_edpt_xfer>
10003a9e:	2001      	movs	r0, #1
10003aa0:	e7c6      	b.n	10003a30 <cdcd_xfer_cb+0x20>
10003aa2:	2392      	movs	r3, #146	@ 0x92
10003aa4:	009b      	lsls	r3, r3, #2
10003aa6:	18ee      	adds	r6, r5, r3
10003aa8:	2310      	movs	r3, #16
10003aaa:	469a      	mov	sl, r3
10003aac:	44aa      	add	sl, r5
10003aae:	0031      	movs	r1, r6
10003ab0:	4650      	mov	r0, sl
10003ab2:	b2ba      	uxth	r2, r7
10003ab4:	f000 fc90 	bl	100043d8 <tu_fifo_write_n>
10003ab8:	4b14      	ldr	r3, [pc, #80]	@ (10003b0c <cdcd_xfer_cb+0xfc>)
10003aba:	2b00      	cmp	r3, #0
10003abc:	d0bd      	beq.n	10003a3a <cdcd_xfer_cb+0x2a>
10003abe:	796b      	ldrb	r3, [r5, #5]
10003ac0:	2bff      	cmp	r3, #255	@ 0xff
10003ac2:	d0ba      	beq.n	10003a3a <cdcd_xfer_cb+0x2a>
10003ac4:	2f00      	cmp	r7, #0
10003ac6:	d0b8      	beq.n	10003a3a <cdcd_xfer_cb+0x2a>
10003ac8:	19f2      	adds	r2, r6, r7
10003aca:	4691      	mov	r9, r2
10003acc:	e003      	b.n	10003ad6 <cdcd_xfer_cb+0xc6>
10003ace:	3601      	adds	r6, #1
10003ad0:	45b1      	cmp	r9, r6
10003ad2:	d0b2      	beq.n	10003a3a <cdcd_xfer_cb+0x2a>
10003ad4:	796b      	ldrb	r3, [r5, #5]
10003ad6:	7832      	ldrb	r2, [r6, #0]
10003ad8:	429a      	cmp	r2, r3
10003ada:	d1f8      	bne.n	10003ace <cdcd_xfer_cb+0xbe>
10003adc:	4650      	mov	r0, sl
10003ade:	f000 fb47 	bl	10004170 <tu_fifo_empty>
10003ae2:	2800      	cmp	r0, #0
10003ae4:	d1f3      	bne.n	10003ace <cdcd_xfer_cb+0xbe>
10003ae6:	4653      	mov	r3, sl
10003ae8:	3b10      	subs	r3, #16
10003aea:	7959      	ldrb	r1, [r3, #5]
10003aec:	e000      	b.n	10003af0 <cdcd_xfer_cb+0xe0>
10003aee:	bf00      	nop
10003af0:	e7ed      	b.n	10003ace <cdcd_xfer_cb+0xbe>
10003af2:	e000      	b.n	10003af6 <cdcd_xfer_cb+0xe6>
10003af4:	bf00      	nop
10003af6:	e7a8      	b.n	10003a4a <cdcd_xfer_cb+0x3a>
10003af8:	200012f0 	.word	0x200012f0
10003afc:	00000000 	.word	0x00000000
10003b00:	20001300 	.word	0x20001300
10003b04:	00000000 	.word	0x00000000
10003b08:	20001314 	.word	0x20001314
10003b0c:	00000000 	.word	0x00000000

10003b10 <vendord_init>:
10003b10:	22b3      	movs	r2, #179	@ 0xb3
10003b12:	b570      	push	{r4, r5, r6, lr}
10003b14:	4c14      	ldr	r4, [pc, #80]	@ (10003b68 <vendord_init+0x58>)
10003b16:	b084      	sub	sp, #16
10003b18:	2100      	movs	r1, #0
10003b1a:	0020      	movs	r0, r4
10003b1c:	0092      	lsls	r2, r2, #2
10003b1e:	f7fd ffef 	bl	10001b00 <__wrap_memset>
10003b22:	1d23      	adds	r3, r4, #4
10003b24:	9302      	str	r3, [sp, #8]
10003b26:	0023      	movs	r3, r4
10003b28:	0020      	movs	r0, r4
10003b2a:	2580      	movs	r5, #128	@ 0x80
10003b2c:	2640      	movs	r6, #64	@ 0x40
10003b2e:	33cd      	adds	r3, #205	@ 0xcd
10003b30:	006d      	lsls	r5, r5, #1
10003b32:	33ff      	adds	r3, #255	@ 0xff
10003b34:	30a9      	adds	r0, #169	@ 0xa9
10003b36:	9300      	str	r3, [sp, #0]
10003b38:	2200      	movs	r2, #0
10003b3a:	2300      	movs	r3, #0
10003b3c:	2100      	movs	r1, #0
10003b3e:	9603      	str	r6, [sp, #12]
10003b40:	9501      	str	r5, [sp, #4]
10003b42:	30ff      	adds	r0, #255	@ 0xff
10003b44:	f000 f9bc 	bl	10003ec0 <tu_edpt_stream_init>
10003b48:	0023      	movs	r3, r4
10003b4a:	0020      	movs	r0, r4
10003b4c:	3344      	adds	r3, #68	@ 0x44
10003b4e:	34a8      	adds	r4, #168	@ 0xa8
10003b50:	9302      	str	r3, [sp, #8]
10003b52:	2201      	movs	r2, #1
10003b54:	2300      	movs	r3, #0
10003b56:	2100      	movs	r1, #0
10003b58:	9603      	str	r6, [sp, #12]
10003b5a:	9501      	str	r5, [sp, #4]
10003b5c:	9400      	str	r4, [sp, #0]
10003b5e:	3084      	adds	r0, #132	@ 0x84
10003b60:	f000 f9ae 	bl	10003ec0 <tu_edpt_stream_init>
10003b64:	b004      	add	sp, #16
10003b66:	bd70      	pop	{r4, r5, r6, pc}
10003b68:	20001730 	.word	0x20001730

10003b6c <vendord_deinit>:
10003b6c:	b510      	push	{r4, lr}
10003b6e:	4c05      	ldr	r4, [pc, #20]	@ (10003b84 <vendord_deinit+0x18>)
10003b70:	0020      	movs	r0, r4
10003b72:	f000 f9db 	bl	10003f2c <tu_edpt_stream_deinit>
10003b76:	0020      	movs	r0, r4
10003b78:	3825      	subs	r0, #37	@ 0x25
10003b7a:	38ff      	subs	r0, #255	@ 0xff
10003b7c:	f000 f9d6 	bl	10003f2c <tu_edpt_stream_deinit>
10003b80:	2001      	movs	r0, #1
10003b82:	bd10      	pop	{r4, pc}
10003b84:	200018d8 	.word	0x200018d8

10003b88 <vendord_reset>:
10003b88:	b510      	push	{r4, lr}
10003b8a:	4c06      	ldr	r4, [pc, #24]	@ (10003ba4 <vendord_reset+0x1c>)
10003b8c:	2300      	movs	r3, #0
10003b8e:	0020      	movs	r0, r4
10003b90:	30b1      	adds	r0, #177	@ 0xb1
10003b92:	30ff      	adds	r0, #255	@ 0xff
10003b94:	7023      	strb	r3, [r4, #0]
10003b96:	f000 fcdb 	bl	10004550 <tu_fifo_clear>
10003b9a:	0020      	movs	r0, r4
10003b9c:	308c      	adds	r0, #140	@ 0x8c
10003b9e:	f000 fcd7 	bl	10004550 <tu_fifo_clear>
10003ba2:	bd10      	pop	{r4, pc}
10003ba4:	20001730 	.word	0x20001730

10003ba8 <vendord_open>:
10003ba8:	b5f0      	push	{r4, r5, r6, r7, lr}
10003baa:	4657      	mov	r7, sl
10003bac:	4645      	mov	r5, r8
10003bae:	46de      	mov	lr, fp
10003bb0:	464e      	mov	r6, r9
10003bb2:	b5e0      	push	{r5, r6, r7, lr}
10003bb4:	794b      	ldrb	r3, [r1, #5]
10003bb6:	4680      	mov	r8, r0
10003bb8:	000f      	movs	r7, r1
10003bba:	b083      	sub	sp, #12
10003bbc:	2bff      	cmp	r3, #255	@ 0xff
10003bbe:	d128      	bne.n	10003c12 <vendord_open+0x6a>
10003bc0:	4b45      	ldr	r3, [pc, #276]	@ (10003cd8 <vendord_open+0x130>)
10003bc2:	780c      	ldrb	r4, [r1, #0]
10003bc4:	4699      	mov	r9, r3
10003bc6:	23aa      	movs	r3, #170	@ 0xaa
10003bc8:	4649      	mov	r1, r9
10003bca:	33ff      	adds	r3, #255	@ 0xff
10003bcc:	5ccb      	ldrb	r3, [r1, r3]
10003bce:	2b00      	cmp	r3, #0
10003bd0:	d11f      	bne.n	10003c12 <vendord_open+0x6a>
10003bd2:	3385      	adds	r3, #133	@ 0x85
10003bd4:	5cce      	ldrb	r6, [r1, r3]
10003bd6:	2e00      	cmp	r6, #0
10003bd8:	d11b      	bne.n	10003c12 <vendord_open+0x6a>
10003bda:	78bb      	ldrb	r3, [r7, #2]
10003bdc:	193c      	adds	r4, r7, r4
10003bde:	700b      	strb	r3, [r1, #0]
10003be0:	793b      	ldrb	r3, [r7, #4]
10003be2:	2b00      	cmp	r3, #0
10003be4:	d012      	beq.n	10003c0c <vendord_open+0x64>
10003be6:	23d8      	movs	r3, #216	@ 0xd8
10003be8:	005b      	lsls	r3, r3, #1
10003bea:	444b      	add	r3, r9
10003bec:	469a      	mov	sl, r3
10003bee:	238c      	movs	r3, #140	@ 0x8c
10003bf0:	444b      	add	r3, r9
10003bf2:	469b      	mov	fp, r3
10003bf4:	18a5      	adds	r5, r4, r2
10003bf6:	7863      	ldrb	r3, [r4, #1]
10003bf8:	2b05      	cmp	r3, #5
10003bfa:	d105      	bne.n	10003c08 <vendord_open+0x60>
10003bfc:	e011      	b.n	10003c22 <vendord_open+0x7a>
10003bfe:	7823      	ldrb	r3, [r4, #0]
10003c00:	18e4      	adds	r4, r4, r3
10003c02:	7863      	ldrb	r3, [r4, #1]
10003c04:	2b05      	cmp	r3, #5
10003c06:	d00c      	beq.n	10003c22 <vendord_open+0x7a>
10003c08:	42a5      	cmp	r5, r4
10003c0a:	d8f8      	bhi.n	10003bfe <vendord_open+0x56>
10003c0c:	1be0      	subs	r0, r4, r7
10003c0e:	b280      	uxth	r0, r0
10003c10:	e000      	b.n	10003c14 <vendord_open+0x6c>
10003c12:	2000      	movs	r0, #0
10003c14:	b003      	add	sp, #12
10003c16:	bcf0      	pop	{r4, r5, r6, r7}
10003c18:	46bb      	mov	fp, r7
10003c1a:	46b2      	mov	sl, r6
10003c1c:	46a9      	mov	r9, r5
10003c1e:	46a0      	mov	r8, r4
10003c20:	bdf0      	pop	{r4, r5, r6, r7, pc}
10003c22:	42a5      	cmp	r5, r4
10003c24:	d9f2      	bls.n	10003c0c <vendord_open+0x64>
10003c26:	0021      	movs	r1, r4
10003c28:	4640      	mov	r0, r8
10003c2a:	f7ff fb3b 	bl	100032a4 <usbd_edpt_open>
10003c2e:	2800      	cmp	r0, #0
10003c30:	d0ef      	beq.n	10003c12 <vendord_open+0x6a>
10003c32:	78a3      	ldrb	r3, [r4, #2]
10003c34:	3601      	adds	r6, #1
10003c36:	b2f6      	uxtb	r6, r6
10003c38:	09db      	lsrs	r3, r3, #7
10003c3a:	2b01      	cmp	r3, #1
10003c3c:	d029      	beq.n	10003c92 <vendord_open+0xea>
10003c3e:	4650      	mov	r0, sl
10003c40:	f000 fc86 	bl	10004550 <tu_fifo_clear>
10003c44:	23aa      	movs	r3, #170	@ 0xaa
10003c46:	4649      	mov	r1, r9
10003c48:	78a2      	ldrb	r2, [r4, #2]
10003c4a:	33ff      	adds	r3, #255	@ 0xff
10003c4c:	54ca      	strb	r2, [r1, r3]
10003c4e:	7963      	ldrb	r3, [r4, #5]
10003c50:	7922      	ldrb	r2, [r4, #4]
10003c52:	021b      	lsls	r3, r3, #8
10003c54:	4313      	orrs	r3, r2
10003c56:	4a21      	ldr	r2, [pc, #132]	@ (10003cdc <vendord_open+0x134>)
10003c58:	055b      	lsls	r3, r3, #21
10003c5a:	4694      	mov	ip, r2
10003c5c:	0d5b      	lsrs	r3, r3, #21
10003c5e:	21d4      	movs	r1, #212	@ 0xd4
10003c60:	4463      	add	r3, ip
10003c62:	425a      	negs	r2, r3
10003c64:	4153      	adcs	r3, r2
10003c66:	464a      	mov	r2, r9
10003c68:	2002      	movs	r0, #2
10003c6a:	0049      	lsls	r1, r1, #1
10003c6c:	5c52      	ldrb	r2, [r2, r1]
10003c6e:	005b      	lsls	r3, r3, #1
10003c70:	4382      	bics	r2, r0
10003c72:	4313      	orrs	r3, r2
10003c74:	464a      	mov	r2, r9
10003c76:	5453      	strb	r3, [r2, r1]
10003c78:	4651      	mov	r1, sl
10003c7a:	4640      	mov	r0, r8
10003c7c:	3908      	subs	r1, #8
10003c7e:	f000 f9bd 	bl	10003ffc <tu_edpt_stream_read_xfer>
10003c82:	2800      	cmp	r0, #0
10003c84:	d0c5      	beq.n	10003c12 <vendord_open+0x6a>
10003c86:	7823      	ldrb	r3, [r4, #0]
10003c88:	18e4      	adds	r4, r4, r3
10003c8a:	793b      	ldrb	r3, [r7, #4]
10003c8c:	42b3      	cmp	r3, r6
10003c8e:	d8b2      	bhi.n	10003bf6 <vendord_open+0x4e>
10003c90:	e7bc      	b.n	10003c0c <vendord_open+0x64>
10003c92:	4658      	mov	r0, fp
10003c94:	f000 fc5c 	bl	10004550 <tu_fifo_clear>
10003c98:	465a      	mov	r2, fp
10003c9a:	2385      	movs	r3, #133	@ 0x85
10003c9c:	78a1      	ldrb	r1, [r4, #2]
10003c9e:	3a8c      	subs	r2, #140	@ 0x8c
10003ca0:	54d1      	strb	r1, [r2, r3]
10003ca2:	7963      	ldrb	r3, [r4, #5]
10003ca4:	7921      	ldrb	r1, [r4, #4]
10003ca6:	021b      	lsls	r3, r3, #8
10003ca8:	430b      	orrs	r3, r1
10003caa:	490c      	ldr	r1, [pc, #48]	@ (10003cdc <vendord_open+0x134>)
10003cac:	055b      	lsls	r3, r3, #21
10003cae:	468c      	mov	ip, r1
10003cb0:	0d5b      	lsrs	r3, r3, #21
10003cb2:	4463      	add	r3, ip
10003cb4:	4259      	negs	r1, r3
10003cb6:	414b      	adcs	r3, r1
10003cb8:	2184      	movs	r1, #132	@ 0x84
10003cba:	005b      	lsls	r3, r3, #1
10003cbc:	9301      	str	r3, [sp, #4]
10003cbe:	2302      	movs	r3, #2
10003cc0:	5c50      	ldrb	r0, [r2, r1]
10003cc2:	4398      	bics	r0, r3
10003cc4:	9b01      	ldr	r3, [sp, #4]
10003cc6:	4303      	orrs	r3, r0
10003cc8:	5453      	strb	r3, [r2, r1]
10003cca:	4659      	mov	r1, fp
10003ccc:	2000      	movs	r0, #0
10003cce:	3908      	subs	r1, #8
10003cd0:	f000 f962 	bl	10003f98 <tu_edpt_stream_write_xfer>
10003cd4:	e7d7      	b.n	10003c86 <vendord_open+0xde>
10003cd6:	46c0      	nop			@ (mov r8, r8)
10003cd8:	20001730 	.word	0x20001730
10003cdc:	fffffe00 	.word	0xfffffe00

10003ce0 <vendord_xfer_cb>:
10003ce0:	b5f8      	push	{r3, r4, r5, r6, r7, lr}
10003ce2:	25aa      	movs	r5, #170	@ 0xaa
10003ce4:	0006      	movs	r6, r0
10003ce6:	481f      	ldr	r0, [pc, #124]	@ (10003d64 <vendord_xfer_cb+0x84>)
10003ce8:	35ff      	adds	r5, #255	@ 0xff
10003cea:	5d45      	ldrb	r5, [r0, r5]
10003cec:	001f      	movs	r7, r3
10003cee:	428d      	cmp	r5, r1
10003cf0:	d015      	beq.n	10003d1e <vendord_xfer_cb+0x3e>
10003cf2:	2385      	movs	r3, #133	@ 0x85
10003cf4:	5cc3      	ldrb	r3, [r0, r3]
10003cf6:	2000      	movs	r0, #0
10003cf8:	428b      	cmp	r3, r1
10003cfa:	d10f      	bne.n	10003d1c <vendord_xfer_cb+0x3c>
10003cfc:	4b1a      	ldr	r3, [pc, #104]	@ (10003d68 <vendord_xfer_cb+0x88>)
10003cfe:	2b00      	cmp	r3, #0
10003d00:	d004      	beq.n	10003d0c <vendord_xfer_cb+0x2c>
10003d02:	0439      	lsls	r1, r7, #16
10003d04:	2000      	movs	r0, #0
10003d06:	0c09      	lsrs	r1, r1, #16
10003d08:	e000      	b.n	10003d0c <vendord_xfer_cb+0x2c>
10003d0a:	bf00      	nop
10003d0c:	4c17      	ldr	r4, [pc, #92]	@ (10003d6c <vendord_xfer_cb+0x8c>)
10003d0e:	0030      	movs	r0, r6
10003d10:	0021      	movs	r1, r4
10003d12:	f000 f941 	bl	10003f98 <tu_edpt_stream_write_xfer>
10003d16:	2800      	cmp	r0, #0
10003d18:	d014      	beq.n	10003d44 <vendord_xfer_cb+0x64>
10003d1a:	2001      	movs	r0, #1
10003d1c:	bdf8      	pop	{r3, r4, r5, r6, r7, pc}
10003d1e:	23da      	movs	r3, #218	@ 0xda
10003d20:	005b      	lsls	r3, r3, #1
10003d22:	5ac3      	ldrh	r3, [r0, r3]
10003d24:	2b00      	cmp	r3, #0
10003d26:	d114      	bne.n	10003d52 <vendord_xfer_cb+0x72>
10003d28:	4b11      	ldr	r3, [pc, #68]	@ (10003d70 <vendord_xfer_cb+0x90>)
10003d2a:	2b00      	cmp	r3, #0
10003d2c:	d004      	beq.n	10003d38 <vendord_xfer_cb+0x58>
10003d2e:	2000      	movs	r0, #0
10003d30:	4910      	ldr	r1, [pc, #64]	@ (10003d74 <vendord_xfer_cb+0x94>)
10003d32:	b2ba      	uxth	r2, r7
10003d34:	e000      	b.n	10003d38 <vendord_xfer_cb+0x58>
10003d36:	bf00      	nop
10003d38:	0030      	movs	r0, r6
10003d3a:	490f      	ldr	r1, [pc, #60]	@ (10003d78 <vendord_xfer_cb+0x98>)
10003d3c:	f000 f95e 	bl	10003ffc <tu_edpt_stream_read_xfer>
10003d40:	2001      	movs	r0, #1
10003d42:	e7eb      	b.n	10003d1c <vendord_xfer_cb+0x3c>
10003d44:	003a      	movs	r2, r7
10003d46:	0021      	movs	r1, r4
10003d48:	0030      	movs	r0, r6
10003d4a:	f000 f8f1 	bl	10003f30 <tu_edpt_stream_write_zlp_if_needed>
10003d4e:	2001      	movs	r0, #1
10003d50:	e7e4      	b.n	10003d1c <vendord_xfer_cb+0x3c>
10003d52:	23d6      	movs	r3, #214	@ 0xd6
10003d54:	005b      	lsls	r3, r3, #1
10003d56:	58c1      	ldr	r1, [r0, r3]
10003d58:	30b1      	adds	r0, #177	@ 0xb1
10003d5a:	b2ba      	uxth	r2, r7
10003d5c:	30ff      	adds	r0, #255	@ 0xff
10003d5e:	f000 fb3b 	bl	100043d8 <tu_fifo_write_n>
10003d62:	e7e1      	b.n	10003d28 <vendord_xfer_cb+0x48>
10003d64:	20001730 	.word	0x20001730
10003d68:	00000000 	.word	0x00000000
10003d6c:	200017b4 	.word	0x200017b4
10003d70:	00000000 	.word	0x00000000
10003d74:	20001734 	.word	0x20001734
10003d78:	200018d8 	.word	0x200018d8

10003d7c <tusb_init>:
10003d7c:	b510      	push	{r4, lr}
10003d7e:	2000      	movs	r0, #0
10003d80:	f7fe fdd0 	bl	10002924 <tud_init>
10003d84:	bd10      	pop	{r4, pc}
10003d86:	46c0      	nop			@ (mov r8, r8)

10003d88 <tu_edpt_claim>:
10003d88:	7803      	ldrb	r3, [r0, #0]
10003d8a:	b570      	push	{r4, r5, r6, lr}
10003d8c:	07db      	lsls	r3, r3, #31
10003d8e:	0004      	movs	r4, r0
10003d90:	000e      	movs	r6, r1
10003d92:	0fdd      	lsrs	r5, r3, #31
10003d94:	2b00      	cmp	r3, #0
10003d96:	d117      	bne.n	10003dc8 <tu_edpt_claim+0x40>
10003d98:	7803      	ldrb	r3, [r0, #0]
10003d9a:	075b      	lsls	r3, r3, #29
10003d9c:	d501      	bpl.n	10003da2 <tu_edpt_claim+0x1a>
10003d9e:	0028      	movs	r0, r5
10003da0:	bd70      	pop	{r4, r5, r6, pc}
10003da2:	2101      	movs	r1, #1
10003da4:	0030      	movs	r0, r6
10003da6:	4249      	negs	r1, r1
10003da8:	f000 fc76 	bl	10004698 <__mutex_enter_timeout_ms_veneer>
10003dac:	7823      	ldrb	r3, [r4, #0]
10003dae:	07db      	lsls	r3, r3, #31
10003db0:	0fdd      	lsrs	r5, r3, #31
10003db2:	2b00      	cmp	r3, #0
10003db4:	d10a      	bne.n	10003dcc <tu_edpt_claim+0x44>
10003db6:	7823      	ldrb	r3, [r4, #0]
10003db8:	075b      	lsls	r3, r3, #29
10003dba:	d408      	bmi.n	10003dce <tu_edpt_claim+0x46>
10003dbc:	2204      	movs	r2, #4
10003dbe:	7823      	ldrb	r3, [r4, #0]
10003dc0:	2501      	movs	r5, #1
10003dc2:	4313      	orrs	r3, r2
10003dc4:	7023      	strb	r3, [r4, #0]
10003dc6:	e002      	b.n	10003dce <tu_edpt_claim+0x46>
10003dc8:	2500      	movs	r5, #0
10003dca:	e7e8      	b.n	10003d9e <tu_edpt_claim+0x16>
10003dcc:	2500      	movs	r5, #0
10003dce:	0030      	movs	r0, r6
10003dd0:	f000 fc3a 	bl	10004648 <__mutex_exit_veneer>
10003dd4:	e7e3      	b.n	10003d9e <tu_edpt_claim+0x16>
10003dd6:	46c0      	nop			@ (mov r8, r8)

10003dd8 <tu_edpt_release>:
10003dd8:	b570      	push	{r4, r5, r6, lr}
10003dda:	000c      	movs	r4, r1
10003ddc:	2101      	movs	r1, #1
10003dde:	0006      	movs	r6, r0
10003de0:	4249      	negs	r1, r1
10003de2:	0020      	movs	r0, r4
10003de4:	f000 fc58 	bl	10004698 <__mutex_enter_timeout_ms_veneer>
10003de8:	7833      	ldrb	r3, [r6, #0]
10003dea:	075b      	lsls	r3, r3, #29
10003dec:	0fdd      	lsrs	r5, r3, #31
10003dee:	2b00      	cmp	r3, #0
10003df0:	db04      	blt.n	10003dfc <tu_edpt_release+0x24>
10003df2:	0020      	movs	r0, r4
10003df4:	f000 fc28 	bl	10004648 <__mutex_exit_veneer>
10003df8:	0028      	movs	r0, r5
10003dfa:	bd70      	pop	{r4, r5, r6, pc}
10003dfc:	7833      	ldrb	r3, [r6, #0]
10003dfe:	07db      	lsls	r3, r3, #31
10003e00:	d404      	bmi.n	10003e0c <tu_edpt_release+0x34>
10003e02:	2204      	movs	r2, #4
10003e04:	7833      	ldrb	r3, [r6, #0]
10003e06:	4393      	bics	r3, r2
10003e08:	7033      	strb	r3, [r6, #0]
10003e0a:	e7f2      	b.n	10003df2 <tu_edpt_release+0x1a>
10003e0c:	2500      	movs	r5, #0
10003e0e:	e7f0      	b.n	10003df2 <tu_edpt_release+0x1a>

10003e10 <tu_edpt_validate>:
10003e10:	7943      	ldrb	r3, [r0, #5]
10003e12:	7902      	ldrb	r2, [r0, #4]
10003e14:	021b      	lsls	r3, r3, #8
10003e16:	4313      	orrs	r3, r2
10003e18:	78c2      	ldrb	r2, [r0, #3]
10003e1a:	055b      	lsls	r3, r3, #21
10003e1c:	0792      	lsls	r2, r2, #30
10003e1e:	0d5b      	lsrs	r3, r3, #21
10003e20:	0f92      	lsrs	r2, r2, #30
10003e22:	2a02      	cmp	r2, #2
10003e24:	d01d      	beq.n	10003e62 <tu_edpt_validate+0x52>
10003e26:	2a03      	cmp	r2, #3
10003e28:	d00c      	beq.n	10003e44 <tu_edpt_validate+0x34>
10003e2a:	2000      	movs	r0, #0
10003e2c:	2a01      	cmp	r2, #1
10003e2e:	d108      	bne.n	10003e42 <tu_edpt_validate+0x32>
10003e30:	3902      	subs	r1, #2
10003e32:	424a      	negs	r2, r1
10003e34:	4151      	adcs	r1, r2
10003e36:	4a12      	ldr	r2, [pc, #72]	@ (10003e80 <tu_edpt_validate+0x70>)
10003e38:	4694      	mov	ip, r2
10003e3a:	4461      	add	r1, ip
10003e3c:	4299      	cmp	r1, r3
10003e3e:	4140      	adcs	r0, r0
10003e40:	b2c0      	uxtb	r0, r0
10003e42:	4770      	bx	lr
10003e44:	3902      	subs	r1, #2
10003e46:	1e4a      	subs	r2, r1, #1
10003e48:	4191      	sbcs	r1, r2
10003e4a:	4a0e      	ldr	r2, [pc, #56]	@ (10003e84 <tu_edpt_validate+0x74>)
10003e4c:	4249      	negs	r1, r1
10003e4e:	4011      	ands	r1, r2
10003e50:	2280      	movs	r2, #128	@ 0x80
10003e52:	00d2      	lsls	r2, r2, #3
10003e54:	4694      	mov	ip, r2
10003e56:	2000      	movs	r0, #0
10003e58:	4461      	add	r1, ip
10003e5a:	4299      	cmp	r1, r3
10003e5c:	4140      	adcs	r0, r0
10003e5e:	b2c0      	uxtb	r0, r0
10003e60:	e7ef      	b.n	10003e42 <tu_edpt_validate+0x32>
10003e62:	2902      	cmp	r1, #2
10003e64:	d005      	beq.n	10003e72 <tu_edpt_validate+0x62>
10003e66:	2000      	movs	r0, #0
10003e68:	2240      	movs	r2, #64	@ 0x40
10003e6a:	429a      	cmp	r2, r3
10003e6c:	4140      	adcs	r0, r0
10003e6e:	b2c0      	uxtb	r0, r0
10003e70:	e7e7      	b.n	10003e42 <tu_edpt_validate+0x32>
10003e72:	4a05      	ldr	r2, [pc, #20]	@ (10003e88 <tu_edpt_validate+0x78>)
10003e74:	1898      	adds	r0, r3, r2
10003e76:	4243      	negs	r3, r0
10003e78:	4158      	adcs	r0, r3
10003e7a:	b2c0      	uxtb	r0, r0
10003e7c:	e7e1      	b.n	10003e42 <tu_edpt_validate+0x32>
10003e7e:	46c0      	nop			@ (mov r8, r8)
10003e80:	000003ff 	.word	0x000003ff
10003e84:	fffffc40 	.word	0xfffffc40
10003e88:	fffffe00 	.word	0xfffffe00

10003e8c <tu_edpt_bind_driver>:
10003e8c:	188a      	adds	r2, r1, r2
10003e8e:	b570      	push	{r4, r5, r6, lr}
10003e90:	4291      	cmp	r1, r2
10003e92:	d207      	bcs.n	10003ea4 <tu_edpt_bind_driver+0x18>
10003e94:	267f      	movs	r6, #127	@ 0x7f
10003e96:	784c      	ldrb	r4, [r1, #1]
10003e98:	2c05      	cmp	r4, #5
10003e9a:	d004      	beq.n	10003ea6 <tu_edpt_bind_driver+0x1a>
10003e9c:	780c      	ldrb	r4, [r1, #0]
10003e9e:	1909      	adds	r1, r1, r4
10003ea0:	428a      	cmp	r2, r1
10003ea2:	d8f8      	bhi.n	10003e96 <tu_edpt_bind_driver+0xa>
10003ea4:	bd70      	pop	{r4, r5, r6, pc}
10003ea6:	0034      	movs	r4, r6
10003ea8:	788d      	ldrb	r5, [r1, #2]
10003eaa:	402c      	ands	r4, r5
10003eac:	0064      	lsls	r4, r4, #1
10003eae:	1904      	adds	r4, r0, r4
10003eb0:	09ed      	lsrs	r5, r5, #7
10003eb2:	5563      	strb	r3, [r4, r5]
10003eb4:	780c      	ldrb	r4, [r1, #0]
10003eb6:	1909      	adds	r1, r1, r4
10003eb8:	428a      	cmp	r2, r1
10003eba:	d8ec      	bhi.n	10003e96 <tu_edpt_bind_driver+0xa>
10003ebc:	e7f2      	b.n	10003ea4 <tu_edpt_bind_driver+0x18>
10003ebe:	46c0      	nop			@ (mov r8, r8)

10003ec0 <tu_edpt_stream_init>:
10003ec0:	b5f0      	push	{r4, r5, r6, r7, lr}
10003ec2:	46c6      	mov	lr, r8
10003ec4:	b500      	push	{lr}
10003ec6:	b082      	sub	sp, #8
10003ec8:	0015      	movs	r5, r2
10003eca:	aa08      	add	r2, sp, #32
10003ecc:	ca40      	ldmia	r2!, {r6}
10003ece:	0004      	movs	r4, r0
10003ed0:	8817      	ldrh	r7, [r2, #0]
10003ed2:	aa0b      	add	r2, sp, #44	@ 0x2c
10003ed4:	8812      	ldrh	r2, [r2, #0]
10003ed6:	2001      	movs	r0, #1
10003ed8:	4690      	mov	r8, r2
10003eda:	000a      	movs	r2, r1
10003edc:	7821      	ldrb	r1, [r4, #0]
10003ede:	4002      	ands	r2, r0
10003ee0:	4381      	bics	r1, r0
10003ee2:	0020      	movs	r0, r4
10003ee4:	4311      	orrs	r1, r2
10003ee6:	7021      	strb	r1, [r4, #0]
10003ee8:	003a      	movs	r2, r7
10003eea:	9300      	str	r3, [sp, #0]
10003eec:	0031      	movs	r1, r6
10003eee:	2301      	movs	r3, #1
10003ef0:	3008      	adds	r0, #8
10003ef2:	f000 f8f1 	bl	100040d8 <tu_fifo_config>
10003ef6:	2e00      	cmp	r6, #0
10003ef8:	d001      	beq.n	10003efe <tu_edpt_stream_init+0x3e>
10003efa:	2f00      	cmp	r7, #0
10003efc:	d108      	bne.n	10003f10 <tu_edpt_stream_init+0x50>
10003efe:	9b0a      	ldr	r3, [sp, #40]	@ 0x28
10003f00:	2001      	movs	r0, #1
10003f02:	6063      	str	r3, [r4, #4]
10003f04:	4643      	mov	r3, r8
10003f06:	8063      	strh	r3, [r4, #2]
10003f08:	b002      	add	sp, #8
10003f0a:	bc80      	pop	{r7}
10003f0c:	46b8      	mov	r8, r7
10003f0e:	bdf0      	pop	{r4, r5, r6, r7, pc}
10003f10:	0026      	movs	r6, r4
10003f12:	361c      	adds	r6, #28
10003f14:	0030      	movs	r0, r6
10003f16:	f7fc fde5 	bl	10000ae4 <mutex_init>
10003f1a:	2300      	movs	r3, #0
10003f1c:	2d00      	cmp	r5, #0
10003f1e:	d001      	beq.n	10003f24 <tu_edpt_stream_init+0x64>
10003f20:	0033      	movs	r3, r6
10003f22:	2600      	movs	r6, #0
10003f24:	6163      	str	r3, [r4, #20]
10003f26:	61a6      	str	r6, [r4, #24]
10003f28:	e7e9      	b.n	10003efe <tu_edpt_stream_init+0x3e>
10003f2a:	46c0      	nop			@ (mov r8, r8)

10003f2c <tu_edpt_stream_deinit>:
10003f2c:	2001      	movs	r0, #1
10003f2e:	4770      	bx	lr

10003f30 <tu_edpt_stream_write_zlp_if_needed>:
10003f30:	b5f8      	push	{r3, r4, r5, r6, r7, lr}
10003f32:	2402      	movs	r4, #2
10003f34:	780b      	ldrb	r3, [r1, #0]
10003f36:	0007      	movs	r7, r0
10003f38:	401c      	ands	r4, r3
10003f3a:	4263      	negs	r3, r4
10003f3c:	415c      	adcs	r4, r3
10003f3e:	4b14      	ldr	r3, [pc, #80]	@ (10003f90 <tu_edpt_stream_write_zlp_if_needed+0x60>)
10003f40:	4264      	negs	r4, r4
10003f42:	401c      	ands	r4, r3
10003f44:	4b13      	ldr	r3, [pc, #76]	@ (10003f94 <tu_edpt_stream_write_zlp_if_needed+0x64>)
10003f46:	0008      	movs	r0, r1
10003f48:	469c      	mov	ip, r3
10003f4a:	3008      	adds	r0, #8
10003f4c:	000d      	movs	r5, r1
10003f4e:	0016      	movs	r6, r2
10003f50:	4464      	add	r4, ip
10003f52:	f000 f8f7 	bl	10004144 <tu_fifo_count>
10003f56:	2800      	cmp	r0, #0
10003f58:	d107      	bne.n	10003f6a <tu_edpt_stream_write_zlp_if_needed+0x3a>
10003f5a:	2e00      	cmp	r6, #0
10003f5c:	d005      	beq.n	10003f6a <tu_edpt_stream_write_zlp_if_needed+0x3a>
10003f5e:	4234      	tst	r4, r6
10003f60:	d103      	bne.n	10003f6a <tu_edpt_stream_write_zlp_if_needed+0x3a>
10003f62:	2401      	movs	r4, #1
10003f64:	782b      	ldrb	r3, [r5, #0]
10003f66:	421c      	tst	r4, r3
10003f68:	d001      	beq.n	10003f6e <tu_edpt_stream_write_zlp_if_needed+0x3e>
10003f6a:	2000      	movs	r0, #0
10003f6c:	bdf8      	pop	{r3, r4, r5, r6, r7, pc}
10003f6e:	0038      	movs	r0, r7
10003f70:	7869      	ldrb	r1, [r5, #1]
10003f72:	f7ff f9b1 	bl	100032d8 <usbd_edpt_claim>
10003f76:	2800      	cmp	r0, #0
10003f78:	d0f7      	beq.n	10003f6a <tu_edpt_stream_write_zlp_if_needed+0x3a>
10003f7a:	782b      	ldrb	r3, [r5, #0]
10003f7c:	421c      	tst	r4, r3
10003f7e:	d1f4      	bne.n	10003f6a <tu_edpt_stream_write_zlp_if_needed+0x3a>
10003f80:	2300      	movs	r3, #0
10003f82:	2200      	movs	r2, #0
10003f84:	0038      	movs	r0, r7
10003f86:	7869      	ldrb	r1, [r5, #1]
10003f88:	f7ff f9ce 	bl	10003328 <usbd_edpt_xfer>
10003f8c:	e7ee      	b.n	10003f6c <tu_edpt_stream_write_zlp_if_needed+0x3c>
10003f8e:	46c0      	nop			@ (mov r8, r8)
10003f90:	fffffe40 	.word	0xfffffe40
10003f94:	000001ff 	.word	0x000001ff

10003f98 <tu_edpt_stream_write_xfer>:
10003f98:	b5f8      	push	{r3, r4, r5, r6, r7, lr}
10003f9a:	000d      	movs	r5, r1
10003f9c:	3508      	adds	r5, #8
10003f9e:	0006      	movs	r6, r0
10003fa0:	0028      	movs	r0, r5
10003fa2:	000c      	movs	r4, r1
10003fa4:	f000 f8ce 	bl	10004144 <tu_fifo_count>
10003fa8:	2800      	cmp	r0, #0
10003faa:	d003      	beq.n	10003fb4 <tu_edpt_stream_write_xfer+0x1c>
10003fac:	2701      	movs	r7, #1
10003fae:	7823      	ldrb	r3, [r4, #0]
10003fb0:	421f      	tst	r7, r3
10003fb2:	d001      	beq.n	10003fb8 <tu_edpt_stream_write_xfer+0x20>
10003fb4:	2000      	movs	r0, #0
10003fb6:	bdf8      	pop	{r3, r4, r5, r6, r7, pc}
10003fb8:	0030      	movs	r0, r6
10003fba:	7861      	ldrb	r1, [r4, #1]
10003fbc:	f7ff f98c 	bl	100032d8 <usbd_edpt_claim>
10003fc0:	2800      	cmp	r0, #0
10003fc2:	d0f7      	beq.n	10003fb4 <tu_edpt_stream_write_xfer+0x1c>
10003fc4:	0028      	movs	r0, r5
10003fc6:	8862      	ldrh	r2, [r4, #2]
10003fc8:	6861      	ldr	r1, [r4, #4]
10003fca:	f000 f93d 	bl	10004248 <tu_fifo_read_n>
10003fce:	7823      	ldrb	r3, [r4, #0]
10003fd0:	1e05      	subs	r5, r0, #0
10003fd2:	d00b      	beq.n	10003fec <tu_edpt_stream_write_xfer+0x54>
10003fd4:	421f      	tst	r7, r3
10003fd6:	d1ed      	bne.n	10003fb4 <tu_edpt_stream_write_xfer+0x1c>
10003fd8:	0003      	movs	r3, r0
10003fda:	6862      	ldr	r2, [r4, #4]
10003fdc:	0030      	movs	r0, r6
10003fde:	7861      	ldrb	r1, [r4, #1]
10003fe0:	f7ff f9a2 	bl	10003328 <usbd_edpt_xfer>
10003fe4:	2800      	cmp	r0, #0
10003fe6:	d0e5      	beq.n	10003fb4 <tu_edpt_stream_write_xfer+0x1c>
10003fe8:	0028      	movs	r0, r5
10003fea:	e7e4      	b.n	10003fb6 <tu_edpt_stream_write_xfer+0x1e>
10003fec:	421f      	tst	r7, r3
10003fee:	d1e1      	bne.n	10003fb4 <tu_edpt_stream_write_xfer+0x1c>
10003ff0:	0030      	movs	r0, r6
10003ff2:	7861      	ldrb	r1, [r4, #1]
10003ff4:	f7ff f984 	bl	10003300 <usbd_edpt_release>
10003ff8:	e7dc      	b.n	10003fb4 <tu_edpt_stream_write_xfer+0x1c>
10003ffa:	46c0      	nop			@ (mov r8, r8)

10003ffc <tu_edpt_stream_read_xfer>:
10003ffc:	b5f8      	push	{r3, r4, r5, r6, r7, lr}
10003ffe:	46ce      	mov	lr, r9
10004000:	4647      	mov	r7, r8
10004002:	b580      	push	{r7, lr}
10004004:	898a      	ldrh	r2, [r1, #12]
10004006:	0005      	movs	r5, r0
10004008:	000c      	movs	r4, r1
1000400a:	780b      	ldrb	r3, [r1, #0]
1000400c:	2a00      	cmp	r2, #0
1000400e:	d107      	bne.n	10004020 <tu_edpt_stream_read_xfer+0x24>
10004010:	2601      	movs	r6, #1
10004012:	421e      	tst	r6, r3
10004014:	d03f      	beq.n	10004096 <tu_edpt_stream_read_xfer+0x9a>
10004016:	2000      	movs	r0, #0
10004018:	bcc0      	pop	{r6, r7}
1000401a:	46b9      	mov	r9, r7
1000401c:	46b0      	mov	r8, r6
1000401e:	bdf8      	pop	{r3, r4, r5, r6, r7, pc}
10004020:	079b      	lsls	r3, r3, #30
10004022:	d534      	bpl.n	1000408e <tu_edpt_stream_read_xfer+0x92>
10004024:	23fe      	movs	r3, #254	@ 0xfe
10004026:	2680      	movs	r6, #128	@ 0x80
10004028:	021b      	lsls	r3, r3, #8
1000402a:	4699      	mov	r9, r3
1000402c:	00b6      	lsls	r6, r6, #2
1000402e:	0027      	movs	r7, r4
10004030:	3708      	adds	r7, #8
10004032:	0038      	movs	r0, r7
10004034:	f000 f8a4 	bl	10004180 <tu_fifo_remaining>
10004038:	4286      	cmp	r6, r0
1000403a:	d8ec      	bhi.n	10004016 <tu_edpt_stream_read_xfer+0x1a>
1000403c:	2201      	movs	r2, #1
1000403e:	7823      	ldrb	r3, [r4, #0]
10004040:	4690      	mov	r8, r2
10004042:	421a      	tst	r2, r3
10004044:	d1e7      	bne.n	10004016 <tu_edpt_stream_read_xfer+0x1a>
10004046:	0028      	movs	r0, r5
10004048:	7861      	ldrb	r1, [r4, #1]
1000404a:	f7ff f945 	bl	100032d8 <usbd_edpt_claim>
1000404e:	2800      	cmp	r0, #0
10004050:	d0e1      	beq.n	10004016 <tu_edpt_stream_read_xfer+0x1a>
10004052:	0038      	movs	r0, r7
10004054:	f000 f894 	bl	10004180 <tu_fifo_remaining>
10004058:	4286      	cmp	r6, r0
1000405a:	d831      	bhi.n	100040c0 <tu_edpt_stream_read_xfer+0xc4>
1000405c:	4641      	mov	r1, r8
1000405e:	7823      	ldrb	r3, [r4, #0]
10004060:	8862      	ldrh	r2, [r4, #2]
10004062:	4219      	tst	r1, r3
10004064:	d1d7      	bne.n	10004016 <tu_edpt_stream_read_xfer+0x1a>
10004066:	464b      	mov	r3, r9
10004068:	4018      	ands	r0, r3
1000406a:	1c06      	adds	r6, r0, #0
1000406c:	4290      	cmp	r0, r2
1000406e:	d900      	bls.n	10004072 <tu_edpt_stream_read_xfer+0x76>
10004070:	1c16      	adds	r6, r2, #0
10004072:	b2b6      	uxth	r6, r6
10004074:	2200      	movs	r2, #0
10004076:	7861      	ldrb	r1, [r4, #1]
10004078:	2e00      	cmp	r6, #0
1000407a:	d000      	beq.n	1000407e <tu_edpt_stream_read_xfer+0x82>
1000407c:	6862      	ldr	r2, [r4, #4]
1000407e:	0033      	movs	r3, r6
10004080:	0028      	movs	r0, r5
10004082:	f7ff f951 	bl	10003328 <usbd_edpt_xfer>
10004086:	2800      	cmp	r0, #0
10004088:	d0c5      	beq.n	10004016 <tu_edpt_stream_read_xfer+0x1a>
1000408a:	0030      	movs	r0, r6
1000408c:	e7c4      	b.n	10004018 <tu_edpt_stream_read_xfer+0x1c>
1000408e:	4b11      	ldr	r3, [pc, #68]	@ (100040d4 <tu_edpt_stream_read_xfer+0xd8>)
10004090:	2640      	movs	r6, #64	@ 0x40
10004092:	4699      	mov	r9, r3
10004094:	e7cb      	b.n	1000402e <tu_edpt_stream_read_xfer+0x32>
10004096:	7849      	ldrb	r1, [r1, #1]
10004098:	f7ff f91e 	bl	100032d8 <usbd_edpt_claim>
1000409c:	2800      	cmp	r0, #0
1000409e:	d0ba      	beq.n	10004016 <tu_edpt_stream_read_xfer+0x1a>
100040a0:	7822      	ldrb	r2, [r4, #0]
100040a2:	8863      	ldrh	r3, [r4, #2]
100040a4:	4216      	tst	r6, r2
100040a6:	d1b6      	bne.n	10004016 <tu_edpt_stream_read_xfer+0x1a>
100040a8:	2200      	movs	r2, #0
100040aa:	7861      	ldrb	r1, [r4, #1]
100040ac:	2b00      	cmp	r3, #0
100040ae:	d000      	beq.n	100040b2 <tu_edpt_stream_read_xfer+0xb6>
100040b0:	6862      	ldr	r2, [r4, #4]
100040b2:	0028      	movs	r0, r5
100040b4:	f7ff f938 	bl	10003328 <usbd_edpt_xfer>
100040b8:	2800      	cmp	r0, #0
100040ba:	d0ac      	beq.n	10004016 <tu_edpt_stream_read_xfer+0x1a>
100040bc:	8860      	ldrh	r0, [r4, #2]
100040be:	e7ab      	b.n	10004018 <tu_edpt_stream_read_xfer+0x1c>
100040c0:	4642      	mov	r2, r8
100040c2:	7823      	ldrb	r3, [r4, #0]
100040c4:	421a      	tst	r2, r3
100040c6:	d1a6      	bne.n	10004016 <tu_edpt_stream_read_xfer+0x1a>
100040c8:	0028      	movs	r0, r5
100040ca:	7861      	ldrb	r1, [r4, #1]
100040cc:	f7ff f918 	bl	10003300 <usbd_edpt_release>
100040d0:	e7a1      	b.n	10004016 <tu_edpt_stream_read_xfer+0x1a>
100040d2:	46c0      	nop			@ (mov r8, r8)
100040d4:	0000ffc0 	.word	0x0000ffc0

100040d8 <tu_fifo_config>:
100040d8:	b5f0      	push	{r4, r5, r6, r7, lr}
100040da:	46c6      	mov	lr, r8
100040dc:	b500      	push	{lr}
100040de:	0004      	movs	r4, r0
100040e0:	a806      	add	r0, sp, #24
100040e2:	7805      	ldrb	r5, [r0, #0]
100040e4:	2080      	movs	r0, #128	@ 0x80
100040e6:	4688      	mov	r8, r1
100040e8:	0017      	movs	r7, r2
100040ea:	001e      	movs	r6, r3
100040ec:	0200      	lsls	r0, r0, #8
100040ee:	4282      	cmp	r2, r0
100040f0:	d826      	bhi.n	10004140 <tu_fifo_config+0x68>
100040f2:	68e0      	ldr	r0, [r4, #12]
100040f4:	2800      	cmp	r0, #0
100040f6:	d003      	beq.n	10004100 <tu_fifo_config+0x28>
100040f8:	2101      	movs	r1, #1
100040fa:	4249      	negs	r1, r1
100040fc:	f000 facc 	bl	10004698 <__mutex_enter_timeout_ms_veneer>
10004100:	6920      	ldr	r0, [r4, #16]
10004102:	2800      	cmp	r0, #0
10004104:	d003      	beq.n	1000410e <tu_fifo_config+0x36>
10004106:	2101      	movs	r1, #1
10004108:	4249      	negs	r1, r1
1000410a:	f000 fac5 	bl	10004698 <__mutex_enter_timeout_ms_veneer>
1000410e:	4643      	mov	r3, r8
10004110:	6023      	str	r3, [r4, #0]
10004112:	0473      	lsls	r3, r6, #17
10004114:	0c5b      	lsrs	r3, r3, #17
10004116:	03ed      	lsls	r5, r5, #15
10004118:	431d      	orrs	r5, r3
1000411a:	2300      	movs	r3, #0
1000411c:	68e0      	ldr	r0, [r4, #12]
1000411e:	8163      	strh	r3, [r4, #10]
10004120:	80a7      	strh	r7, [r4, #4]
10004122:	80e5      	strh	r5, [r4, #6]
10004124:	8123      	strh	r3, [r4, #8]
10004126:	2800      	cmp	r0, #0
10004128:	d001      	beq.n	1000412e <tu_fifo_config+0x56>
1000412a:	f000 fa8d 	bl	10004648 <__mutex_exit_veneer>
1000412e:	6920      	ldr	r0, [r4, #16]
10004130:	2800      	cmp	r0, #0
10004132:	d001      	beq.n	10004138 <tu_fifo_config+0x60>
10004134:	f000 fa88 	bl	10004648 <__mutex_exit_veneer>
10004138:	2001      	movs	r0, #1
1000413a:	bc80      	pop	{r7}
1000413c:	46b8      	mov	r8, r7
1000413e:	bdf0      	pop	{r4, r5, r6, r7, pc}
10004140:	2000      	movs	r0, #0
10004142:	e7fa      	b.n	1000413a <tu_fifo_config+0x62>

10004144 <tu_fifo_count>:
10004144:	b510      	push	{r4, lr}
10004146:	8904      	ldrh	r4, [r0, #8]
10004148:	8941      	ldrh	r1, [r0, #10]
1000414a:	8882      	ldrh	r2, [r0, #4]
1000414c:	b2a3      	uxth	r3, r4
1000414e:	b288      	uxth	r0, r1
10004150:	428c      	cmp	r4, r1
10004152:	d307      	bcc.n	10004164 <tu_fifo_count+0x20>
10004154:	1a1b      	subs	r3, r3, r0
10004156:	b29b      	uxth	r3, r3
10004158:	1c10      	adds	r0, r2, #0
1000415a:	429a      	cmp	r2, r3
1000415c:	d900      	bls.n	10004160 <tu_fifo_count+0x1c>
1000415e:	1c18      	adds	r0, r3, #0
10004160:	b280      	uxth	r0, r0
10004162:	bd10      	pop	{r4, pc}
10004164:	0051      	lsls	r1, r2, #1
10004166:	1a09      	subs	r1, r1, r0
10004168:	185b      	adds	r3, r3, r1
1000416a:	b29b      	uxth	r3, r3
1000416c:	e7f4      	b.n	10004158 <tu_fifo_count+0x14>
1000416e:	46c0      	nop			@ (mov r8, r8)

10004170 <tu_fifo_empty>:
10004170:	8903      	ldrh	r3, [r0, #8]
10004172:	8940      	ldrh	r0, [r0, #10]
10004174:	1a18      	subs	r0, r3, r0
10004176:	4243      	negs	r3, r0
10004178:	4158      	adcs	r0, r3
1000417a:	b2c0      	uxtb	r0, r0
1000417c:	4770      	bx	lr
1000417e:	46c0      	nop			@ (mov r8, r8)

10004180 <tu_fifo_remaining>:
10004180:	b510      	push	{r4, lr}
10004182:	8904      	ldrh	r4, [r0, #8]
10004184:	8941      	ldrh	r1, [r0, #10]
10004186:	8882      	ldrh	r2, [r0, #4]
10004188:	b2a3      	uxth	r3, r4
1000418a:	b288      	uxth	r0, r1
1000418c:	428c      	cmp	r4, r1
1000418e:	d307      	bcc.n	100041a0 <tu_fifo_remaining+0x20>
10004190:	1a1b      	subs	r3, r3, r0
10004192:	b29b      	uxth	r3, r3
10004194:	2000      	movs	r0, #0
10004196:	429a      	cmp	r2, r3
10004198:	d901      	bls.n	1000419e <tu_fifo_remaining+0x1e>
1000419a:	1ad2      	subs	r2, r2, r3
1000419c:	b290      	uxth	r0, r2
1000419e:	bd10      	pop	{r4, pc}
100041a0:	0051      	lsls	r1, r2, #1
100041a2:	1a09      	subs	r1, r1, r0
100041a4:	185b      	adds	r3, r3, r1
100041a6:	b29b      	uxth	r3, r3
100041a8:	e7f4      	b.n	10004194 <tu_fifo_remaining+0x14>
100041aa:	46c0      	nop			@ (mov r8, r8)

100041ac <tu_fifo_read>:
100041ac:	b570      	push	{r4, r5, r6, lr}
100041ae:	0004      	movs	r4, r0
100041b0:	6900      	ldr	r0, [r0, #16]
100041b2:	000e      	movs	r6, r1
100041b4:	2800      	cmp	r0, #0
100041b6:	d003      	beq.n	100041c0 <tu_fifo_read+0x14>
100041b8:	2101      	movs	r1, #1
100041ba:	4249      	negs	r1, r1
100041bc:	f000 fa6c 	bl	10004698 <__mutex_enter_timeout_ms_veneer>
100041c0:	8925      	ldrh	r5, [r4, #8]
100041c2:	8960      	ldrh	r0, [r4, #10]
100041c4:	88a2      	ldrh	r2, [r4, #4]
100041c6:	b2a9      	uxth	r1, r5
100041c8:	b283      	uxth	r3, r0
100041ca:	4285      	cmp	r5, r0
100041cc:	d32c      	bcc.n	10004228 <tu_fifo_read+0x7c>
100041ce:	1acd      	subs	r5, r1, r3
100041d0:	b2ad      	uxth	r5, r5
100041d2:	2d00      	cmp	r5, #0
100041d4:	d02e      	beq.n	10004234 <tu_fifo_read+0x88>
100041d6:	42aa      	cmp	r2, r5
100041d8:	d208      	bcs.n	100041ec <tu_fifo_read+0x40>
100041da:	4291      	cmp	r1, r2
100041dc:	d330      	bcc.n	10004240 <tu_fifo_read+0x94>
100041de:	1a89      	subs	r1, r1, r2
100041e0:	b28b      	uxth	r3, r1
100041e2:	8163      	strh	r3, [r4, #10]
100041e4:	429a      	cmp	r2, r3
100041e6:	d803      	bhi.n	100041f0 <tu_fifo_read+0x44>
100041e8:	1a9b      	subs	r3, r3, r2
100041ea:	b29b      	uxth	r3, r3
100041ec:	429a      	cmp	r2, r3
100041ee:	d9fb      	bls.n	100041e8 <tu_fifo_read+0x3c>
100041f0:	88e2      	ldrh	r2, [r4, #6]
100041f2:	6821      	ldr	r1, [r4, #0]
100041f4:	0452      	lsls	r2, r2, #17
100041f6:	0c52      	lsrs	r2, r2, #17
100041f8:	4353      	muls	r3, r2
100041fa:	0030      	movs	r0, r6
100041fc:	18c9      	adds	r1, r1, r3
100041fe:	f7fd fc85 	bl	10001b0c <__wrap___aeabi_memcpy>
10004202:	8963      	ldrh	r3, [r4, #10]
10004204:	2501      	movs	r5, #1
10004206:	1c59      	adds	r1, r3, #1
10004208:	b289      	uxth	r1, r1
1000420a:	88a2      	ldrh	r2, [r4, #4]
1000420c:	428b      	cmp	r3, r1
1000420e:	d913      	bls.n	10004238 <tu_fifo_read+0x8c>
10004210:	2100      	movs	r1, #0
10004212:	0052      	lsls	r2, r2, #1
10004214:	1a89      	subs	r1, r1, r2
10004216:	b289      	uxth	r1, r1
10004218:	6920      	ldr	r0, [r4, #16]
1000421a:	8161      	strh	r1, [r4, #10]
1000421c:	2800      	cmp	r0, #0
1000421e:	d001      	beq.n	10004224 <tu_fifo_read+0x78>
10004220:	f000 fa12 	bl	10004648 <__mutex_exit_veneer>
10004224:	0028      	movs	r0, r5
10004226:	bd70      	pop	{r4, r5, r6, pc}
10004228:	0055      	lsls	r5, r2, #1
1000422a:	1aed      	subs	r5, r5, r3
1000422c:	194d      	adds	r5, r1, r5
1000422e:	b2ad      	uxth	r5, r5
10004230:	2d00      	cmp	r5, #0
10004232:	d1d0      	bne.n	100041d6 <tu_fifo_read+0x2a>
10004234:	8961      	ldrh	r1, [r4, #10]
10004236:	b289      	uxth	r1, r1
10004238:	0052      	lsls	r2, r2, #1
1000423a:	4291      	cmp	r1, r2
1000423c:	dbec      	blt.n	10004218 <tu_fifo_read+0x6c>
1000423e:	e7e9      	b.n	10004214 <tu_fifo_read+0x68>
10004240:	1889      	adds	r1, r1, r2
10004242:	b28b      	uxth	r3, r1
10004244:	8163      	strh	r3, [r4, #10]
10004246:	e7cd      	b.n	100041e4 <tu_fifo_read+0x38>

10004248 <tu_fifo_read_n>:
10004248:	b5f0      	push	{r4, r5, r6, r7, lr}
1000424a:	4646      	mov	r6, r8
1000424c:	464f      	mov	r7, r9
1000424e:	46d6      	mov	lr, sl
10004250:	b5c0      	push	{r6, r7, lr}
10004252:	0006      	movs	r6, r0
10004254:	6900      	ldr	r0, [r0, #16]
10004256:	4689      	mov	r9, r1
10004258:	4690      	mov	r8, r2
1000425a:	2800      	cmp	r0, #0
1000425c:	d003      	beq.n	10004266 <tu_fifo_read_n+0x1e>
1000425e:	2101      	movs	r1, #1
10004260:	4249      	negs	r1, r1
10004262:	f000 fa19 	bl	10004698 <__mutex_enter_timeout_ms_veneer>
10004266:	8931      	ldrh	r1, [r6, #8]
10004268:	8972      	ldrh	r2, [r6, #10]
1000426a:	88b5      	ldrh	r5, [r6, #4]
1000426c:	b28b      	uxth	r3, r1
1000426e:	b294      	uxth	r4, r2
10004270:	4291      	cmp	r1, r2
10004272:	d354      	bcc.n	1000431e <tu_fifo_read_n+0xd6>
10004274:	1b1f      	subs	r7, r3, r4
10004276:	b2bf      	uxth	r7, r7
10004278:	2f00      	cmp	r7, #0
1000427a:	d04a      	beq.n	10004312 <tu_fifo_read_n+0xca>
1000427c:	42bd      	cmp	r5, r7
1000427e:	d205      	bcs.n	1000428c <tu_fifo_read_n+0x44>
10004280:	42ab      	cmp	r3, r5
10004282:	d251      	bcs.n	10004328 <tu_fifo_read_n+0xe0>
10004284:	195b      	adds	r3, r3, r5
10004286:	b29c      	uxth	r4, r3
10004288:	002f      	movs	r7, r5
1000428a:	8174      	strh	r4, [r6, #10]
1000428c:	4643      	mov	r3, r8
1000428e:	45b8      	cmp	r8, r7
10004290:	d83d      	bhi.n	1000430e <tu_fifo_read_n+0xc6>
10004292:	b29f      	uxth	r7, r3
10004294:	42a5      	cmp	r5, r4
10004296:	d803      	bhi.n	100042a0 <tu_fifo_read_n+0x58>
10004298:	1b64      	subs	r4, r4, r5
1000429a:	b2a4      	uxth	r4, r4
1000429c:	42a5      	cmp	r5, r4
1000429e:	d9fb      	bls.n	10004298 <tu_fifo_read_n+0x50>
100042a0:	88f2      	ldrh	r2, [r6, #6]
100042a2:	6831      	ldr	r1, [r6, #0]
100042a4:	0452      	lsls	r2, r2, #17
100042a6:	0c52      	lsrs	r2, r2, #17
100042a8:	4690      	mov	r8, r2
100042aa:	4362      	muls	r2, r4
100042ac:	1b2b      	subs	r3, r5, r4
100042ae:	b29b      	uxth	r3, r3
100042b0:	1889      	adds	r1, r1, r2
100042b2:	4642      	mov	r2, r8
100042b4:	429f      	cmp	r7, r3
100042b6:	d925      	bls.n	10004304 <tu_fifo_read_n+0xbc>
100042b8:	4353      	muls	r3, r2
100042ba:	b29b      	uxth	r3, r3
100042bc:	001a      	movs	r2, r3
100042be:	4648      	mov	r0, r9
100042c0:	469a      	mov	sl, r3
100042c2:	f7fd fc23 	bl	10001b0c <__wrap___aeabi_memcpy>
100042c6:	4643      	mov	r3, r8
100042c8:	4648      	mov	r0, r9
100042ca:	1b7d      	subs	r5, r7, r5
100042cc:	1964      	adds	r4, r4, r5
100042ce:	435c      	muls	r4, r3
100042d0:	6831      	ldr	r1, [r6, #0]
100042d2:	4450      	add	r0, sl
100042d4:	b2a2      	uxth	r2, r4
100042d6:	f7fd fc19 	bl	10001b0c <__wrap___aeabi_memcpy>
100042da:	8971      	ldrh	r1, [r6, #10]
100042dc:	88b5      	ldrh	r5, [r6, #4]
100042de:	19cb      	adds	r3, r1, r7
100042e0:	b29b      	uxth	r3, r3
100042e2:	006a      	lsls	r2, r5, #1
100042e4:	4299      	cmp	r1, r3
100042e6:	d916      	bls.n	10004316 <tu_fifo_read_n+0xce>
100042e8:	1a9b      	subs	r3, r3, r2
100042ea:	b29b      	uxth	r3, r3
100042ec:	6930      	ldr	r0, [r6, #16]
100042ee:	8173      	strh	r3, [r6, #10]
100042f0:	2800      	cmp	r0, #0
100042f2:	d001      	beq.n	100042f8 <tu_fifo_read_n+0xb0>
100042f4:	f000 f9a8 	bl	10004648 <__mutex_exit_veneer>
100042f8:	0038      	movs	r0, r7
100042fa:	bce0      	pop	{r5, r6, r7}
100042fc:	46ba      	mov	sl, r7
100042fe:	46b1      	mov	r9, r6
10004300:	46a8      	mov	r8, r5
10004302:	bdf0      	pop	{r4, r5, r6, r7, pc}
10004304:	4648      	mov	r0, r9
10004306:	437a      	muls	r2, r7
10004308:	f7fd fc00 	bl	10001b0c <__wrap___aeabi_memcpy>
1000430c:	e7e5      	b.n	100042da <tu_fifo_read_n+0x92>
1000430e:	1c3b      	adds	r3, r7, #0
10004310:	e7bf      	b.n	10004292 <tu_fifo_read_n+0x4a>
10004312:	8973      	ldrh	r3, [r6, #10]
10004314:	b29b      	uxth	r3, r3
10004316:	006a      	lsls	r2, r5, #1
10004318:	4293      	cmp	r3, r2
1000431a:	dbe7      	blt.n	100042ec <tu_fifo_read_n+0xa4>
1000431c:	e7e4      	b.n	100042e8 <tu_fifo_read_n+0xa0>
1000431e:	006f      	lsls	r7, r5, #1
10004320:	1b3f      	subs	r7, r7, r4
10004322:	19df      	adds	r7, r3, r7
10004324:	b2bf      	uxth	r7, r7
10004326:	e7a7      	b.n	10004278 <tu_fifo_read_n+0x30>
10004328:	1b5b      	subs	r3, r3, r5
1000432a:	b29c      	uxth	r4, r3
1000432c:	e7ac      	b.n	10004288 <tu_fifo_read_n+0x40>
1000432e:	46c0      	nop			@ (mov r8, r8)

10004330 <tu_fifo_write>:
10004330:	b5f8      	push	{r3, r4, r5, r6, r7, lr}
10004332:	0004      	movs	r4, r0
10004334:	68c0      	ldr	r0, [r0, #12]
10004336:	000e      	movs	r6, r1
10004338:	2800      	cmp	r0, #0
1000433a:	d003      	beq.n	10004344 <tu_fifo_write+0x14>
1000433c:	2101      	movs	r1, #1
1000433e:	4249      	negs	r1, r1
10004340:	f000 f9aa 	bl	10004698 <__mutex_enter_timeout_ms_veneer>
10004344:	8925      	ldrh	r5, [r4, #8]
10004346:	8920      	ldrh	r0, [r4, #8]
10004348:	8961      	ldrh	r1, [r4, #10]
1000434a:	88a2      	ldrh	r2, [r4, #4]
1000434c:	b2ad      	uxth	r5, r5
1000434e:	b283      	uxth	r3, r0
10004350:	b28f      	uxth	r7, r1
10004352:	4288      	cmp	r0, r1
10004354:	d329      	bcc.n	100043aa <tu_fifo_write+0x7a>
10004356:	1bdb      	subs	r3, r3, r7
10004358:	b29b      	uxth	r3, r3
1000435a:	429a      	cmp	r2, r3
1000435c:	d809      	bhi.n	10004372 <tu_fifo_write+0x42>
1000435e:	79e7      	ldrb	r7, [r4, #7]
10004360:	09ff      	lsrs	r7, r7, #7
10004362:	d106      	bne.n	10004372 <tu_fifo_write+0x42>
10004364:	68e0      	ldr	r0, [r4, #12]
10004366:	2800      	cmp	r0, #0
10004368:	d001      	beq.n	1000436e <tu_fifo_write+0x3e>
1000436a:	f000 f96d 	bl	10004648 <__mutex_exit_veneer>
1000436e:	0038      	movs	r0, r7
10004370:	bdf8      	pop	{r3, r4, r5, r6, r7, pc}
10004372:	4295      	cmp	r5, r2
10004374:	d31e      	bcc.n	100043b4 <tu_fifo_write+0x84>
10004376:	002b      	movs	r3, r5
10004378:	1a9b      	subs	r3, r3, r2
1000437a:	b29b      	uxth	r3, r3
1000437c:	4293      	cmp	r3, r2
1000437e:	d2fb      	bcs.n	10004378 <tu_fifo_write+0x48>
10004380:	88e2      	ldrh	r2, [r4, #6]
10004382:	6820      	ldr	r0, [r4, #0]
10004384:	0452      	lsls	r2, r2, #17
10004386:	0c52      	lsrs	r2, r2, #17
10004388:	4353      	muls	r3, r2
1000438a:	0031      	movs	r1, r6
1000438c:	18c0      	adds	r0, r0, r3
1000438e:	f7fd fbbd 	bl	10001b0c <__wrap___aeabi_memcpy>
10004392:	1c6b      	adds	r3, r5, #1
10004394:	b29b      	uxth	r3, r3
10004396:	88a2      	ldrh	r2, [r4, #4]
10004398:	429d      	cmp	r5, r3
1000439a:	d918      	bls.n	100043ce <tu_fifo_write+0x9e>
1000439c:	2300      	movs	r3, #0
1000439e:	0052      	lsls	r2, r2, #1
100043a0:	1a9b      	subs	r3, r3, r2
100043a2:	b29b      	uxth	r3, r3
100043a4:	2701      	movs	r7, #1
100043a6:	8123      	strh	r3, [r4, #8]
100043a8:	e7dc      	b.n	10004364 <tu_fifo_write+0x34>
100043aa:	0051      	lsls	r1, r2, #1
100043ac:	1bc9      	subs	r1, r1, r7
100043ae:	185b      	adds	r3, r3, r1
100043b0:	b29b      	uxth	r3, r3
100043b2:	e7d2      	b.n	1000435a <tu_fifo_write+0x2a>
100043b4:	002b      	movs	r3, r5
100043b6:	88e2      	ldrh	r2, [r4, #6]
100043b8:	6820      	ldr	r0, [r4, #0]
100043ba:	0452      	lsls	r2, r2, #17
100043bc:	0c52      	lsrs	r2, r2, #17
100043be:	4353      	muls	r3, r2
100043c0:	0031      	movs	r1, r6
100043c2:	18c0      	adds	r0, r0, r3
100043c4:	f7fd fba2 	bl	10001b0c <__wrap___aeabi_memcpy>
100043c8:	3501      	adds	r5, #1
100043ca:	88a2      	ldrh	r2, [r4, #4]
100043cc:	b2ab      	uxth	r3, r5
100043ce:	0052      	lsls	r2, r2, #1
100043d0:	4293      	cmp	r3, r2
100043d2:	dbe7      	blt.n	100043a4 <tu_fifo_write+0x74>
100043d4:	e7e4      	b.n	100043a0 <tu_fifo_write+0x70>
100043d6:	46c0      	nop			@ (mov r8, r8)

100043d8 <tu_fifo_write_n>:
100043d8:	b5f0      	push	{r4, r5, r6, r7, lr}
100043da:	4657      	mov	r7, sl
100043dc:	4645      	mov	r5, r8
100043de:	46de      	mov	lr, fp
100043e0:	464e      	mov	r6, r9
100043e2:	b5e0      	push	{r5, r6, r7, lr}
100043e4:	0014      	movs	r4, r2
100043e6:	0005      	movs	r5, r0
100043e8:	000f      	movs	r7, r1
100043ea:	b083      	sub	sp, #12
100043ec:	2a00      	cmp	r2, #0
100043ee:	d075      	beq.n	100044dc <tu_fifo_write_n+0x104>
100043f0:	68c0      	ldr	r0, [r0, #12]
100043f2:	2800      	cmp	r0, #0
100043f4:	d003      	beq.n	100043fe <tu_fifo_write_n+0x26>
100043f6:	2101      	movs	r1, #1
100043f8:	4249      	negs	r1, r1
100043fa:	f000 f94d 	bl	10004698 <__mutex_enter_timeout_ms_veneer>
100043fe:	892e      	ldrh	r6, [r5, #8]
10004400:	79e9      	ldrb	r1, [r5, #7]
10004402:	896a      	ldrh	r2, [r5, #10]
10004404:	88ab      	ldrh	r3, [r5, #4]
10004406:	b2b6      	uxth	r6, r6
10004408:	b292      	uxth	r2, r2
1000440a:	09c9      	lsrs	r1, r1, #7
1000440c:	d145      	bne.n	1000449a <tu_fifo_write_n+0xc2>
1000440e:	4296      	cmp	r6, r2
10004410:	d300      	bcc.n	10004414 <tu_fifo_write_n+0x3c>
10004412:	e06d      	b.n	100044f0 <tu_fifo_write_n+0x118>
10004414:	0059      	lsls	r1, r3, #1
10004416:	1a8a      	subs	r2, r1, r2
10004418:	18b2      	adds	r2, r6, r2
1000441a:	b292      	uxth	r2, r2
1000441c:	2100      	movs	r1, #0
1000441e:	4689      	mov	r9, r1
10004420:	429a      	cmp	r2, r3
10004422:	d234      	bcs.n	1000448e <tu_fifo_write_n+0xb6>
10004424:	1a9a      	subs	r2, r3, r2
10004426:	1c11      	adds	r1, r2, #0
10004428:	b292      	uxth	r2, r2
1000442a:	42a2      	cmp	r2, r4
1000442c:	d900      	bls.n	10004430 <tu_fifo_write_n+0x58>
1000442e:	1c21      	adds	r1, r4, #0
10004430:	b28a      	uxth	r2, r1
10004432:	4691      	mov	r9, r2
10004434:	88ea      	ldrh	r2, [r5, #6]
10004436:	0452      	lsls	r2, r2, #17
10004438:	0c52      	lsrs	r2, r2, #17
1000443a:	4690      	mov	r8, r2
1000443c:	464a      	mov	r2, r9
1000443e:	18b2      	adds	r2, r6, r2
10004440:	b292      	uxth	r2, r2
10004442:	4692      	mov	sl, r2
10004444:	464a      	mov	r2, r9
10004446:	1ad2      	subs	r2, r2, r3
10004448:	b292      	uxth	r2, r2
1000444a:	4693      	mov	fp, r2
1000444c:	0034      	movs	r4, r6
1000444e:	429e      	cmp	r6, r3
10004450:	d303      	bcc.n	1000445a <tu_fifo_write_n+0x82>
10004452:	1ae4      	subs	r4, r4, r3
10004454:	b2a4      	uxth	r4, r4
10004456:	429c      	cmp	r4, r3
10004458:	d2fb      	bcs.n	10004452 <tu_fifo_write_n+0x7a>
1000445a:	4642      	mov	r2, r8
1000445c:	4362      	muls	r2, r4
1000445e:	6828      	ldr	r0, [r5, #0]
10004460:	1b1b      	subs	r3, r3, r4
10004462:	b29b      	uxth	r3, r3
10004464:	1880      	adds	r0, r0, r2
10004466:	4642      	mov	r2, r8
10004468:	454b      	cmp	r3, r9
1000446a:	d354      	bcc.n	10004516 <tu_fifo_write_n+0x13e>
1000446c:	464b      	mov	r3, r9
1000446e:	0039      	movs	r1, r7
10004470:	435a      	muls	r2, r3
10004472:	f7fd fb4b 	bl	10001b0c <__wrap___aeabi_memcpy>
10004476:	88ab      	ldrh	r3, [r5, #4]
10004478:	005b      	lsls	r3, r3, #1
1000447a:	4556      	cmp	r6, sl
1000447c:	d801      	bhi.n	10004482 <tu_fifo_write_n+0xaa>
1000447e:	459a      	cmp	sl, r3
10004480:	db03      	blt.n	1000448a <tu_fifo_write_n+0xb2>
10004482:	4652      	mov	r2, sl
10004484:	1ad3      	subs	r3, r2, r3
10004486:	b29b      	uxth	r3, r3
10004488:	469a      	mov	sl, r3
1000448a:	4653      	mov	r3, sl
1000448c:	812b      	strh	r3, [r5, #8]
1000448e:	68e8      	ldr	r0, [r5, #12]
10004490:	2800      	cmp	r0, #0
10004492:	d025      	beq.n	100044e0 <tu_fifo_write_n+0x108>
10004494:	f000 f8d8 	bl	10004648 <__mutex_exit_veneer>
10004498:	e022      	b.n	100044e0 <tu_fifo_write_n+0x108>
1000449a:	88e9      	ldrh	r1, [r5, #6]
1000449c:	0449      	lsls	r1, r1, #17
1000449e:	0c49      	lsrs	r1, r1, #17
100044a0:	4688      	mov	r8, r1
100044a2:	429c      	cmp	r4, r3
100044a4:	d227      	bcs.n	100044f6 <tu_fifo_write_n+0x11e>
100044a6:	4296      	cmp	r6, r2
100044a8:	d347      	bcc.n	1000453a <tu_fifo_write_n+0x162>
100044aa:	1ab1      	subs	r1, r6, r2
100044ac:	b289      	uxth	r1, r1
100044ae:	468c      	mov	ip, r1
100044b0:	0058      	lsls	r0, r3, #1
100044b2:	1ae1      	subs	r1, r4, r3
100044b4:	b289      	uxth	r1, r1
100044b6:	468b      	mov	fp, r1
100044b8:	4661      	mov	r1, ip
100044ba:	1909      	adds	r1, r1, r4
100044bc:	4281      	cmp	r1, r0
100044be:	db08      	blt.n	100044d2 <tu_fifo_write_n+0xfa>
100044c0:	18d1      	adds	r1, r2, r3
100044c2:	b289      	uxth	r1, r1
100044c4:	1b0e      	subs	r6, r1, r4
100044c6:	b2b6      	uxth	r6, r6
100044c8:	468a      	mov	sl, r1
100044ca:	42b2      	cmp	r2, r6
100044cc:	d93b      	bls.n	10004546 <tu_fifo_write_n+0x16e>
100044ce:	1a36      	subs	r6, r6, r0
100044d0:	b2b6      	uxth	r6, r6
100044d2:	19a2      	adds	r2, r4, r6
100044d4:	b292      	uxth	r2, r2
100044d6:	4692      	mov	sl, r2
100044d8:	46a1      	mov	r9, r4
100044da:	e7b7      	b.n	1000444c <tu_fifo_write_n+0x74>
100044dc:	2300      	movs	r3, #0
100044de:	4699      	mov	r9, r3
100044e0:	4648      	mov	r0, r9
100044e2:	b003      	add	sp, #12
100044e4:	bcf0      	pop	{r4, r5, r6, r7}
100044e6:	46bb      	mov	fp, r7
100044e8:	46b2      	mov	sl, r6
100044ea:	46a9      	mov	r9, r5
100044ec:	46a0      	mov	r8, r4
100044ee:	bdf0      	pop	{r4, r5, r6, r7, pc}
100044f0:	1ab2      	subs	r2, r6, r2
100044f2:	b292      	uxth	r2, r2
100044f4:	e792      	b.n	1000441c <tu_fifo_write_n+0x44>
100044f6:	2100      	movs	r1, #0
100044f8:	4689      	mov	r9, r1
100044fa:	2b00      	cmp	r3, #0
100044fc:	d0c7      	beq.n	1000448e <tu_fifo_write_n+0xb6>
100044fe:	4641      	mov	r1, r8
10004500:	1ae4      	subs	r4, r4, r3
10004502:	434c      	muls	r4, r1
10004504:	0016      	movs	r6, r2
10004506:	18d1      	adds	r1, r2, r3
10004508:	2200      	movs	r2, #0
1000450a:	b289      	uxth	r1, r1
1000450c:	468a      	mov	sl, r1
1000450e:	4699      	mov	r9, r3
10004510:	4693      	mov	fp, r2
10004512:	193f      	adds	r7, r7, r4
10004514:	e79a      	b.n	1000444c <tu_fifo_write_n+0x74>
10004516:	4353      	muls	r3, r2
10004518:	b29b      	uxth	r3, r3
1000451a:	001a      	movs	r2, r3
1000451c:	0039      	movs	r1, r7
1000451e:	445c      	add	r4, fp
10004520:	9301      	str	r3, [sp, #4]
10004522:	f7fd faf3 	bl	10001b0c <__wrap___aeabi_memcpy>
10004526:	4641      	mov	r1, r8
10004528:	0022      	movs	r2, r4
1000452a:	434a      	muls	r2, r1
1000452c:	9b01      	ldr	r3, [sp, #4]
1000452e:	6828      	ldr	r0, [r5, #0]
10004530:	b292      	uxth	r2, r2
10004532:	18f9      	adds	r1, r7, r3
10004534:	f7fd faea 	bl	10001b0c <__wrap___aeabi_memcpy>
10004538:	e79d      	b.n	10004476 <tu_fifo_write_n+0x9e>
1000453a:	0058      	lsls	r0, r3, #1
1000453c:	1a81      	subs	r1, r0, r2
1000453e:	1871      	adds	r1, r6, r1
10004540:	b289      	uxth	r1, r1
10004542:	468c      	mov	ip, r1
10004544:	e7b5      	b.n	100044b2 <tu_fifo_write_n+0xda>
10004546:	46a1      	mov	r9, r4
10004548:	42b0      	cmp	r0, r6
1000454a:	dd00      	ble.n	1000454e <tu_fifo_write_n+0x176>
1000454c:	e77e      	b.n	1000444c <tu_fifo_write_n+0x74>
1000454e:	e7be      	b.n	100044ce <tu_fifo_write_n+0xf6>

10004550 <tu_fifo_clear>:
10004550:	b510      	push	{r4, lr}
10004552:	0004      	movs	r4, r0
10004554:	68c0      	ldr	r0, [r0, #12]
10004556:	2800      	cmp	r0, #0
10004558:	d003      	beq.n	10004562 <tu_fifo_clear+0x12>
1000455a:	2101      	movs	r1, #1
1000455c:	4249      	negs	r1, r1
1000455e:	f000 f89b 	bl	10004698 <__mutex_enter_timeout_ms_veneer>
10004562:	6920      	ldr	r0, [r4, #16]
10004564:	2800      	cmp	r0, #0
10004566:	d003      	beq.n	10004570 <tu_fifo_clear+0x20>
10004568:	2101      	movs	r1, #1
1000456a:	4249      	negs	r1, r1
1000456c:	f000 f894 	bl	10004698 <__mutex_enter_timeout_ms_veneer>
10004570:	2300      	movs	r3, #0
10004572:	68e0      	ldr	r0, [r4, #12]
10004574:	8163      	strh	r3, [r4, #10]
10004576:	8123      	strh	r3, [r4, #8]
10004578:	2800      	cmp	r0, #0
1000457a:	d001      	beq.n	10004580 <tu_fifo_clear+0x30>
1000457c:	f000 f864 	bl	10004648 <__mutex_exit_veneer>
10004580:	6920      	ldr	r0, [r4, #16]
10004582:	2800      	cmp	r0, #0
10004584:	d001      	beq.n	1000458a <tu_fifo_clear+0x3a>
10004586:	f000 f85f 	bl	10004648 <__mutex_exit_veneer>
1000458a:	2001      	movs	r0, #1
1000458c:	bd10      	pop	{r4, pc}
1000458e:	46c0      	nop			@ (mov r8, r8)

10004590 <tu_fifo_set_overwritable>:
10004590:	b570      	push	{r4, r5, r6, lr}
10004592:	0004      	movs	r4, r0
10004594:	68c0      	ldr	r0, [r0, #12]
10004596:	000d      	movs	r5, r1
10004598:	2800      	cmp	r0, #0
1000459a:	d003      	beq.n	100045a4 <tu_fifo_set_overwritable+0x14>
1000459c:	2101      	movs	r1, #1
1000459e:	4249      	negs	r1, r1
100045a0:	f000 f87a 	bl	10004698 <__mutex_enter_timeout_ms_veneer>
100045a4:	6920      	ldr	r0, [r4, #16]
100045a6:	2800      	cmp	r0, #0
100045a8:	d003      	beq.n	100045b2 <tu_fifo_set_overwritable+0x22>
100045aa:	2101      	movs	r1, #1
100045ac:	4249      	negs	r1, r1
100045ae:	f000 f873 	bl	10004698 <__mutex_enter_timeout_ms_veneer>
100045b2:	217f      	movs	r1, #127	@ 0x7f
100045b4:	79e3      	ldrb	r3, [r4, #7]
100045b6:	01ed      	lsls	r5, r5, #7
100045b8:	4019      	ands	r1, r3
100045ba:	68e0      	ldr	r0, [r4, #12]
100045bc:	4329      	orrs	r1, r5
100045be:	71e1      	strb	r1, [r4, #7]
100045c0:	2800      	cmp	r0, #0
100045c2:	d001      	beq.n	100045c8 <tu_fifo_set_overwritable+0x38>
100045c4:	f000 f840 	bl	10004648 <__mutex_exit_veneer>
100045c8:	6920      	ldr	r0, [r4, #16]
100045ca:	2800      	cmp	r0, #0
100045cc:	d001      	beq.n	100045d2 <tu_fifo_set_overwritable+0x42>
100045ce:	f000 f83b 	bl	10004648 <__mutex_exit_veneer>
100045d2:	2001      	movs	r0, #1
100045d4:	bd70      	pop	{r4, r5, r6, pc}
100045d6:	46c0      	nop			@ (mov r8, r8)

100045d8 <strlen>:
100045d8:	b510      	push	{r4, lr}
100045da:	0783      	lsls	r3, r0, #30
100045dc:	d00a      	beq.n	100045f4 <strlen+0x1c>
100045de:	0003      	movs	r3, r0
100045e0:	2103      	movs	r1, #3
100045e2:	e002      	b.n	100045ea <strlen+0x12>
100045e4:	3301      	adds	r3, #1
100045e6:	420b      	tst	r3, r1
100045e8:	d005      	beq.n	100045f6 <strlen+0x1e>
100045ea:	781a      	ldrb	r2, [r3, #0]
100045ec:	2a00      	cmp	r2, #0
100045ee:	d1f9      	bne.n	100045e4 <strlen+0xc>
100045f0:	1a18      	subs	r0, r3, r0
100045f2:	bd10      	pop	{r4, pc}
100045f4:	0003      	movs	r3, r0
100045f6:	6819      	ldr	r1, [r3, #0]
100045f8:	4a0c      	ldr	r2, [pc, #48]	@ (1000462c <strlen+0x54>)
100045fa:	4c0d      	ldr	r4, [pc, #52]	@ (10004630 <strlen+0x58>)
100045fc:	188a      	adds	r2, r1, r2
100045fe:	438a      	bics	r2, r1
10004600:	4222      	tst	r2, r4
10004602:	d10f      	bne.n	10004624 <strlen+0x4c>
10004604:	6859      	ldr	r1, [r3, #4]
10004606:	4a09      	ldr	r2, [pc, #36]	@ (1000462c <strlen+0x54>)
10004608:	3304      	adds	r3, #4
1000460a:	188a      	adds	r2, r1, r2
1000460c:	438a      	bics	r2, r1
1000460e:	4222      	tst	r2, r4
10004610:	d108      	bne.n	10004624 <strlen+0x4c>
10004612:	6859      	ldr	r1, [r3, #4]
10004614:	4a05      	ldr	r2, [pc, #20]	@ (1000462c <strlen+0x54>)
10004616:	3304      	adds	r3, #4
10004618:	188a      	adds	r2, r1, r2
1000461a:	438a      	bics	r2, r1
1000461c:	4222      	tst	r2, r4
1000461e:	d0f1      	beq.n	10004604 <strlen+0x2c>
10004620:	e000      	b.n	10004624 <strlen+0x4c>
10004622:	3301      	adds	r3, #1
10004624:	781a      	ldrb	r2, [r3, #0]
10004626:	2a00      	cmp	r2, #0
10004628:	d1fb      	bne.n	10004622 <strlen+0x4a>
1000462a:	e7e1      	b.n	100045f0 <strlen+0x18>
1000462c:	fefefeff 	.word	0xfefefeff
10004630:	80808080 	.word	0x80808080

10004634 <_fini>:
10004634:	b5f8      	push	{r3, r4, r5, r6, r7, lr}
10004636:	46c0      	nop			@ (mov r8, r8)

10004638 <__flash_do_cmd_veneer>:
10004638:	b401      	push	{r0}
1000463a:	4802      	ldr	r0, [pc, #8]	@ (10004644 <__flash_do_cmd_veneer+0xc>)
1000463c:	4684      	mov	ip, r0
1000463e:	bc01      	pop	{r0}
10004640:	4760      	bx	ip
10004642:	bf00      	nop
10004644:	200002c9 	.word	0x200002c9

10004648 <__mutex_exit_veneer>:
10004648:	b401      	push	{r0}
1000464a:	4802      	ldr	r0, [pc, #8]	@ (10004654 <__mutex_exit_veneer+0xc>)
1000464c:	4684      	mov	ip, r0
1000464e:	bc01      	pop	{r0}
10004650:	4760      	bx	ip
10004652:	bf00      	nop
10004654:	2000022d 	.word	0x2000022d

10004658 <__e15_is_bulkin_ep_veneer>:
10004658:	b401      	push	{r0}
1000465a:	4802      	ldr	r0, [pc, #8]	@ (10004664 <__e15_is_bulkin_ep_veneer+0xc>)
1000465c:	4684      	mov	ip, r0
1000465e:	bc01      	pop	{r0}
10004660:	4760      	bx	ip
10004662:	bf00      	nop
10004664:	20000bc9 	.word	0x20000bc9

10004668 <__e15_is_critical_frame_period_veneer>:
10004668:	b401      	push	{r0}
1000466a:	4802      	ldr	r0, [pc, #8]	@ (10004674 <__e15_is_critical_frame_period_veneer+0xc>)
1000466c:	4684      	mov	ip, r0
1000466e:	bc01      	pop	{r0}
10004670:	4760      	bx	ip
10004672:	bf00      	nop
10004674:	20000bf1 	.word	0x20000bf1

10004678 <____aeabi_idiv0_veneer>:
10004678:	b401      	push	{r0}
1000467a:	4802      	ldr	r0, [pc, #8]	@ (10004684 <____aeabi_idiv0_veneer+0xc>)
1000467c:	4684      	mov	ip, r0
1000467e:	bc01      	pop	{r0}
10004680:	4760      	bx	ip
10004682:	bf00      	nop
10004684:	20000f11 	.word	0x20000f11

10004688 <__mutex_try_enter_veneer>:
10004688:	b401      	push	{r0}
1000468a:	4802      	ldr	r0, [pc, #8]	@ (10004694 <__mutex_try_enter_veneer+0xc>)
1000468c:	4684      	mov	ip, r0
1000468e:	bc01      	pop	{r0}
10004690:	4760      	bx	ip
10004692:	bf00      	nop
10004694:	200000c1 	.word	0x200000c1

10004698 <__mutex_enter_timeout_ms_veneer>:
10004698:	b401      	push	{r0}
1000469a:	4802      	ldr	r0, [pc, #8]	@ (100046a4 <__mutex_enter_timeout_ms_veneer+0xc>)
1000469c:	4684      	mov	ip, r0
1000469e:	bc01      	pop	{r0}
100046a0:	4760      	bx	ip
100046a2:	bf00      	nop
100046a4:	2000019d 	.word	0x2000019d

100046a8 <__reset_non_control_endpoints_veneer>:
100046a8:	b401      	push	{r0}
100046aa:	4802      	ldr	r0, [pc, #8]	@ (100046b4 <__reset_non_control_endpoints_veneer+0xc>)
100046ac:	4684      	mov	ip, r0
100046ae:	bc01      	pop	{r0}
100046b0:	4760      	bx	ip
100046b2:	bf00      	nop
100046b4:	20000389 	.word	0x20000389

100046b8 <__mutex_try_enter_block_until_veneer>:
100046b8:	b401      	push	{r0}
100046ba:	4802      	ldr	r0, [pc, #8]	@ (100046c4 <__mutex_try_enter_block_until_veneer+0xc>)
100046bc:	4684      	mov	ip, r0
100046be:	bc01      	pop	{r0}
100046c0:	4760      	bx	ip
100046c2:	bf00      	nop
100046c4:	20000101 	.word	0x20000101

100046c8 <__hw_endpoint_start_next_buffer_veneer>:
100046c8:	b401      	push	{r0}
100046ca:	4802      	ldr	r0, [pc, #8]	@ (100046d4 <__hw_endpoint_start_next_buffer_veneer+0xc>)
100046cc:	4684      	mov	ip, r0
100046ce:	bc01      	pop	{r0}
100046d0:	4760      	bx	ip
100046d2:	bf00      	nop
100046d4:	20000c81 	.word	0x20000c81

100046d8 <___hw_endpoint_buffer_control_update32_veneer>:
100046d8:	b401      	push	{r0}
100046da:	4802      	ldr	r0, [pc, #8]	@ (100046e4 <___hw_endpoint_buffer_control_update32_veneer+0xc>)
100046dc:	4684      	mov	ip, r0
100046de:	bc01      	pop	{r0}
100046e0:	4760      	bx	ip
100046e2:	bf00      	nop
100046e4:	20000c31 	.word	0x20000c31

100046e8 <__pre_init_runtime_init_early_resets>:
100046e8:	100017a9                                ....

100046ec <__pre_init_runtime_init_usb_power_down>:
100046ec:	100017d5 10001921 10001af1 10001989     ....!...........
100046fc:	10001a95                                ....

10004700 <__pre_init_runtime_init_clocks>:
10004700:	10001849                                I...

10004704 <__pre_init_runtime_init_post_clock_resets>:
10004704:	100017f1                                ....

10004708 <__pre_init_runtime_init_rp2040_gpio_ie_disable>:
10004708:	10001811                                ....

1000470c <__pre_init_runtime_init_spin_locks_reset>:
1000470c:	10001825                                %...

10004710 <__pre_init_runtime_init_mutex>:
10004710:	10000a95                                ....

10004714 <__pre_init_runtime_init_install_ram_vector_table>:
10004714:	1000182d                                -...

10004718 <__pre_init_runtime_init_default_alarm_pool>:
10004718:	10000e5d                                ]...

1000471c <__pre_init_first_per_core_initializer>:
1000471c:	10001771                                q...

10004720 <__pre_init_runtime_init_per_core_irq_priorities>:
10004720:	100006c1                                ....

10004724 <__frame_dummy_init_array_entry>:
10004724:	100002b1 100023f5                       .....#..

Disassembly of section .data:

200000c0 <mutex_try_enter>:
200000c0:	0003      	movs	r3, r0
200000c2:	6800      	ldr	r0, [r0, #0]
200000c4:	f3ef 8c10 	mrs	ip, PRIMASK
200000c8:	b672      	cpsid	i
200000ca:	6802      	ldr	r2, [r0, #0]
200000cc:	2a00      	cmp	r2, #0
200000ce:	d0fc      	beq.n	200000ca <mutex_try_enter+0xa>
200000d0:	f3bf 8f5f 	dmb	sy
200000d4:	2204      	movs	r2, #4
200000d6:	569a      	ldrsb	r2, [r3, r2]
200000d8:	2a00      	cmp	r2, #0
200000da:	db04      	blt.n	200000e6 <mutex_try_enter+0x26>
200000dc:	2900      	cmp	r1, #0
200000de:	d000      	beq.n	200000e2 <mutex_try_enter+0x22>
200000e0:	600a      	str	r2, [r1, #0]
200000e2:	2000      	movs	r0, #0
200000e4:	e004      	b.n	200000f0 <mutex_try_enter+0x30>
200000e6:	22d0      	movs	r2, #208	@ 0xd0
200000e8:	2001      	movs	r0, #1
200000ea:	0612      	lsls	r2, r2, #24
200000ec:	6812      	ldr	r2, [r2, #0]
200000ee:	711a      	strb	r2, [r3, #4]
200000f0:	681b      	ldr	r3, [r3, #0]
200000f2:	f3bf 8f5f 	dmb	sy
200000f6:	2200      	movs	r2, #0
200000f8:	601a      	str	r2, [r3, #0]
200000fa:	f38c 8810 	msr	PRIMASK, ip
200000fe:	4770      	bx	lr

20000100 <mutex_try_enter_block_until>:
20000100:	b5f0      	push	{r4, r5, r6, r7, lr}
20000102:	46c6      	mov	lr, r8
20000104:	0015      	movs	r5, r2
20000106:	b500      	push	{lr}
20000108:	0004      	movs	r4, r0
2000010a:	001e      	movs	r6, r3
2000010c:	6802      	ldr	r2, [r0, #0]
2000010e:	f3ef 8110 	mrs	r1, PRIMASK
20000112:	b672      	cpsid	i
20000114:	6813      	ldr	r3, [r2, #0]
20000116:	2b00      	cmp	r3, #0
20000118:	d0fc      	beq.n	20000114 <mutex_try_enter_block_until+0x14>
2000011a:	f3bf 8f5f 	dmb	sy
2000011e:	2304      	movs	r3, #4
20000120:	56e3      	ldrsb	r3, [r4, r3]
20000122:	2b00      	cmp	r3, #0
20000124:	db2d      	blt.n	20000182 <mutex_try_enter_block_until+0x82>
20000126:	6822      	ldr	r2, [r4, #0]
20000128:	f3bf 8f5f 	dmb	sy
2000012c:	2000      	movs	r0, #0
2000012e:	6010      	str	r0, [r2, #0]
20000130:	f381 8810 	msr	PRIMASK, r1
20000134:	22d0      	movs	r2, #208	@ 0xd0
20000136:	0612      	lsls	r2, r2, #24
20000138:	7812      	ldrb	r2, [r2, #0]
2000013a:	b252      	sxtb	r2, r2
2000013c:	4690      	mov	r8, r2
2000013e:	429a      	cmp	r2, r3
20000140:	d103      	bne.n	2000014a <mutex_try_enter_block_until+0x4a>
20000142:	2000      	movs	r0, #0
20000144:	bc80      	pop	{r7}
20000146:	46b8      	mov	r8, r7
20000148:	bdf0      	pop	{r4, r5, r6, r7, pc}
2000014a:	2700      	movs	r7, #0
2000014c:	e00b      	b.n	20000166 <mutex_try_enter_block_until+0x66>
2000014e:	6823      	ldr	r3, [r4, #0]
20000150:	f3bf 8f5f 	dmb	sy
20000154:	601f      	str	r7, [r3, #0]
20000156:	f381 8810 	msr	PRIMASK, r1
2000015a:	0028      	movs	r0, r5
2000015c:	0031      	movs	r1, r6
2000015e:	f000 fefb 	bl	20000f58 <__best_effort_wfe_or_timeout_veneer>
20000162:	2800      	cmp	r0, #0
20000164:	d1ed      	bne.n	20000142 <mutex_try_enter_block_until+0x42>
20000166:	6822      	ldr	r2, [r4, #0]
20000168:	f3ef 8110 	mrs	r1, PRIMASK
2000016c:	b672      	cpsid	i
2000016e:	6813      	ldr	r3, [r2, #0]
20000170:	2b00      	cmp	r3, #0
20000172:	d0fc      	beq.n	2000016e <mutex_try_enter_block_until+0x6e>
20000174:	f3bf 8f5f 	dmb	sy
20000178:	7923      	ldrb	r3, [r4, #4]
2000017a:	2b7f      	cmp	r3, #127	@ 0x7f
2000017c:	d9e7      	bls.n	2000014e <mutex_try_enter_block_until+0x4e>
2000017e:	4643      	mov	r3, r8
20000180:	e002      	b.n	20000188 <mutex_try_enter_block_until+0x88>
20000182:	23d0      	movs	r3, #208	@ 0xd0
20000184:	061b      	lsls	r3, r3, #24
20000186:	681b      	ldr	r3, [r3, #0]
20000188:	7123      	strb	r3, [r4, #4]
2000018a:	6823      	ldr	r3, [r4, #0]
2000018c:	f3bf 8f5f 	dmb	sy
20000190:	2200      	movs	r2, #0
20000192:	601a      	str	r2, [r3, #0]
20000194:	f381 8810 	msr	PRIMASK, r1
20000198:	2001      	movs	r0, #1
2000019a:	e7d3      	b.n	20000144 <mutex_try_enter_block_until+0x44>

2000019c <mutex_enter_timeout_ms>:
2000019c:	b5f0      	push	{r4, r5, r6, r7, lr}
2000019e:	46c6      	mov	lr, r8
200001a0:	b500      	push	{lr}
200001a2:	000d      	movs	r5, r1
200001a4:	0004      	movs	r4, r0
200001a6:	f000 feb7 	bl	20000f18 <__time_us_64_veneer>
200001aa:	22fa      	movs	r2, #250	@ 0xfa
200001ac:	0006      	movs	r6, r0
200001ae:	000f      	movs	r7, r1
200001b0:	2300      	movs	r3, #0
200001b2:	0028      	movs	r0, r5
200001b4:	2100      	movs	r1, #0
200001b6:	0092      	lsls	r2, r2, #2
200001b8:	f000 fede 	bl	20000f78 <____wrap___aeabi_lmul_veneer>
200001bc:	2380      	movs	r3, #128	@ 0x80
200001be:	1836      	adds	r6, r6, r0
200001c0:	414f      	adcs	r7, r1
200001c2:	061b      	lsls	r3, r3, #24
200001c4:	429f      	cmp	r7, r3
200001c6:	d302      	bcc.n	200001ce <mutex_enter_timeout_ms+0x32>
200001c8:	2601      	movs	r6, #1
200001ca:	4f17      	ldr	r7, [pc, #92]	@ (20000228 <mutex_enter_timeout_ms+0x8c>)
200001cc:	4276      	negs	r6, r6
200001ce:	23d0      	movs	r3, #208	@ 0xd0
200001d0:	061b      	lsls	r3, r3, #24
200001d2:	681b      	ldr	r3, [r3, #0]
200001d4:	2500      	movs	r5, #0
200001d6:	4698      	mov	r8, r3
200001d8:	e00b      	b.n	200001f2 <mutex_enter_timeout_ms+0x56>
200001da:	6823      	ldr	r3, [r4, #0]
200001dc:	f3bf 8f5f 	dmb	sy
200001e0:	601d      	str	r5, [r3, #0]
200001e2:	f381 8810 	msr	PRIMASK, r1
200001e6:	0030      	movs	r0, r6
200001e8:	0039      	movs	r1, r7
200001ea:	f000 feb5 	bl	20000f58 <__best_effort_wfe_or_timeout_veneer>
200001ee:	2800      	cmp	r0, #0
200001f0:	d118      	bne.n	20000224 <mutex_enter_timeout_ms+0x88>
200001f2:	6822      	ldr	r2, [r4, #0]
200001f4:	f3ef 8110 	mrs	r1, PRIMASK
200001f8:	b672      	cpsid	i
200001fa:	6813      	ldr	r3, [r2, #0]
200001fc:	2b00      	cmp	r3, #0
200001fe:	d0fc      	beq.n	200001fa <mutex_enter_timeout_ms+0x5e>
20000200:	f3bf 8f5f 	dmb	sy
20000204:	7923      	ldrb	r3, [r4, #4]
20000206:	2b7f      	cmp	r3, #127	@ 0x7f
20000208:	d9e7      	bls.n	200001da <mutex_enter_timeout_ms+0x3e>
2000020a:	4643      	mov	r3, r8
2000020c:	7123      	strb	r3, [r4, #4]
2000020e:	6823      	ldr	r3, [r4, #0]
20000210:	f3bf 8f5f 	dmb	sy
20000214:	2200      	movs	r2, #0
20000216:	601a      	str	r2, [r3, #0]
20000218:	f381 8810 	msr	PRIMASK, r1
2000021c:	2001      	movs	r0, #1
2000021e:	bc80      	pop	{r7}
20000220:	46b8      	mov	r8, r7
20000222:	bdf0      	pop	{r4, r5, r6, r7, pc}
20000224:	2000      	movs	r0, #0
20000226:	e7fa      	b.n	2000021e <mutex_enter_timeout_ms+0x82>
20000228:	7fffffff 	.word	0x7fffffff

2000022c <mutex_exit>:
2000022c:	6802      	ldr	r2, [r0, #0]
2000022e:	f3ef 8110 	mrs	r1, PRIMASK
20000232:	b672      	cpsid	i
20000234:	6813      	ldr	r3, [r2, #0]
20000236:	2b00      	cmp	r3, #0
20000238:	d0fc      	beq.n	20000234 <mutex_exit+0x8>
2000023a:	f3bf 8f5f 	dmb	sy
2000023e:	23ff      	movs	r3, #255	@ 0xff
20000240:	7103      	strb	r3, [r0, #4]
20000242:	6803      	ldr	r3, [r0, #0]
20000244:	f3bf 8f5f 	dmb	sy
20000248:	2200      	movs	r2, #0
2000024a:	601a      	str	r2, [r3, #0]
2000024c:	f381 8810 	msr	PRIMASK, r1
20000250:	bf40      	sev
20000252:	4770      	bx	lr

20000254 <flash_init_boot2_copyout>:
20000254:	b510      	push	{r4, lr}
20000256:	4c08      	ldr	r4, [pc, #32]	@ (20000278 <flash_init_boot2_copyout+0x24>)
20000258:	7823      	ldrb	r3, [r4, #0]
2000025a:	2b00      	cmp	r3, #0
2000025c:	d10a      	bne.n	20000274 <flash_init_boot2_copyout+0x20>
2000025e:	2380      	movs	r3, #128	@ 0x80
20000260:	4806      	ldr	r0, [pc, #24]	@ (2000027c <flash_init_boot2_copyout+0x28>)
20000262:	4907      	ldr	r1, [pc, #28]	@ (20000280 <flash_init_boot2_copyout+0x2c>)
20000264:	055b      	lsls	r3, r3, #21
20000266:	681a      	ldr	r2, [r3, #0]
20000268:	50c2      	str	r2, [r0, r3]
2000026a:	3304      	adds	r3, #4
2000026c:	428b      	cmp	r3, r1
2000026e:	d1fa      	bne.n	20000266 <flash_init_boot2_copyout+0x12>
20000270:	2301      	movs	r3, #1
20000272:	7023      	strb	r3, [r4, #0]
20000274:	bd10      	pop	{r4, pc}
20000276:	46c0      	nop			@ (mov r8, r8)
20000278:	200020d0 	.word	0x200020d0
2000027c:	100019fc 	.word	0x100019fc
20000280:	10000100 	.word	0x10000100

20000284 <flash_enable_xip_via_boot2>:
20000284:	b510      	push	{r4, lr}
20000286:	4b01      	ldr	r3, [pc, #4]	@ (2000028c <flash_enable_xip_via_boot2+0x8>)
20000288:	4798      	blx	r3
2000028a:	bd10      	pop	{r4, pc}
2000028c:	200019fd 	.word	0x200019fd

20000290 <flash_cs_force.constprop.0>:
20000290:	4b03      	ldr	r3, [pc, #12]	@ (200002a0 <flash_cs_force.constprop.0+0x10>)
20000292:	681a      	ldr	r2, [r3, #0]
20000294:	23c0      	movs	r3, #192	@ 0xc0
20000296:	009b      	lsls	r3, r3, #2
20000298:	4393      	bics	r3, r2
2000029a:	4a02      	ldr	r2, [pc, #8]	@ (200002a4 <flash_cs_force.constprop.0+0x14>)
2000029c:	6013      	str	r3, [r2, #0]
2000029e:	4770      	bx	lr
200002a0:	4001800c 	.word	0x4001800c
200002a4:	4001900c 	.word	0x4001900c

200002a8 <flash_cs_force.constprop.1>:
200002a8:	4b05      	ldr	r3, [pc, #20]	@ (200002c0 <flash_cs_force.constprop.1+0x18>)
200002aa:	681a      	ldr	r2, [r3, #0]
200002ac:	2380      	movs	r3, #128	@ 0x80
200002ae:	009b      	lsls	r3, r3, #2
200002b0:	4053      	eors	r3, r2
200002b2:	22c0      	movs	r2, #192	@ 0xc0
200002b4:	0092      	lsls	r2, r2, #2
200002b6:	4013      	ands	r3, r2
200002b8:	4a02      	ldr	r2, [pc, #8]	@ (200002c4 <flash_cs_force.constprop.1+0x1c>)
200002ba:	6013      	str	r3, [r2, #0]
200002bc:	4770      	bx	lr
200002be:	46c0      	nop			@ (mov r8, r8)
200002c0:	4001800c 	.word	0x4001800c
200002c4:	4001900c 	.word	0x4001900c

200002c8 <flash_do_cmd>:
200002c8:	2314      	movs	r3, #20
200002ca:	b5f0      	push	{r4, r5, r6, r7, lr}
200002cc:	46d6      	mov	lr, sl
200002ce:	464f      	mov	r7, r9
200002d0:	4646      	mov	r6, r8
200002d2:	469a      	mov	sl, r3
200002d4:	4681      	mov	r9, r0
200002d6:	8818      	ldrh	r0, [r3, #0]
200002d8:	3304      	adds	r3, #4
200002da:	b5c0      	push	{r6, r7, lr}
200002dc:	4698      	mov	r8, r3
200002de:	000e      	movs	r6, r1
200002e0:	881b      	ldrh	r3, [r3, #0]
200002e2:	4926      	ldr	r1, [pc, #152]	@ (2000037c <flash_do_cmd+0xb4>)
200002e4:	0014      	movs	r4, r2
200002e6:	4798      	blx	r3
200002e8:	4653      	mov	r3, sl
200002ea:	0007      	movs	r7, r0
200002ec:	8818      	ldrh	r0, [r3, #0]
200002ee:	4643      	mov	r3, r8
200002f0:	4923      	ldr	r1, [pc, #140]	@ (20000380 <flash_do_cmd+0xb8>)
200002f2:	881b      	ldrh	r3, [r3, #0]
200002f4:	4798      	blx	r3
200002f6:	4653      	mov	r3, sl
200002f8:	0005      	movs	r5, r0
200002fa:	8818      	ldrh	r0, [r3, #0]
200002fc:	4643      	mov	r3, r8
200002fe:	4921      	ldr	r1, [pc, #132]	@ (20000384 <flash_do_cmd+0xbc>)
20000300:	881b      	ldrh	r3, [r3, #0]
20000302:	4798      	blx	r3
20000304:	4680      	mov	r8, r0
20000306:	f7ff ffa5 	bl	20000254 <flash_init_boot2_copyout>
2000030a:	47b8      	blx	r7
2000030c:	47a8      	blx	r5
2000030e:	f7ff ffcb 	bl	200002a8 <flash_cs_force.constprop.1>
20000312:	1e22      	subs	r2, r4, #0
20000314:	d020      	beq.n	20000358 <flash_do_cmd+0x90>
20000316:	21c0      	movs	r1, #192	@ 0xc0
20000318:	2708      	movs	r7, #8
2000031a:	2002      	movs	r0, #2
2000031c:	0549      	lsls	r1, r1, #21
2000031e:	e011      	b.n	20000344 <flash_do_cmd+0x7c>
20000320:	2c00      	cmp	r4, #0
20000322:	d014      	beq.n	2000034e <flash_do_cmd+0x86>
20000324:	1b13      	subs	r3, r2, r4
20000326:	2b0d      	cmp	r3, #13
20000328:	d920      	bls.n	2000036c <flash_do_cmd+0xa4>
2000032a:	2d00      	cmp	r5, #0
2000032c:	d00a      	beq.n	20000344 <flash_do_cmd+0x7c>
2000032e:	0023      	movs	r3, r4
20000330:	2a00      	cmp	r2, #0
20000332:	d005      	beq.n	20000340 <flash_do_cmd+0x78>
20000334:	6e0b      	ldr	r3, [r1, #96]	@ 0x60
20000336:	3a01      	subs	r2, #1
20000338:	7033      	strb	r3, [r6, #0]
2000033a:	0013      	movs	r3, r2
2000033c:	3601      	adds	r6, #1
2000033e:	4323      	orrs	r3, r4
20000340:	2b00      	cmp	r3, #0
20000342:	d009      	beq.n	20000358 <flash_do_cmd+0x90>
20000344:	003d      	movs	r5, r7
20000346:	6a8b      	ldr	r3, [r1, #40]	@ 0x28
20000348:	401d      	ands	r5, r3
2000034a:	4218      	tst	r0, r3
2000034c:	d1e8      	bne.n	20000320 <flash_do_cmd+0x58>
2000034e:	2d00      	cmp	r5, #0
20000350:	d1ed      	bne.n	2000032e <flash_do_cmd+0x66>
20000352:	0023      	movs	r3, r4
20000354:	4313      	orrs	r3, r2
20000356:	d1f5      	bne.n	20000344 <flash_do_cmd+0x7c>
20000358:	f7ff ff9a 	bl	20000290 <flash_cs_force.constprop.0>
2000035c:	47c0      	blx	r8
2000035e:	f7ff ff91 	bl	20000284 <flash_enable_xip_via_boot2>
20000362:	bce0      	pop	{r5, r6, r7}
20000364:	46ba      	mov	sl, r7
20000366:	46b1      	mov	r9, r6
20000368:	46a8      	mov	r8, r5
2000036a:	bdf0      	pop	{r4, r5, r6, r7, pc}
2000036c:	464b      	mov	r3, r9
2000036e:	781b      	ldrb	r3, [r3, #0]
20000370:	3c01      	subs	r4, #1
20000372:	660b      	str	r3, [r1, #96]	@ 0x60
20000374:	2301      	movs	r3, #1
20000376:	469c      	mov	ip, r3
20000378:	44e1      	add	r9, ip
2000037a:	e7e8      	b.n	2000034e <flash_do_cmd+0x86>
2000037c:	00004649 	.word	0x00004649
20000380:	00005845 	.word	0x00005845
20000384:	00004346 	.word	0x00004346

20000388 <reset_non_control_endpoints>:
20000388:	2200      	movs	r2, #0
2000038a:	4b15      	ldr	r3, [pc, #84]	@ (200003e0 <reset_non_control_endpoints+0x58>)
2000038c:	b510      	push	{r4, lr}
2000038e:	609a      	str	r2, [r3, #8]
20000390:	60da      	str	r2, [r3, #12]
20000392:	611a      	str	r2, [r3, #16]
20000394:	615a      	str	r2, [r3, #20]
20000396:	619a      	str	r2, [r3, #24]
20000398:	61da      	str	r2, [r3, #28]
2000039a:	621a      	str	r2, [r3, #32]
2000039c:	625a      	str	r2, [r3, #36]	@ 0x24
2000039e:	629a      	str	r2, [r3, #40]	@ 0x28
200003a0:	62da      	str	r2, [r3, #44]	@ 0x2c
200003a2:	631a      	str	r2, [r3, #48]	@ 0x30
200003a4:	635a      	str	r2, [r3, #52]	@ 0x34
200003a6:	639a      	str	r2, [r3, #56]	@ 0x38
200003a8:	63da      	str	r2, [r3, #60]	@ 0x3c
200003aa:	641a      	str	r2, [r3, #64]	@ 0x40
200003ac:	645a      	str	r2, [r3, #68]	@ 0x44
200003ae:	649a      	str	r2, [r3, #72]	@ 0x48
200003b0:	64da      	str	r2, [r3, #76]	@ 0x4c
200003b2:	651a      	str	r2, [r3, #80]	@ 0x50
200003b4:	655a      	str	r2, [r3, #84]	@ 0x54
200003b6:	659a      	str	r2, [r3, #88]	@ 0x58
200003b8:	65da      	str	r2, [r3, #92]	@ 0x5c
200003ba:	661a      	str	r2, [r3, #96]	@ 0x60
200003bc:	665a      	str	r2, [r3, #100]	@ 0x64
200003be:	669a      	str	r2, [r3, #104]	@ 0x68
200003c0:	66da      	str	r2, [r3, #108]	@ 0x6c
200003c2:	671a      	str	r2, [r3, #112]	@ 0x70
200003c4:	675a      	str	r2, [r3, #116]	@ 0x74
200003c6:	679a      	str	r2, [r3, #120]	@ 0x78
200003c8:	67da      	str	r2, [r3, #124]	@ 0x7c
200003ca:	32f0      	adds	r2, #240	@ 0xf0
200003cc:	0092      	lsls	r2, r2, #2
200003ce:	2100      	movs	r1, #0
200003d0:	4804      	ldr	r0, [pc, #16]	@ (200003e4 <reset_non_control_endpoints+0x5c>)
200003d2:	f000 fdb1 	bl	20000f38 <____wrap_memset_veneer>
200003d6:	4b04      	ldr	r3, [pc, #16]	@ (200003e8 <reset_non_control_endpoints+0x60>)
200003d8:	4a04      	ldr	r2, [pc, #16]	@ (200003ec <reset_non_control_endpoints+0x64>)
200003da:	601a      	str	r2, [r3, #0]
200003dc:	bd10      	pop	{r4, pc}
200003de:	46c0      	nop			@ (mov r8, r8)
200003e0:	50100000 	.word	0x50100000
200003e4:	20001ba8 	.word	0x20001ba8
200003e8:	20001f70 	.word	0x20001f70
200003ec:	50100180 	.word	0x50100180

200003f0 <hw_handle_buff_status>:
200003f0:	b5f0      	push	{r4, r5, r6, r7, lr}
200003f2:	4657      	mov	r7, sl
200003f4:	464e      	mov	r6, r9
200003f6:	4645      	mov	r5, r8
200003f8:	46de      	mov	lr, fp
200003fa:	b5e0      	push	{r5, r6, r7, lr}
200003fc:	4b25      	ldr	r3, [pc, #148]	@ (20000494 <hw_handle_buff_status+0xa4>)
200003fe:	2500      	movs	r5, #0
20000400:	6d9f      	ldr	r7, [r3, #88]	@ 0x58
20000402:	2601      	movs	r6, #1
20000404:	b087      	sub	sp, #28
20000406:	2f00      	cmp	r7, #0
20000408:	d023      	beq.n	20000452 <hw_handle_buff_status+0x62>
2000040a:	4b23      	ldr	r3, [pc, #140]	@ (20000498 <hw_handle_buff_status+0xa8>)
2000040c:	4699      	mov	r9, r3
2000040e:	2301      	movs	r3, #1
20000410:	469b      	mov	fp, r3
20000412:	4b22      	ldr	r3, [pc, #136]	@ (2000049c <hw_handle_buff_status+0xac>)
20000414:	4698      	mov	r8, r3
20000416:	e001      	b.n	2000041c <hw_handle_buff_status+0x2c>
20000418:	2d20      	cmp	r5, #32
2000041a:	d01a      	beq.n	20000452 <hw_handle_buff_status+0x62>
2000041c:	0032      	movs	r2, r6
2000041e:	002c      	movs	r4, r5
20000420:	3501      	adds	r5, #1
20000422:	46b2      	mov	sl, r6
20000424:	403a      	ands	r2, r7
20000426:	b2ed      	uxtb	r5, r5
20000428:	0076      	lsls	r6, r6, #1
2000042a:	2a00      	cmp	r2, #0
2000042c:	d0f4      	beq.n	20000418 <hw_handle_buff_status+0x28>
2000042e:	464b      	mov	r3, r9
20000430:	4652      	mov	r2, sl
20000432:	659a      	str	r2, [r3, #88]	@ 0x58
20000434:	465b      	mov	r3, fp
20000436:	0864      	lsrs	r4, r4, #1
20000438:	0064      	lsls	r4, r4, #1
2000043a:	402b      	ands	r3, r5
2000043c:	18e4      	adds	r4, r4, r3
2000043e:	0164      	lsls	r4, r4, #5
20000440:	4444      	add	r4, r8
20000442:	0020      	movs	r0, r4
20000444:	f000 fc52 	bl	20000cec <hw_endpoint_xfer_continue>
20000448:	2800      	cmp	r0, #0
2000044a:	d109      	bne.n	20000460 <hw_handle_buff_status+0x70>
2000044c:	4653      	mov	r3, sl
2000044e:	439f      	bics	r7, r3
20000450:	d1e2      	bne.n	20000418 <hw_handle_buff_status+0x28>
20000452:	b007      	add	sp, #28
20000454:	bcf0      	pop	{r4, r5, r6, r7}
20000456:	46bb      	mov	fp, r7
20000458:	46b2      	mov	sl, r6
2000045a:	46a9      	mov	r9, r5
2000045c:	46a0      	mov	r8, r4
2000045e:	bdf0      	pop	{r4, r5, r6, r7, pc}
20000460:	8ae2      	ldrh	r2, [r4, #22]
20000462:	78a3      	ldrb	r3, [r4, #2]
20000464:	a802      	add	r0, sp, #8
20000466:	9201      	str	r2, [sp, #4]
20000468:	2100      	movs	r1, #0
2000046a:	2206      	movs	r2, #6
2000046c:	3006      	adds	r0, #6
2000046e:	9300      	str	r3, [sp, #0]
20000470:	f000 fd62 	bl	20000f38 <____wrap_memset_veneer>
20000474:	23e0      	movs	r3, #224	@ 0xe0
20000476:	a902      	add	r1, sp, #8
20000478:	00db      	lsls	r3, r3, #3
2000047a:	808b      	strh	r3, [r1, #4]
2000047c:	9b00      	ldr	r3, [sp, #0]
2000047e:	9a01      	ldr	r2, [sp, #4]
20000480:	720b      	strb	r3, [r1, #8]
20000482:	a803      	add	r0, sp, #12
20000484:	2101      	movs	r1, #1
20000486:	9205      	str	r2, [sp, #20]
20000488:	f000 fc50 	bl	20000d2c <dcd_event_handler>
2000048c:	0020      	movs	r0, r4
2000048e:	f000 fbc9 	bl	20000c24 <hw_endpoint_reset_transfer>
20000492:	e7db      	b.n	2000044c <hw_handle_buff_status+0x5c>
20000494:	50110000 	.word	0x50110000
20000498:	50113000 	.word	0x50113000
2000049c:	20001b68 	.word	0x20001b68

200004a0 <dcd_rp2040_irq>:
200004a0:	2398      	movs	r3, #152	@ 0x98
200004a2:	b5f0      	push	{r4, r5, r6, r7, lr}
200004a4:	46c6      	mov	lr, r8
200004a6:	4acd      	ldr	r2, [pc, #820]	@ (200007dc <dcd_rp2040_irq+0x33c>)
200004a8:	b500      	push	{lr}
200004aa:	58d5      	ldr	r5, [r2, r3]
200004ac:	2380      	movs	r3, #128	@ 0x80
200004ae:	002e      	movs	r6, r5
200004b0:	029b      	lsls	r3, r3, #10
200004b2:	2410      	movs	r4, #16
200004b4:	b084      	sub	sp, #16
200004b6:	401e      	ands	r6, r3
200004b8:	421d      	tst	r5, r3
200004ba:	d07a      	beq.n	200005b2 <dcd_rp2040_irq+0x112>
200004bc:	4bc8      	ldr	r3, [pc, #800]	@ (200007e0 <dcd_rp2040_irq+0x340>)
200004be:	4cc9      	ldr	r4, [pc, #804]	@ (200007e4 <dcd_rp2040_irq+0x344>)
200004c0:	6a9a      	ldr	r2, [r3, #40]	@ 0x28
200004c2:	4bc9      	ldr	r3, [pc, #804]	@ (200007e8 <dcd_rp2040_irq+0x348>)
200004c4:	2600      	movs	r6, #0
200004c6:	601a      	str	r2, [r3, #0]
200004c8:	233b      	movs	r3, #59	@ 0x3b
200004ca:	5ce3      	ldrb	r3, [r4, r3]
200004cc:	2b02      	cmp	r3, #2
200004ce:	d100      	bne.n	200004d2 <dcd_rp2040_irq+0x32>
200004d0:	e10e      	b.n	200006f0 <dcd_rp2040_irq+0x250>
200004d2:	237b      	movs	r3, #123	@ 0x7b
200004d4:	5ce3      	ldrb	r3, [r4, r3]
200004d6:	2b02      	cmp	r3, #2
200004d8:	d100      	bne.n	200004dc <dcd_rp2040_irq+0x3c>
200004da:	e126      	b.n	2000072a <dcd_rp2040_irq+0x28a>
200004dc:	23bb      	movs	r3, #187	@ 0xbb
200004de:	5ce3      	ldrb	r3, [r4, r3]
200004e0:	2b02      	cmp	r3, #2
200004e2:	d100      	bne.n	200004e6 <dcd_rp2040_irq+0x46>
200004e4:	e115      	b.n	20000712 <dcd_rp2040_irq+0x272>
200004e6:	23fb      	movs	r3, #251	@ 0xfb
200004e8:	5ce3      	ldrb	r3, [r4, r3]
200004ea:	2b02      	cmp	r3, #2
200004ec:	d100      	bne.n	200004f0 <dcd_rp2040_irq+0x50>
200004ee:	e14f      	b.n	20000790 <dcd_rp2040_irq+0x2f0>
200004f0:	233c      	movs	r3, #60	@ 0x3c
200004f2:	33ff      	adds	r3, #255	@ 0xff
200004f4:	5ce3      	ldrb	r3, [r4, r3]
200004f6:	2b02      	cmp	r3, #2
200004f8:	d100      	bne.n	200004fc <dcd_rp2040_irq+0x5c>
200004fa:	e13c      	b.n	20000776 <dcd_rp2040_irq+0x2d6>
200004fc:	237c      	movs	r3, #124	@ 0x7c
200004fe:	33ff      	adds	r3, #255	@ 0xff
20000500:	5ce3      	ldrb	r3, [r4, r3]
20000502:	2b02      	cmp	r3, #2
20000504:	d100      	bne.n	20000508 <dcd_rp2040_irq+0x68>
20000506:	e129      	b.n	2000075c <dcd_rp2040_irq+0x2bc>
20000508:	23bc      	movs	r3, #188	@ 0xbc
2000050a:	33ff      	adds	r3, #255	@ 0xff
2000050c:	5ce3      	ldrb	r3, [r4, r3]
2000050e:	2b02      	cmp	r3, #2
20000510:	d100      	bne.n	20000514 <dcd_rp2040_irq+0x74>
20000512:	e116      	b.n	20000742 <dcd_rp2040_irq+0x2a2>
20000514:	23fc      	movs	r3, #252	@ 0xfc
20000516:	33ff      	adds	r3, #255	@ 0xff
20000518:	5ce3      	ldrb	r3, [r4, r3]
2000051a:	2b02      	cmp	r3, #2
2000051c:	d100      	bne.n	20000520 <dcd_rp2040_irq+0x80>
2000051e:	e1be      	b.n	2000089e <dcd_rp2040_irq+0x3fe>
20000520:	4bb2      	ldr	r3, [pc, #712]	@ (200007ec <dcd_rp2040_irq+0x34c>)
20000522:	5ce3      	ldrb	r3, [r4, r3]
20000524:	2b02      	cmp	r3, #2
20000526:	d100      	bne.n	2000052a <dcd_rp2040_irq+0x8a>
20000528:	e1ae      	b.n	20000888 <dcd_rp2040_irq+0x3e8>
2000052a:	4bb1      	ldr	r3, [pc, #708]	@ (200007f0 <dcd_rp2040_irq+0x350>)
2000052c:	5ce3      	ldrb	r3, [r4, r3]
2000052e:	2b02      	cmp	r3, #2
20000530:	d100      	bne.n	20000534 <dcd_rp2040_irq+0x94>
20000532:	e19d      	b.n	20000870 <dcd_rp2040_irq+0x3d0>
20000534:	4baf      	ldr	r3, [pc, #700]	@ (200007f4 <dcd_rp2040_irq+0x354>)
20000536:	5ce3      	ldrb	r3, [r4, r3]
20000538:	2b02      	cmp	r3, #2
2000053a:	d100      	bne.n	2000053e <dcd_rp2040_irq+0x9e>
2000053c:	e18c      	b.n	20000858 <dcd_rp2040_irq+0x3b8>
2000053e:	4bae      	ldr	r3, [pc, #696]	@ (200007f8 <dcd_rp2040_irq+0x358>)
20000540:	5ce3      	ldrb	r3, [r4, r3]
20000542:	2b02      	cmp	r3, #2
20000544:	d100      	bne.n	20000548 <dcd_rp2040_irq+0xa8>
20000546:	e17b      	b.n	20000840 <dcd_rp2040_irq+0x3a0>
20000548:	4bac      	ldr	r3, [pc, #688]	@ (200007fc <dcd_rp2040_irq+0x35c>)
2000054a:	5ce3      	ldrb	r3, [r4, r3]
2000054c:	2b02      	cmp	r3, #2
2000054e:	d100      	bne.n	20000552 <dcd_rp2040_irq+0xb2>
20000550:	e16a      	b.n	20000828 <dcd_rp2040_irq+0x388>
20000552:	4bab      	ldr	r3, [pc, #684]	@ (20000800 <dcd_rp2040_irq+0x360>)
20000554:	5ce3      	ldrb	r3, [r4, r3]
20000556:	2b02      	cmp	r3, #2
20000558:	d100      	bne.n	2000055c <dcd_rp2040_irq+0xbc>
2000055a:	e125      	b.n	200007a8 <dcd_rp2040_irq+0x308>
2000055c:	4ba9      	ldr	r3, [pc, #676]	@ (20000804 <dcd_rp2040_irq+0x364>)
2000055e:	5ce3      	ldrb	r3, [r4, r3]
20000560:	2b02      	cmp	r3, #2
20000562:	d100      	bne.n	20000566 <dcd_rp2040_irq+0xc6>
20000564:	e1a7      	b.n	200008b6 <dcd_rp2040_irq+0x416>
20000566:	4ba8      	ldr	r3, [pc, #672]	@ (20000808 <dcd_rp2040_irq+0x368>)
20000568:	5ce3      	ldrb	r3, [r4, r3]
2000056a:	2b02      	cmp	r3, #2
2000056c:	d100      	bne.n	20000570 <dcd_rp2040_irq+0xd0>
2000056e:	e1be      	b.n	200008ee <dcd_rp2040_irq+0x44e>
20000570:	2e00      	cmp	r6, #0
20000572:	d108      	bne.n	20000586 <dcd_rp2040_irq+0xe6>
20000574:	4ba5      	ldr	r3, [pc, #660]	@ (2000080c <dcd_rp2040_irq+0x36c>)
20000576:	781b      	ldrb	r3, [r3, #0]
20000578:	2b00      	cmp	r3, #0
2000057a:	d104      	bne.n	20000586 <dcd_rp2040_irq+0xe6>
2000057c:	2180      	movs	r1, #128	@ 0x80
2000057e:	4aa4      	ldr	r2, [pc, #656]	@ (20000810 <dcd_rp2040_irq+0x370>)
20000580:	3390      	adds	r3, #144	@ 0x90
20000582:	0289      	lsls	r1, r1, #10
20000584:	50d1      	str	r1, [r2, r3]
20000586:	4b95      	ldr	r3, [pc, #596]	@ (200007dc <dcd_rp2040_irq+0x33c>)
20000588:	220a      	movs	r2, #10
2000058a:	6c9c      	ldr	r4, [r3, #72]	@ 0x48
2000058c:	466b      	mov	r3, sp
2000058e:	2100      	movs	r1, #0
20000590:	1d98      	adds	r0, r3, #6
20000592:	f000 fcd1 	bl	20000f38 <____wrap_memset_veneer>
20000596:	23c0      	movs	r3, #192	@ 0xc0
20000598:	ae01      	add	r6, sp, #4
2000059a:	009b      	lsls	r3, r3, #2
2000059c:	0564      	lsls	r4, r4, #21
2000059e:	8033      	strh	r3, [r6, #0]
200005a0:	0030      	movs	r0, r6
200005a2:	0d64      	lsrs	r4, r4, #21
200005a4:	2101      	movs	r1, #1
200005a6:	2680      	movs	r6, #128	@ 0x80
200005a8:	9402      	str	r4, [sp, #8]
200005aa:	f000 fbbf 	bl	20000d2c <dcd_event_handler>
200005ae:	4c99      	ldr	r4, [pc, #612]	@ (20000814 <dcd_rp2040_irq+0x374>)
200005b0:	02b6      	lsls	r6, r6, #10
200005b2:	06eb      	lsls	r3, r5, #27
200005b4:	d500      	bpl.n	200005b8 <dcd_rp2040_irq+0x118>
200005b6:	e08f      	b.n	200006d8 <dcd_rp2040_irq+0x238>
200005b8:	2380      	movs	r3, #128	@ 0x80
200005ba:	025b      	lsls	r3, r3, #9
200005bc:	421d      	tst	r5, r3
200005be:	d032      	beq.n	20000626 <dcd_rp2040_irq+0x186>
200005c0:	431e      	orrs	r6, r3
200005c2:	2301      	movs	r3, #1
200005c4:	2402      	movs	r4, #2
200005c6:	4698      	mov	r8, r3
200005c8:	4f86      	ldr	r7, [pc, #536]	@ (200007e4 <dcd_rp2040_irq+0x344>)
200005ca:	7ebb      	ldrb	r3, [r7, #26]
200005cc:	2b00      	cmp	r3, #0
200005ce:	d014      	beq.n	200005fa <dcd_rp2040_irq+0x15a>
200005d0:	f000 fcba 	bl	20000f48 <__rp2040_chip_version_veneer>
200005d4:	2801      	cmp	r0, #1
200005d6:	d900      	bls.n	200005da <dcd_rp2040_irq+0x13a>
200005d8:	e082      	b.n	200006e0 <dcd_rp2040_irq+0x240>
200005da:	22c0      	movs	r2, #192	@ 0xc0
200005dc:	2100      	movs	r1, #0
200005de:	0038      	movs	r0, r7
200005e0:	0192      	lsls	r2, r2, #6
200005e2:	f000 fb25 	bl	20000c30 <_hw_endpoint_buffer_control_update32>
200005e6:	0038      	movs	r0, r7
200005e8:	f000 fb1c 	bl	20000c24 <hw_endpoint_reset_transfer>
200005ec:	f000 fcac 	bl	20000f48 <__rp2040_chip_version_veneer>
200005f0:	2801      	cmp	r0, #1
200005f2:	d902      	bls.n	200005fa <dcd_rp2040_irq+0x15a>
200005f4:	4b86      	ldr	r3, [pc, #536]	@ (20000810 <dcd_rp2040_irq+0x370>)
200005f6:	665c      	str	r4, [r3, #100]	@ 0x64
200005f8:	661c      	str	r4, [r3, #96]	@ 0x60
200005fa:	4643      	mov	r3, r8
200005fc:	70fb      	strb	r3, [r7, #3]
200005fe:	3720      	adds	r7, #32
20000600:	2c01      	cmp	r4, #1
20000602:	d001      	beq.n	20000608 <dcd_rp2040_irq+0x168>
20000604:	2401      	movs	r4, #1
20000606:	e7e0      	b.n	200005ca <dcd_rp2040_irq+0x12a>
20000608:	23c0      	movs	r3, #192	@ 0xc0
2000060a:	4a83      	ldr	r2, [pc, #524]	@ (20000818 <dcd_rp2040_irq+0x378>)
2000060c:	00db      	lsls	r3, r3, #3
2000060e:	9301      	str	r3, [sp, #4]
20000610:	ab02      	add	r3, sp, #8
20000612:	ca03      	ldmia	r2!, {r0, r1}
20000614:	c303      	stmia	r3!, {r0, r1}
20000616:	2101      	movs	r1, #1
20000618:	a801      	add	r0, sp, #4
2000061a:	f000 fb87 	bl	20000d2c <dcd_event_handler>
2000061e:	2280      	movs	r2, #128	@ 0x80
20000620:	4b7b      	ldr	r3, [pc, #492]	@ (20000810 <dcd_rp2040_irq+0x370>)
20000622:	0292      	lsls	r2, r2, #10
20000624:	651a      	str	r2, [r3, #80]	@ 0x50
20000626:	2380      	movs	r3, #128	@ 0x80
20000628:	015b      	lsls	r3, r3, #5
2000062a:	421d      	tst	r5, r3
2000062c:	d10e      	bne.n	2000064c <dcd_rp2040_irq+0x1ac>
2000062e:	2380      	movs	r3, #128	@ 0x80
20000630:	01db      	lsls	r3, r3, #7
20000632:	421d      	tst	r5, r3
20000634:	d126      	bne.n	20000684 <dcd_rp2040_irq+0x1e4>
20000636:	2380      	movs	r3, #128	@ 0x80
20000638:	021b      	lsls	r3, r3, #8
2000063a:	421d      	tst	r5, r3
2000063c:	d138      	bne.n	200006b0 <dcd_rp2040_irq+0x210>
2000063e:	42ae      	cmp	r6, r5
20000640:	d000      	beq.n	20000644 <dcd_rp2040_irq+0x1a4>
20000642:	e1d1      	b.n	200009e8 <dcd_rp2040_irq+0x548>
20000644:	b004      	add	sp, #16
20000646:	bc80      	pop	{r7}
20000648:	46b8      	mov	r8, r7
2000064a:	bdf0      	pop	{r4, r5, r6, r7, pc}
2000064c:	2200      	movs	r2, #0
2000064e:	431e      	orrs	r6, r3
20000650:	4b62      	ldr	r3, [pc, #392]	@ (200007dc <dcd_rp2040_irq+0x33c>)
20000652:	ac01      	add	r4, sp, #4
20000654:	601a      	str	r2, [r3, #0]
20000656:	f7ff fe97 	bl	20000388 <reset_non_control_endpoints>
2000065a:	466b      	mov	r3, sp
2000065c:	220a      	movs	r2, #10
2000065e:	2100      	movs	r1, #0
20000660:	1d98      	adds	r0, r3, #6
20000662:	f000 fc69 	bl	20000f38 <____wrap_memset_veneer>
20000666:	2380      	movs	r3, #128	@ 0x80
20000668:	005b      	lsls	r3, r3, #1
2000066a:	8023      	strh	r3, [r4, #0]
2000066c:	2101      	movs	r1, #1
2000066e:	0020      	movs	r0, r4
20000670:	f000 fb5c 	bl	20000d2c <dcd_event_handler>
20000674:	2280      	movs	r2, #128	@ 0x80
20000676:	4b66      	ldr	r3, [pc, #408]	@ (20000810 <dcd_rp2040_irq+0x370>)
20000678:	0312      	lsls	r2, r2, #12
2000067a:	651a      	str	r2, [r3, #80]	@ 0x50
2000067c:	2380      	movs	r3, #128	@ 0x80
2000067e:	01db      	lsls	r3, r3, #7
20000680:	421d      	tst	r5, r3
20000682:	d0d8      	beq.n	20000636 <dcd_rp2040_irq+0x196>
20000684:	431e      	orrs	r6, r3
20000686:	466b      	mov	r3, sp
20000688:	220a      	movs	r2, #10
2000068a:	2100      	movs	r1, #0
2000068c:	1d98      	adds	r0, r3, #6
2000068e:	f000 fc53 	bl	20000f38 <____wrap_memset_veneer>
20000692:	2380      	movs	r3, #128	@ 0x80
20000694:	ac01      	add	r4, sp, #4
20000696:	00db      	lsls	r3, r3, #3
20000698:	8023      	strh	r3, [r4, #0]
2000069a:	2101      	movs	r1, #1
2000069c:	0020      	movs	r0, r4
2000069e:	f000 fb45 	bl	20000d2c <dcd_event_handler>
200006a2:	2210      	movs	r2, #16
200006a4:	4b5a      	ldr	r3, [pc, #360]	@ (20000810 <dcd_rp2040_irq+0x370>)
200006a6:	651a      	str	r2, [r3, #80]	@ 0x50
200006a8:	2380      	movs	r3, #128	@ 0x80
200006aa:	021b      	lsls	r3, r3, #8
200006ac:	421d      	tst	r5, r3
200006ae:	d0c6      	beq.n	2000063e <dcd_rp2040_irq+0x19e>
200006b0:	431e      	orrs	r6, r3
200006b2:	466b      	mov	r3, sp
200006b4:	220a      	movs	r2, #10
200006b6:	2100      	movs	r1, #0
200006b8:	1d98      	adds	r0, r3, #6
200006ba:	f000 fc3d 	bl	20000f38 <____wrap_memset_veneer>
200006be:	23a0      	movs	r3, #160	@ 0xa0
200006c0:	ac01      	add	r4, sp, #4
200006c2:	00db      	lsls	r3, r3, #3
200006c4:	8023      	strh	r3, [r4, #0]
200006c6:	2101      	movs	r1, #1
200006c8:	0020      	movs	r0, r4
200006ca:	f000 fb2f 	bl	20000d2c <dcd_event_handler>
200006ce:	2280      	movs	r2, #128	@ 0x80
200006d0:	4b4f      	ldr	r3, [pc, #316]	@ (20000810 <dcd_rp2040_irq+0x370>)
200006d2:	0112      	lsls	r2, r2, #4
200006d4:	651a      	str	r2, [r3, #80]	@ 0x50
200006d6:	e7b2      	b.n	2000063e <dcd_rp2040_irq+0x19e>
200006d8:	f7ff fe8a 	bl	200003f0 <hw_handle_buff_status>
200006dc:	0026      	movs	r6, r4
200006de:	e76b      	b.n	200005b8 <dcd_rp2040_irq+0x118>
200006e0:	4b4e      	ldr	r3, [pc, #312]	@ (2000081c <dcd_rp2040_irq+0x37c>)
200006e2:	4a3e      	ldr	r2, [pc, #248]	@ (200007dc <dcd_rp2040_irq+0x33c>)
200006e4:	661c      	str	r4, [r3, #96]	@ 0x60
200006e6:	6e53      	ldr	r3, [r2, #100]	@ 0x64
200006e8:	4023      	ands	r3, r4
200006ea:	42a3      	cmp	r3, r4
200006ec:	d1fb      	bne.n	200006e6 <dcd_rp2040_irq+0x246>
200006ee:	e774      	b.n	200005da <dcd_rp2040_irq+0x13a>
200006f0:	3338      	adds	r3, #56	@ 0x38
200006f2:	5ce6      	ldrb	r6, [r4, r3]
200006f4:	2e00      	cmp	r6, #0
200006f6:	d100      	bne.n	200006fa <dcd_rp2040_irq+0x25a>
200006f8:	e6eb      	b.n	200004d2 <dcd_rp2040_irq+0x32>
200006fa:	3302      	adds	r3, #2
200006fc:	5ce2      	ldrb	r2, [r4, r3]
200006fe:	2a00      	cmp	r2, #0
20000700:	d100      	bne.n	20000704 <dcd_rp2040_irq+0x264>
20000702:	e6e6      	b.n	200004d2 <dcd_rp2040_irq+0x32>
20000704:	0020      	movs	r0, r4
20000706:	2200      	movs	r2, #0
20000708:	3020      	adds	r0, #32
2000070a:	54e2      	strb	r2, [r4, r3]
2000070c:	f000 fab8 	bl	20000c80 <hw_endpoint_start_next_buffer>
20000710:	e6df      	b.n	200004d2 <dcd_rp2040_irq+0x32>
20000712:	33b8      	adds	r3, #184	@ 0xb8
20000714:	5ce7      	ldrb	r7, [r4, r3]
20000716:	2f00      	cmp	r7, #0
20000718:	d100      	bne.n	2000071c <dcd_rp2040_irq+0x27c>
2000071a:	e6e4      	b.n	200004e6 <dcd_rp2040_irq+0x46>
2000071c:	3302      	adds	r3, #2
2000071e:	5ce2      	ldrb	r2, [r4, r3]
20000720:	2a00      	cmp	r2, #0
20000722:	d000      	beq.n	20000726 <dcd_rp2040_irq+0x286>
20000724:	e120      	b.n	20000968 <dcd_rp2040_irq+0x4c8>
20000726:	003e      	movs	r6, r7
20000728:	e6dd      	b.n	200004e6 <dcd_rp2040_irq+0x46>
2000072a:	3378      	adds	r3, #120	@ 0x78
2000072c:	5ce7      	ldrb	r7, [r4, r3]
2000072e:	2f00      	cmp	r7, #0
20000730:	d100      	bne.n	20000734 <dcd_rp2040_irq+0x294>
20000732:	e6d3      	b.n	200004dc <dcd_rp2040_irq+0x3c>
20000734:	3302      	adds	r3, #2
20000736:	5ce2      	ldrb	r2, [r4, r3]
20000738:	2a00      	cmp	r2, #0
2000073a:	d000      	beq.n	2000073e <dcd_rp2040_irq+0x29e>
2000073c:	e10c      	b.n	20000958 <dcd_rp2040_irq+0x4b8>
2000073e:	003e      	movs	r6, r7
20000740:	e6cc      	b.n	200004dc <dcd_rp2040_irq+0x3c>
20000742:	33b9      	adds	r3, #185	@ 0xb9
20000744:	33ff      	adds	r3, #255	@ 0xff
20000746:	5ce7      	ldrb	r7, [r4, r3]
20000748:	2f00      	cmp	r7, #0
2000074a:	d100      	bne.n	2000074e <dcd_rp2040_irq+0x2ae>
2000074c:	e6e2      	b.n	20000514 <dcd_rp2040_irq+0x74>
2000074e:	3302      	adds	r3, #2
20000750:	5ce2      	ldrb	r2, [r4, r3]
20000752:	2a00      	cmp	r2, #0
20000754:	d000      	beq.n	20000758 <dcd_rp2040_irq+0x2b8>
20000756:	e0f6      	b.n	20000946 <dcd_rp2040_irq+0x4a6>
20000758:	003e      	movs	r6, r7
2000075a:	e6db      	b.n	20000514 <dcd_rp2040_irq+0x74>
2000075c:	3379      	adds	r3, #121	@ 0x79
2000075e:	33ff      	adds	r3, #255	@ 0xff
20000760:	5ce7      	ldrb	r7, [r4, r3]
20000762:	2f00      	cmp	r7, #0
20000764:	d100      	bne.n	20000768 <dcd_rp2040_irq+0x2c8>
20000766:	e6cf      	b.n	20000508 <dcd_rp2040_irq+0x68>
20000768:	3302      	adds	r3, #2
2000076a:	5ce2      	ldrb	r2, [r4, r3]
2000076c:	2a00      	cmp	r2, #0
2000076e:	d000      	beq.n	20000772 <dcd_rp2040_irq+0x2d2>
20000770:	e0e0      	b.n	20000934 <dcd_rp2040_irq+0x494>
20000772:	003e      	movs	r6, r7
20000774:	e6c8      	b.n	20000508 <dcd_rp2040_irq+0x68>
20000776:	3339      	adds	r3, #57	@ 0x39
20000778:	33ff      	adds	r3, #255	@ 0xff
2000077a:	5ce7      	ldrb	r7, [r4, r3]
2000077c:	2f00      	cmp	r7, #0
2000077e:	d100      	bne.n	20000782 <dcd_rp2040_irq+0x2e2>
20000780:	e6bc      	b.n	200004fc <dcd_rp2040_irq+0x5c>
20000782:	3302      	adds	r3, #2
20000784:	5ce2      	ldrb	r2, [r4, r3]
20000786:	2a00      	cmp	r2, #0
20000788:	d000      	beq.n	2000078c <dcd_rp2040_irq+0x2ec>
2000078a:	e0ca      	b.n	20000922 <dcd_rp2040_irq+0x482>
2000078c:	003e      	movs	r6, r7
2000078e:	e6b5      	b.n	200004fc <dcd_rp2040_irq+0x5c>
20000790:	33f8      	adds	r3, #248	@ 0xf8
20000792:	5ce7      	ldrb	r7, [r4, r3]
20000794:	2f00      	cmp	r7, #0
20000796:	d100      	bne.n	2000079a <dcd_rp2040_irq+0x2fa>
20000798:	e6aa      	b.n	200004f0 <dcd_rp2040_irq+0x50>
2000079a:	3302      	adds	r3, #2
2000079c:	5ce2      	ldrb	r2, [r4, r3]
2000079e:	2a00      	cmp	r2, #0
200007a0:	d000      	beq.n	200007a4 <dcd_rp2040_irq+0x304>
200007a2:	e0b6      	b.n	20000912 <dcd_rp2040_irq+0x472>
200007a4:	003e      	movs	r6, r7
200007a6:	e6a3      	b.n	200004f0 <dcd_rp2040_irq+0x50>
200007a8:	4b1d      	ldr	r3, [pc, #116]	@ (20000820 <dcd_rp2040_irq+0x380>)
200007aa:	5ce7      	ldrb	r7, [r4, r3]
200007ac:	2f00      	cmp	r7, #0
200007ae:	d100      	bne.n	200007b2 <dcd_rp2040_irq+0x312>
200007b0:	e6d4      	b.n	2000055c <dcd_rp2040_irq+0xbc>
200007b2:	3302      	adds	r3, #2
200007b4:	5ce2      	ldrb	r2, [r4, r3]
200007b6:	2a00      	cmp	r2, #0
200007b8:	d000      	beq.n	200007bc <dcd_rp2040_irq+0x31c>
200007ba:	e10e      	b.n	200009da <dcd_rp2040_irq+0x53a>
200007bc:	4b11      	ldr	r3, [pc, #68]	@ (20000804 <dcd_rp2040_irq+0x364>)
200007be:	5ce3      	ldrb	r3, [r4, r3]
200007c0:	2b02      	cmp	r3, #2
200007c2:	d100      	bne.n	200007c6 <dcd_rp2040_irq+0x326>
200007c4:	e089      	b.n	200008da <dcd_rp2040_irq+0x43a>
200007c6:	4b10      	ldr	r3, [pc, #64]	@ (20000808 <dcd_rp2040_irq+0x368>)
200007c8:	5ce3      	ldrb	r3, [r4, r3]
200007ca:	2b02      	cmp	r3, #2
200007cc:	d000      	beq.n	200007d0 <dcd_rp2040_irq+0x330>
200007ce:	e6da      	b.n	20000586 <dcd_rp2040_irq+0xe6>
200007d0:	4b14      	ldr	r3, [pc, #80]	@ (20000824 <dcd_rp2040_irq+0x384>)
200007d2:	5ce3      	ldrb	r3, [r4, r3]
200007d4:	2b00      	cmp	r3, #0
200007d6:	d000      	beq.n	200007da <dcd_rp2040_irq+0x33a>
200007d8:	e08e      	b.n	200008f8 <dcd_rp2040_irq+0x458>
200007da:	e6d4      	b.n	20000586 <dcd_rp2040_irq+0xe6>
200007dc:	50110000 	.word	0x50110000
200007e0:	40054000 	.word	0x40054000
200007e4:	20001b68 	.word	0x20001b68
200007e8:	20001b60 	.word	0x20001b60
200007ec:	0000023b 	.word	0x0000023b
200007f0:	0000027b 	.word	0x0000027b
200007f4:	000002bb 	.word	0x000002bb
200007f8:	000002fb 	.word	0x000002fb
200007fc:	0000033b 	.word	0x0000033b
20000800:	0000037b 	.word	0x0000037b
20000804:	000003bb 	.word	0x000003bb
20000808:	000003fb 	.word	0x000003fb
2000080c:	200020ce 	.word	0x200020ce
20000810:	50113000 	.word	0x50113000
20000814:	00020010 	.word	0x00020010
20000818:	50100000 	.word	0x50100000
2000081c:	50112000 	.word	0x50112000
20000820:	0000037a 	.word	0x0000037a
20000824:	000003fa 	.word	0x000003fa
20000828:	4b72      	ldr	r3, [pc, #456]	@ (200009f4 <dcd_rp2040_irq+0x554>)
2000082a:	5ce7      	ldrb	r7, [r4, r3]
2000082c:	2f00      	cmp	r7, #0
2000082e:	d100      	bne.n	20000832 <dcd_rp2040_irq+0x392>
20000830:	e68f      	b.n	20000552 <dcd_rp2040_irq+0xb2>
20000832:	3302      	adds	r3, #2
20000834:	5ce2      	ldrb	r2, [r4, r3]
20000836:	2a00      	cmp	r2, #0
20000838:	d000      	beq.n	2000083c <dcd_rp2040_irq+0x39c>
2000083a:	e0c6      	b.n	200009ca <dcd_rp2040_irq+0x52a>
2000083c:	003e      	movs	r6, r7
2000083e:	e688      	b.n	20000552 <dcd_rp2040_irq+0xb2>
20000840:	4b6d      	ldr	r3, [pc, #436]	@ (200009f8 <dcd_rp2040_irq+0x558>)
20000842:	5ce7      	ldrb	r7, [r4, r3]
20000844:	2f00      	cmp	r7, #0
20000846:	d100      	bne.n	2000084a <dcd_rp2040_irq+0x3aa>
20000848:	e67e      	b.n	20000548 <dcd_rp2040_irq+0xa8>
2000084a:	3302      	adds	r3, #2
2000084c:	5ce2      	ldrb	r2, [r4, r3]
2000084e:	2a00      	cmp	r2, #0
20000850:	d000      	beq.n	20000854 <dcd_rp2040_irq+0x3b4>
20000852:	e0b2      	b.n	200009ba <dcd_rp2040_irq+0x51a>
20000854:	003e      	movs	r6, r7
20000856:	e677      	b.n	20000548 <dcd_rp2040_irq+0xa8>
20000858:	4b68      	ldr	r3, [pc, #416]	@ (200009fc <dcd_rp2040_irq+0x55c>)
2000085a:	5ce7      	ldrb	r7, [r4, r3]
2000085c:	2f00      	cmp	r7, #0
2000085e:	d100      	bne.n	20000862 <dcd_rp2040_irq+0x3c2>
20000860:	e66d      	b.n	2000053e <dcd_rp2040_irq+0x9e>
20000862:	3302      	adds	r3, #2
20000864:	5ce2      	ldrb	r2, [r4, r3]
20000866:	2a00      	cmp	r2, #0
20000868:	d000      	beq.n	2000086c <dcd_rp2040_irq+0x3cc>
2000086a:	e09e      	b.n	200009aa <dcd_rp2040_irq+0x50a>
2000086c:	003e      	movs	r6, r7
2000086e:	e666      	b.n	2000053e <dcd_rp2040_irq+0x9e>
20000870:	4b63      	ldr	r3, [pc, #396]	@ (20000a00 <dcd_rp2040_irq+0x560>)
20000872:	5ce7      	ldrb	r7, [r4, r3]
20000874:	2f00      	cmp	r7, #0
20000876:	d100      	bne.n	2000087a <dcd_rp2040_irq+0x3da>
20000878:	e65c      	b.n	20000534 <dcd_rp2040_irq+0x94>
2000087a:	3302      	adds	r3, #2
2000087c:	5ce2      	ldrb	r2, [r4, r3]
2000087e:	2a00      	cmp	r2, #0
20000880:	d000      	beq.n	20000884 <dcd_rp2040_irq+0x3e4>
20000882:	e08a      	b.n	2000099a <dcd_rp2040_irq+0x4fa>
20000884:	003e      	movs	r6, r7
20000886:	e655      	b.n	20000534 <dcd_rp2040_irq+0x94>
20000888:	4b5e      	ldr	r3, [pc, #376]	@ (20000a04 <dcd_rp2040_irq+0x564>)
2000088a:	5ce7      	ldrb	r7, [r4, r3]
2000088c:	2f00      	cmp	r7, #0
2000088e:	d100      	bne.n	20000892 <dcd_rp2040_irq+0x3f2>
20000890:	e64b      	b.n	2000052a <dcd_rp2040_irq+0x8a>
20000892:	3302      	adds	r3, #2
20000894:	5ce2      	ldrb	r2, [r4, r3]
20000896:	2a00      	cmp	r2, #0
20000898:	d177      	bne.n	2000098a <dcd_rp2040_irq+0x4ea>
2000089a:	003e      	movs	r6, r7
2000089c:	e645      	b.n	2000052a <dcd_rp2040_irq+0x8a>
2000089e:	33f9      	adds	r3, #249	@ 0xf9
200008a0:	33ff      	adds	r3, #255	@ 0xff
200008a2:	5ce7      	ldrb	r7, [r4, r3]
200008a4:	2f00      	cmp	r7, #0
200008a6:	d100      	bne.n	200008aa <dcd_rp2040_irq+0x40a>
200008a8:	e63a      	b.n	20000520 <dcd_rp2040_irq+0x80>
200008aa:	3302      	adds	r3, #2
200008ac:	5ce2      	ldrb	r2, [r4, r3]
200008ae:	2a00      	cmp	r2, #0
200008b0:	d162      	bne.n	20000978 <dcd_rp2040_irq+0x4d8>
200008b2:	003e      	movs	r6, r7
200008b4:	e634      	b.n	20000520 <dcd_rp2040_irq+0x80>
200008b6:	4b54      	ldr	r3, [pc, #336]	@ (20000a08 <dcd_rp2040_irq+0x568>)
200008b8:	5ce3      	ldrb	r3, [r4, r3]
200008ba:	2b00      	cmp	r3, #0
200008bc:	d100      	bne.n	200008c0 <dcd_rp2040_irq+0x420>
200008be:	e652      	b.n	20000566 <dcd_rp2040_irq+0xc6>
200008c0:	23ef      	movs	r3, #239	@ 0xef
200008c2:	009b      	lsls	r3, r3, #2
200008c4:	5ce2      	ldrb	r2, [r4, r3]
200008c6:	2a00      	cmp	r2, #0
200008c8:	d100      	bne.n	200008cc <dcd_rp2040_irq+0x42c>
200008ca:	e77c      	b.n	200007c6 <dcd_rp2040_irq+0x326>
200008cc:	2200      	movs	r2, #0
200008ce:	54e2      	strb	r2, [r4, r3]
200008d0:	3b1c      	subs	r3, #28
200008d2:	18e0      	adds	r0, r4, r3
200008d4:	f000 f9d4 	bl	20000c80 <hw_endpoint_start_next_buffer>
200008d8:	e775      	b.n	200007c6 <dcd_rp2040_irq+0x326>
200008da:	4b4b      	ldr	r3, [pc, #300]	@ (20000a08 <dcd_rp2040_irq+0x568>)
200008dc:	5ce3      	ldrb	r3, [r4, r3]
200008de:	2b00      	cmp	r3, #0
200008e0:	d1ee      	bne.n	200008c0 <dcd_rp2040_irq+0x420>
200008e2:	4b4a      	ldr	r3, [pc, #296]	@ (20000a0c <dcd_rp2040_irq+0x56c>)
200008e4:	5ce3      	ldrb	r3, [r4, r3]
200008e6:	2b02      	cmp	r3, #2
200008e8:	d000      	beq.n	200008ec <dcd_rp2040_irq+0x44c>
200008ea:	e64c      	b.n	20000586 <dcd_rp2040_irq+0xe6>
200008ec:	003e      	movs	r6, r7
200008ee:	4b48      	ldr	r3, [pc, #288]	@ (20000a10 <dcd_rp2040_irq+0x570>)
200008f0:	5ce3      	ldrb	r3, [r4, r3]
200008f2:	2b00      	cmp	r3, #0
200008f4:	d100      	bne.n	200008f8 <dcd_rp2040_irq+0x458>
200008f6:	e63b      	b.n	20000570 <dcd_rp2040_irq+0xd0>
200008f8:	23ff      	movs	r3, #255	@ 0xff
200008fa:	009b      	lsls	r3, r3, #2
200008fc:	5ce2      	ldrb	r2, [r4, r3]
200008fe:	2a00      	cmp	r2, #0
20000900:	d100      	bne.n	20000904 <dcd_rp2040_irq+0x464>
20000902:	e640      	b.n	20000586 <dcd_rp2040_irq+0xe6>
20000904:	2200      	movs	r2, #0
20000906:	54e2      	strb	r2, [r4, r3]
20000908:	3b1c      	subs	r3, #28
2000090a:	18e0      	adds	r0, r4, r3
2000090c:	f000 f9b8 	bl	20000c80 <hw_endpoint_start_next_buffer>
20000910:	e639      	b.n	20000586 <dcd_rp2040_irq+0xe6>
20000912:	0020      	movs	r0, r4
20000914:	2200      	movs	r2, #0
20000916:	30e0      	adds	r0, #224	@ 0xe0
20000918:	54e2      	strb	r2, [r4, r3]
2000091a:	003e      	movs	r6, r7
2000091c:	f000 f9b0 	bl	20000c80 <hw_endpoint_start_next_buffer>
20000920:	e5e6      	b.n	200004f0 <dcd_rp2040_irq+0x50>
20000922:	0020      	movs	r0, r4
20000924:	2200      	movs	r2, #0
20000926:	3021      	adds	r0, #33	@ 0x21
20000928:	30ff      	adds	r0, #255	@ 0xff
2000092a:	54e2      	strb	r2, [r4, r3]
2000092c:	003e      	movs	r6, r7
2000092e:	f000 f9a7 	bl	20000c80 <hw_endpoint_start_next_buffer>
20000932:	e5e3      	b.n	200004fc <dcd_rp2040_irq+0x5c>
20000934:	0020      	movs	r0, r4
20000936:	2200      	movs	r2, #0
20000938:	3061      	adds	r0, #97	@ 0x61
2000093a:	30ff      	adds	r0, #255	@ 0xff
2000093c:	54e2      	strb	r2, [r4, r3]
2000093e:	003e      	movs	r6, r7
20000940:	f000 f99e 	bl	20000c80 <hw_endpoint_start_next_buffer>
20000944:	e5e0      	b.n	20000508 <dcd_rp2040_irq+0x68>
20000946:	0020      	movs	r0, r4
20000948:	2200      	movs	r2, #0
2000094a:	30a1      	adds	r0, #161	@ 0xa1
2000094c:	30ff      	adds	r0, #255	@ 0xff
2000094e:	54e2      	strb	r2, [r4, r3]
20000950:	003e      	movs	r6, r7
20000952:	f000 f995 	bl	20000c80 <hw_endpoint_start_next_buffer>
20000956:	e5dd      	b.n	20000514 <dcd_rp2040_irq+0x74>
20000958:	0020      	movs	r0, r4
2000095a:	2200      	movs	r2, #0
2000095c:	3060      	adds	r0, #96	@ 0x60
2000095e:	54e2      	strb	r2, [r4, r3]
20000960:	003e      	movs	r6, r7
20000962:	f000 f98d 	bl	20000c80 <hw_endpoint_start_next_buffer>
20000966:	e5b9      	b.n	200004dc <dcd_rp2040_irq+0x3c>
20000968:	0020      	movs	r0, r4
2000096a:	2200      	movs	r2, #0
2000096c:	30a0      	adds	r0, #160	@ 0xa0
2000096e:	54e2      	strb	r2, [r4, r3]
20000970:	003e      	movs	r6, r7
20000972:	f000 f985 	bl	20000c80 <hw_endpoint_start_next_buffer>
20000976:	e5b6      	b.n	200004e6 <dcd_rp2040_irq+0x46>
20000978:	0020      	movs	r0, r4
2000097a:	2200      	movs	r2, #0
2000097c:	30e1      	adds	r0, #225	@ 0xe1
2000097e:	30ff      	adds	r0, #255	@ 0xff
20000980:	54e2      	strb	r2, [r4, r3]
20000982:	003e      	movs	r6, r7
20000984:	f000 f97c 	bl	20000c80 <hw_endpoint_start_next_buffer>
20000988:	e5ca      	b.n	20000520 <dcd_rp2040_irq+0x80>
2000098a:	2200      	movs	r2, #0
2000098c:	54e2      	strb	r2, [r4, r3]
2000098e:	3b1c      	subs	r3, #28
20000990:	18e0      	adds	r0, r4, r3
20000992:	f000 f975 	bl	20000c80 <hw_endpoint_start_next_buffer>
20000996:	003e      	movs	r6, r7
20000998:	e5c7      	b.n	2000052a <dcd_rp2040_irq+0x8a>
2000099a:	2200      	movs	r2, #0
2000099c:	54e2      	strb	r2, [r4, r3]
2000099e:	3b1c      	subs	r3, #28
200009a0:	18e0      	adds	r0, r4, r3
200009a2:	f000 f96d 	bl	20000c80 <hw_endpoint_start_next_buffer>
200009a6:	003e      	movs	r6, r7
200009a8:	e5c4      	b.n	20000534 <dcd_rp2040_irq+0x94>
200009aa:	2200      	movs	r2, #0
200009ac:	54e2      	strb	r2, [r4, r3]
200009ae:	3b1c      	subs	r3, #28
200009b0:	18e0      	adds	r0, r4, r3
200009b2:	f000 f965 	bl	20000c80 <hw_endpoint_start_next_buffer>
200009b6:	003e      	movs	r6, r7
200009b8:	e5c1      	b.n	2000053e <dcd_rp2040_irq+0x9e>
200009ba:	2200      	movs	r2, #0
200009bc:	54e2      	strb	r2, [r4, r3]
200009be:	3b1c      	subs	r3, #28
200009c0:	18e0      	adds	r0, r4, r3
200009c2:	f000 f95d 	bl	20000c80 <hw_endpoint_start_next_buffer>
200009c6:	003e      	movs	r6, r7
200009c8:	e5be      	b.n	20000548 <dcd_rp2040_irq+0xa8>
200009ca:	2200      	movs	r2, #0
200009cc:	54e2      	strb	r2, [r4, r3]
200009ce:	3b1c      	subs	r3, #28
200009d0:	18e0      	adds	r0, r4, r3
200009d2:	f000 f955 	bl	20000c80 <hw_endpoint_start_next_buffer>
200009d6:	003e      	movs	r6, r7
200009d8:	e5bb      	b.n	20000552 <dcd_rp2040_irq+0xb2>
200009da:	2200      	movs	r2, #0
200009dc:	54e2      	strb	r2, [r4, r3]
200009de:	3b1c      	subs	r3, #28
200009e0:	18e0      	adds	r0, r4, r3
200009e2:	f000 f94d 	bl	20000c80 <hw_endpoint_start_next_buffer>
200009e6:	e6e9      	b.n	200007bc <dcd_rp2040_irq+0x31c>
200009e8:	0031      	movs	r1, r6
200009ea:	480a      	ldr	r0, [pc, #40]	@ (20000a14 <dcd_rp2040_irq+0x574>)
200009ec:	4069      	eors	r1, r5
200009ee:	f000 facb 	bl	20000f88 <__panic_veneer>
200009f2:	46c0      	nop			@ (mov r8, r8)
200009f4:	0000033a 	.word	0x0000033a
200009f8:	000002fa 	.word	0x000002fa
200009fc:	000002ba 	.word	0x000002ba
20000a00:	0000027a 	.word	0x0000027a
20000a04:	0000023a 	.word	0x0000023a
20000a08:	000003ba 	.word	0x000003ba
20000a0c:	000003fb 	.word	0x000003fb
20000a10:	000003fa 	.word	0x000003fa
20000a14:	10004858 	.word	0x10004858

20000a18 <prepare_ep_buffer>:
20000a18:	b5f0      	push	{r4, r5, r6, r7, lr}
20000a1a:	46d6      	mov	lr, sl
20000a1c:	464f      	mov	r7, r9
20000a1e:	4646      	mov	r6, r8
20000a20:	b5c0      	push	{r6, r7, lr}
20000a22:	0002      	movs	r2, r0
20000a24:	8a83      	ldrh	r3, [r0, #20]
20000a26:	8b00      	ldrh	r0, [r0, #24]
20000a28:	468a      	mov	sl, r1
20000a2a:	1c04      	adds	r4, r0, #0
20000a2c:	4298      	cmp	r0, r3
20000a2e:	d900      	bls.n	20000a32 <prepare_ep_buffer+0x1a>
20000a30:	1c1c      	adds	r4, r3, #0
20000a32:	78d5      	ldrb	r5, [r2, #3]
20000a34:	2680      	movs	r6, #128	@ 0x80
20000a36:	0028      	movs	r0, r5
20000a38:	1e47      	subs	r7, r0, #1
20000a3a:	41b8      	sbcs	r0, r7
20000a3c:	b2a4      	uxth	r4, r4
20000a3e:	00f6      	lsls	r6, r6, #3
20000a40:	4326      	orrs	r6, r4
20000a42:	0340      	lsls	r0, r0, #13
20000a44:	4330      	orrs	r0, r6
20000a46:	2601      	movs	r6, #1
20000a48:	4075      	eors	r5, r6
20000a4a:	1b1b      	subs	r3, r3, r4
20000a4c:	70d5      	strb	r5, [r2, #3]
20000a4e:	7855      	ldrb	r5, [r2, #1]
20000a50:	b29b      	uxth	r3, r3
20000a52:	8293      	strh	r3, [r2, #20]
20000a54:	2d00      	cmp	r5, #0
20000a56:	d137      	bne.n	20000ac8 <prepare_ep_buffer+0xb0>
20000a58:	4651      	mov	r1, sl
20000a5a:	68d6      	ldr	r6, [r2, #12]
20000a5c:	018d      	lsls	r5, r1, #6
20000a5e:	1e61      	subs	r1, r4, #1
20000a60:	1976      	adds	r6, r6, r5
20000a62:	4688      	mov	r8, r1
20000a64:	6915      	ldr	r5, [r2, #16]
20000a66:	2c00      	cmp	r4, #0
20000a68:	d029      	beq.n	20000abe <prepare_ep_buffer+0xa6>
20000a6a:	2906      	cmp	r1, #6
20000a6c:	d93a      	bls.n	20000ae4 <prepare_ep_buffer+0xcc>
20000a6e:	0033      	movs	r3, r6
20000a70:	432b      	orrs	r3, r5
20000a72:	079b      	lsls	r3, r3, #30
20000a74:	d136      	bne.n	20000ae4 <prepare_ep_buffer+0xcc>
20000a76:	1c6b      	adds	r3, r5, #1
20000a78:	1af3      	subs	r3, r6, r3
20000a7a:	2b02      	cmp	r3, #2
20000a7c:	d932      	bls.n	20000ae4 <prepare_ep_buffer+0xcc>
20000a7e:	1f23      	subs	r3, r4, #4
20000a80:	089b      	lsrs	r3, r3, #2
20000a82:	3301      	adds	r3, #1
20000a84:	469c      	mov	ip, r3
20000a86:	2700      	movs	r7, #0
20000a88:	2300      	movs	r3, #0
20000a8a:	58e9      	ldr	r1, [r5, r3]
20000a8c:	3701      	adds	r7, #1
20000a8e:	50f1      	str	r1, [r6, r3]
20000a90:	3304      	adds	r3, #4
20000a92:	45bc      	cmp	ip, r7
20000a94:	d8f9      	bhi.n	20000a8a <prepare_ep_buffer+0x72>
20000a96:	4663      	mov	r3, ip
20000a98:	4641      	mov	r1, r8
20000a9a:	009b      	lsls	r3, r3, #2
20000a9c:	18ed      	adds	r5, r5, r3
20000a9e:	18f6      	adds	r6, r6, r3
20000aa0:	1acf      	subs	r7, r1, r3
20000aa2:	429c      	cmp	r4, r3
20000aa4:	d009      	beq.n	20000aba <prepare_ep_buffer+0xa2>
20000aa6:	782b      	ldrb	r3, [r5, #0]
20000aa8:	7033      	strb	r3, [r6, #0]
20000aaa:	2f00      	cmp	r7, #0
20000aac:	d005      	beq.n	20000aba <prepare_ep_buffer+0xa2>
20000aae:	786b      	ldrb	r3, [r5, #1]
20000ab0:	7073      	strb	r3, [r6, #1]
20000ab2:	2f01      	cmp	r7, #1
20000ab4:	d001      	beq.n	20000aba <prepare_ep_buffer+0xa2>
20000ab6:	78ab      	ldrb	r3, [r5, #2]
20000ab8:	70b3      	strb	r3, [r6, #2]
20000aba:	6915      	ldr	r5, [r2, #16]
20000abc:	8a93      	ldrh	r3, [r2, #20]
20000abe:	192d      	adds	r5, r5, r4
20000ac0:	6115      	str	r5, [r2, #16]
20000ac2:	2280      	movs	r2, #128	@ 0x80
20000ac4:	0212      	lsls	r2, r2, #8
20000ac6:	4310      	orrs	r0, r2
20000ac8:	2b00      	cmp	r3, #0
20000aca:	d102      	bne.n	20000ad2 <prepare_ep_buffer+0xba>
20000acc:	2380      	movs	r3, #128	@ 0x80
20000ace:	01db      	lsls	r3, r3, #7
20000ad0:	4318      	orrs	r0, r3
20000ad2:	4653      	mov	r3, sl
20000ad4:	2b00      	cmp	r3, #0
20000ad6:	d000      	beq.n	20000ada <prepare_ep_buffer+0xc2>
20000ad8:	0400      	lsls	r0, r0, #16
20000ada:	bce0      	pop	{r5, r6, r7}
20000adc:	46ba      	mov	sl, r7
20000ade:	46b1      	mov	r9, r6
20000ae0:	46a8      	mov	r8, r5
20000ae2:	bdf0      	pop	{r4, r5, r6, r7, pc}
20000ae4:	2300      	movs	r3, #0
20000ae6:	5cef      	ldrb	r7, [r5, r3]
20000ae8:	54f7      	strb	r7, [r6, r3]
20000aea:	3301      	adds	r3, #1
20000aec:	429c      	cmp	r4, r3
20000aee:	d1fa      	bne.n	20000ae6 <prepare_ep_buffer+0xce>
20000af0:	6915      	ldr	r5, [r2, #16]
20000af2:	8a93      	ldrh	r3, [r2, #20]
20000af4:	e7e3      	b.n	20000abe <prepare_ep_buffer+0xa6>
20000af6:	46c0      	nop			@ (mov r8, r8)

20000af8 <sync_ep_buffer>:
20000af8:	6883      	ldr	r3, [r0, #8]
20000afa:	b5f0      	push	{r4, r5, r6, r7, lr}
20000afc:	681b      	ldr	r3, [r3, #0]
20000afe:	0005      	movs	r5, r0
20000b00:	2900      	cmp	r1, #0
20000b02:	d000      	beq.n	20000b06 <sync_ep_buffer+0xe>
20000b04:	0c1b      	lsrs	r3, r3, #16
20000b06:	059b      	lsls	r3, r3, #22
20000b08:	0d98      	lsrs	r0, r3, #22
20000b0a:	786b      	ldrb	r3, [r5, #1]
20000b0c:	2b00      	cmp	r3, #0
20000b0e:	d108      	bne.n	20000b22 <sync_ep_buffer+0x2a>
20000b10:	8aeb      	ldrh	r3, [r5, #22]
20000b12:	18c3      	adds	r3, r0, r3
20000b14:	82eb      	strh	r3, [r5, #22]
20000b16:	8b2b      	ldrh	r3, [r5, #24]
20000b18:	4283      	cmp	r3, r0
20000b1a:	d901      	bls.n	20000b20 <sync_ep_buffer+0x28>
20000b1c:	2300      	movs	r3, #0
20000b1e:	82ab      	strh	r3, [r5, #20]
20000b20:	bdf0      	pop	{r4, r5, r6, r7, pc}
20000b22:	68eb      	ldr	r3, [r5, #12]
20000b24:	0189      	lsls	r1, r1, #6
20000b26:	1e46      	subs	r6, r0, #1
20000b28:	46b4      	mov	ip, r6
20000b2a:	692a      	ldr	r2, [r5, #16]
20000b2c:	185c      	adds	r4, r3, r1
20000b2e:	2800      	cmp	r0, #0
20000b30:	d027      	beq.n	20000b82 <sync_ep_buffer+0x8a>
20000b32:	2e06      	cmp	r6, #6
20000b34:	d92b      	bls.n	20000b8e <sync_ep_buffer+0x96>
20000b36:	3101      	adds	r1, #1
20000b38:	185b      	adds	r3, r3, r1
20000b3a:	1ad3      	subs	r3, r2, r3
20000b3c:	2b02      	cmp	r3, #2
20000b3e:	d926      	bls.n	20000b8e <sync_ep_buffer+0x96>
20000b40:	0013      	movs	r3, r2
20000b42:	4323      	orrs	r3, r4
20000b44:	079b      	lsls	r3, r3, #30
20000b46:	d122      	bne.n	20000b8e <sync_ep_buffer+0x96>
20000b48:	2300      	movs	r3, #0
20000b4a:	2100      	movs	r1, #0
20000b4c:	1f06      	subs	r6, r0, #4
20000b4e:	08b6      	lsrs	r6, r6, #2
20000b50:	3601      	adds	r6, #1
20000b52:	58e7      	ldr	r7, [r4, r3]
20000b54:	3101      	adds	r1, #1
20000b56:	50d7      	str	r7, [r2, r3]
20000b58:	3304      	adds	r3, #4
20000b5a:	428e      	cmp	r6, r1
20000b5c:	d8f9      	bhi.n	20000b52 <sync_ep_buffer+0x5a>
20000b5e:	4663      	mov	r3, ip
20000b60:	00b6      	lsls	r6, r6, #2
20000b62:	19a4      	adds	r4, r4, r6
20000b64:	1992      	adds	r2, r2, r6
20000b66:	1b9f      	subs	r7, r3, r6
20000b68:	42b0      	cmp	r0, r6
20000b6a:	d009      	beq.n	20000b80 <sync_ep_buffer+0x88>
20000b6c:	7823      	ldrb	r3, [r4, #0]
20000b6e:	7013      	strb	r3, [r2, #0]
20000b70:	2f00      	cmp	r7, #0
20000b72:	d005      	beq.n	20000b80 <sync_ep_buffer+0x88>
20000b74:	7863      	ldrb	r3, [r4, #1]
20000b76:	7053      	strb	r3, [r2, #1]
20000b78:	2f01      	cmp	r7, #1
20000b7a:	d001      	beq.n	20000b80 <sync_ep_buffer+0x88>
20000b7c:	78a3      	ldrb	r3, [r4, #2]
20000b7e:	7093      	strb	r3, [r2, #2]
20000b80:	692a      	ldr	r2, [r5, #16]
20000b82:	8aeb      	ldrh	r3, [r5, #22]
20000b84:	1812      	adds	r2, r2, r0
20000b86:	18c3      	adds	r3, r0, r3
20000b88:	82eb      	strh	r3, [r5, #22]
20000b8a:	612a      	str	r2, [r5, #16]
20000b8c:	e7c3      	b.n	20000b16 <sync_ep_buffer+0x1e>
20000b8e:	2300      	movs	r3, #0
20000b90:	5ce1      	ldrb	r1, [r4, r3]
20000b92:	54d1      	strb	r1, [r2, r3]
20000b94:	3301      	adds	r3, #1
20000b96:	4298      	cmp	r0, r3
20000b98:	d1fa      	bne.n	20000b90 <sync_ep_buffer+0x98>
20000b9a:	692a      	ldr	r2, [r5, #16]
20000b9c:	e7f1      	b.n	20000b82 <sync_ep_buffer+0x8a>
20000b9e:	46c0      	nop			@ (mov r8, r8)

20000ba0 <_hw_endpoint_xfer_sync>:
20000ba0:	b510      	push	{r4, lr}
20000ba2:	0004      	movs	r4, r0
20000ba4:	6883      	ldr	r3, [r0, #8]
20000ba6:	2100      	movs	r1, #0
20000ba8:	681b      	ldr	r3, [r3, #0]
20000baa:	f7ff ffa5 	bl	20000af8 <sync_ep_buffer>
20000bae:	6863      	ldr	r3, [r4, #4]
20000bb0:	681b      	ldr	r3, [r3, #0]
20000bb2:	005b      	lsls	r3, r3, #1
20000bb4:	d502      	bpl.n	20000bbc <_hw_endpoint_xfer_sync+0x1c>
20000bb6:	8b23      	ldrh	r3, [r4, #24]
20000bb8:	4283      	cmp	r3, r0
20000bba:	d000      	beq.n	20000bbe <_hw_endpoint_xfer_sync+0x1e>
20000bbc:	bd10      	pop	{r4, pc}
20000bbe:	2101      	movs	r1, #1
20000bc0:	0020      	movs	r0, r4
20000bc2:	f7ff ff99 	bl	20000af8 <sync_ep_buffer>
20000bc6:	e7f9      	b.n	20000bbc <_hw_endpoint_xfer_sync+0x1c>

20000bc8 <e15_is_bulkin_ep>:
20000bc8:	4a08      	ldr	r2, [pc, #32]	@ (20000bec <e15_is_bulkin_ep+0x24>)
20000bca:	0003      	movs	r3, r0
20000bcc:	6c12      	ldr	r2, [r2, #64]	@ 0x40
20000bce:	2000      	movs	r0, #0
20000bd0:	0792      	lsls	r2, r2, #30
20000bd2:	d403      	bmi.n	20000bdc <e15_is_bulkin_ep+0x14>
20000bd4:	789a      	ldrb	r2, [r3, #2]
20000bd6:	09d2      	lsrs	r2, r2, #7
20000bd8:	2a01      	cmp	r2, #1
20000bda:	d000      	beq.n	20000bde <e15_is_bulkin_ep+0x16>
20000bdc:	4770      	bx	lr
20000bde:	7ed8      	ldrb	r0, [r3, #27]
20000be0:	3802      	subs	r0, #2
20000be2:	4243      	negs	r3, r0
20000be4:	4158      	adcs	r0, r3
20000be6:	b2c0      	uxtb	r0, r0
20000be8:	e7f8      	b.n	20000bdc <e15_is_bulkin_ep+0x14>
20000bea:	46c0      	nop			@ (mov r8, r8)
20000bec:	50110000 	.word	0x50110000

20000bf0 <e15_is_critical_frame_period>:
20000bf0:	b510      	push	{r4, lr}
20000bf2:	f7ff ffe9 	bl	20000bc8 <e15_is_bulkin_ep>
20000bf6:	2800      	cmp	r0, #0
20000bf8:	d00c      	beq.n	20000c14 <e15_is_critical_frame_period+0x24>
20000bfa:	4907      	ldr	r1, [pc, #28]	@ (20000c18 <e15_is_critical_frame_period+0x28>)
20000bfc:	4b07      	ldr	r3, [pc, #28]	@ (20000c1c <e15_is_critical_frame_period+0x2c>)
20000bfe:	468c      	mov	ip, r1
20000c00:	4a07      	ldr	r2, [pc, #28]	@ (20000c20 <e15_is_critical_frame_period+0x30>)
20000c02:	6a9b      	ldr	r3, [r3, #40]	@ 0x28
20000c04:	6812      	ldr	r2, [r2, #0]
20000c06:	4463      	add	r3, ip
20000c08:	1a9b      	subs	r3, r3, r2
20000c0a:	2000      	movs	r0, #0
20000c0c:	22c6      	movs	r2, #198	@ 0xc6
20000c0e:	429a      	cmp	r2, r3
20000c10:	4140      	adcs	r0, r0
20000c12:	b2c0      	uxtb	r0, r0
20000c14:	bd10      	pop	{r4, pc}
20000c16:	46c0      	nop			@ (mov r8, r8)
20000c18:	fffffce0 	.word	0xfffffce0
20000c1c:	40054000 	.word	0x40054000
20000c20:	20001b60 	.word	0x20001b60

20000c24 <hw_endpoint_reset_transfer>:
20000c24:	2300      	movs	r3, #0
20000c26:	7683      	strb	r3, [r0, #26]
20000c28:	6143      	str	r3, [r0, #20]
20000c2a:	6103      	str	r3, [r0, #16]
20000c2c:	4770      	bx	lr
20000c2e:	46c0      	nop			@ (mov r8, r8)

20000c30 <_hw_endpoint_buffer_control_update32>:
20000c30:	b510      	push	{r4, lr}
20000c32:	6883      	ldr	r3, [r0, #8]
20000c34:	2900      	cmp	r1, #0
20000c36:	d001      	beq.n	20000c3c <_hw_endpoint_buffer_control_update32+0xc>
20000c38:	681c      	ldr	r4, [r3, #0]
20000c3a:	4021      	ands	r1, r4
20000c3c:	2a00      	cmp	r2, #0
20000c3e:	d012      	beq.n	20000c66 <_hw_endpoint_buffer_control_update32+0x36>
20000c40:	2480      	movs	r4, #128	@ 0x80
20000c42:	00e4      	lsls	r4, r4, #3
20000c44:	4311      	orrs	r1, r2
20000c46:	4222      	tst	r2, r4
20000c48:	d00d      	beq.n	20000c66 <_hw_endpoint_buffer_control_update32+0x36>
20000c4a:	681a      	ldr	r2, [r3, #0]
20000c4c:	4222      	tst	r2, r4
20000c4e:	d10c      	bne.n	20000c6a <_hw_endpoint_buffer_control_update32+0x3a>
20000c50:	4a08      	ldr	r2, [pc, #32]	@ (20000c74 <_hw_endpoint_buffer_control_update32+0x44>)
20000c52:	400a      	ands	r2, r1
20000c54:	601a      	str	r2, [r3, #0]
20000c56:	4a08      	ldr	r2, [pc, #32]	@ (20000c78 <_hw_endpoint_buffer_control_update32+0x48>)
20000c58:	6c12      	ldr	r2, [r2, #64]	@ 0x40
20000c5a:	0792      	lsls	r2, r2, #30
20000c5c:	d403      	bmi.n	20000c66 <_hw_endpoint_buffer_control_update32+0x36>
20000c5e:	230c      	movs	r3, #12
20000c60:	3b03      	subs	r3, #3
20000c62:	d2fd      	bcs.n	20000c60 <_hw_endpoint_buffer_control_update32+0x30>
20000c64:	6883      	ldr	r3, [r0, #8]
20000c66:	6019      	str	r1, [r3, #0]
20000c68:	bd10      	pop	{r4, pc}
20000c6a:	7881      	ldrb	r1, [r0, #2]
20000c6c:	4803      	ldr	r0, [pc, #12]	@ (20000c7c <_hw_endpoint_buffer_control_update32+0x4c>)
20000c6e:	f000 f98b 	bl	20000f88 <__panic_veneer>
20000c72:	46c0      	nop			@ (mov r8, r8)
20000c74:	fffffbff 	.word	0xfffffbff
20000c78:	50110000 	.word	0x50110000
20000c7c:	1000486c 	.word	0x1000486c

20000c80 <hw_endpoint_start_next_buffer>:
20000c80:	6843      	ldr	r3, [r0, #4]
20000c82:	b570      	push	{r4, r5, r6, lr}
20000c84:	2100      	movs	r1, #0
20000c86:	2580      	movs	r5, #128	@ 0x80
20000c88:	681e      	ldr	r6, [r3, #0]
20000c8a:	0004      	movs	r4, r0
20000c8c:	f7ff fec4 	bl	20000a18 <prepare_ep_buffer>
20000c90:	4b13      	ldr	r3, [pc, #76]	@ (20000ce0 <hw_endpoint_start_next_buffer+0x60>)
20000c92:	016d      	lsls	r5, r5, #5
20000c94:	6c1b      	ldr	r3, [r3, #64]	@ 0x40
20000c96:	4305      	orrs	r5, r0
20000c98:	079b      	lsls	r3, r3, #30
20000c9a:	d50f      	bpl.n	20000cbc <hw_endpoint_start_next_buffer+0x3c>
20000c9c:	78a3      	ldrb	r3, [r4, #2]
20000c9e:	065b      	lsls	r3, r3, #25
20000ca0:	d00f      	beq.n	20000cc2 <hw_endpoint_start_next_buffer+0x42>
20000ca2:	4b10      	ldr	r3, [pc, #64]	@ (20000ce4 <hw_endpoint_start_next_buffer+0x64>)
20000ca4:	401e      	ands	r6, r3
20000ca6:	2380      	movs	r3, #128	@ 0x80
20000ca8:	059b      	lsls	r3, r3, #22
20000caa:	4333      	orrs	r3, r6
20000cac:	6862      	ldr	r2, [r4, #4]
20000cae:	2100      	movs	r1, #0
20000cb0:	6013      	str	r3, [r2, #0]
20000cb2:	0020      	movs	r0, r4
20000cb4:	002a      	movs	r2, r5
20000cb6:	f7ff ffbb 	bl	20000c30 <_hw_endpoint_buffer_control_update32>
20000cba:	bd70      	pop	{r4, r5, r6, pc}
20000cbc:	78a3      	ldrb	r3, [r4, #2]
20000cbe:	09db      	lsrs	r3, r3, #7
20000cc0:	d0ef      	beq.n	20000ca2 <hw_endpoint_start_next_buffer+0x22>
20000cc2:	8aa3      	ldrh	r3, [r4, #20]
20000cc4:	2b00      	cmp	r3, #0
20000cc6:	d0ec      	beq.n	20000ca2 <hw_endpoint_start_next_buffer+0x22>
20000cc8:	2101      	movs	r1, #1
20000cca:	0020      	movs	r0, r4
20000ccc:	f7ff fea4 	bl	20000a18 <prepare_ep_buffer>
20000cd0:	23a0      	movs	r3, #160	@ 0xa0
20000cd2:	4a05      	ldr	r2, [pc, #20]	@ (20000ce8 <hw_endpoint_start_next_buffer+0x68>)
20000cd4:	05db      	lsls	r3, r3, #23
20000cd6:	4032      	ands	r2, r6
20000cd8:	4305      	orrs	r5, r0
20000cda:	4313      	orrs	r3, r2
20000cdc:	e7e6      	b.n	20000cac <hw_endpoint_start_next_buffer+0x2c>
20000cde:	46c0      	nop			@ (mov r8, r8)
20000ce0:	50110000 	.word	0x50110000
20000ce4:	afffffff 	.word	0xafffffff
20000ce8:	dfffffff 	.word	0xdfffffff

20000cec <hw_endpoint_xfer_continue>:
20000cec:	b570      	push	{r4, r5, r6, lr}
20000cee:	7e85      	ldrb	r5, [r0, #26]
20000cf0:	0004      	movs	r4, r0
20000cf2:	2d00      	cmp	r5, #0
20000cf4:	d014      	beq.n	20000d20 <hw_endpoint_xfer_continue+0x34>
20000cf6:	f7ff ff53 	bl	20000ba0 <_hw_endpoint_xfer_sync>
20000cfa:	8aa3      	ldrh	r3, [r4, #20]
20000cfc:	2b00      	cmp	r3, #0
20000cfe:	d101      	bne.n	20000d04 <hw_endpoint_xfer_continue+0x18>
20000d00:	0028      	movs	r0, r5
20000d02:	bd70      	pop	{r4, r5, r6, pc}
20000d04:	0020      	movs	r0, r4
20000d06:	f7ff ff73 	bl	20000bf0 <e15_is_critical_frame_period>
20000d0a:	2800      	cmp	r0, #0
20000d0c:	d003      	beq.n	20000d16 <hw_endpoint_xfer_continue+0x2a>
20000d0e:	2301      	movs	r3, #1
20000d10:	2500      	movs	r5, #0
20000d12:	7723      	strb	r3, [r4, #28]
20000d14:	e7f4      	b.n	20000d00 <hw_endpoint_xfer_continue+0x14>
20000d16:	0020      	movs	r0, r4
20000d18:	f7ff ffb2 	bl	20000c80 <hw_endpoint_start_next_buffer>
20000d1c:	2500      	movs	r5, #0
20000d1e:	e7ef      	b.n	20000d00 <hw_endpoint_xfer_continue+0x14>
20000d20:	7881      	ldrb	r1, [r0, #2]
20000d22:	4801      	ldr	r0, [pc, #4]	@ (20000d28 <hw_endpoint_xfer_continue+0x3c>)
20000d24:	f000 f930 	bl	20000f88 <__panic_veneer>
20000d28:	1000488c 	.word	0x1000488c

20000d2c <dcd_event_handler>:
20000d2c:	b5f0      	push	{r4, r5, r6, r7, lr}
20000d2e:	46ce      	mov	lr, r9
20000d30:	4647      	mov	r7, r8
20000d32:	b580      	push	{r7, lr}
20000d34:	7843      	ldrb	r3, [r0, #1]
20000d36:	0005      	movs	r5, r0
20000d38:	000e      	movs	r6, r1
20000d3a:	b085      	sub	sp, #20
20000d3c:	2b06      	cmp	r3, #6
20000d3e:	d808      	bhi.n	20000d52 <dcd_event_handler+0x26>
20000d40:	4a6c      	ldr	r2, [pc, #432]	@ (20000ef4 <dcd_event_handler+0x1c8>)
20000d42:	009b      	lsls	r3, r3, #2
20000d44:	58d3      	ldr	r3, [r2, r3]
20000d46:	469f      	mov	pc, r3
20000d48:	4a6b      	ldr	r2, [pc, #428]	@ (20000ef8 <dcd_event_handler+0x1cc>)
20000d4a:	7813      	ldrb	r3, [r2, #0]
20000d4c:	3301      	adds	r3, #1
20000d4e:	b2db      	uxtb	r3, r3
20000d50:	7013      	strb	r3, [r2, #0]
20000d52:	4b6a      	ldr	r3, [pc, #424]	@ (20000efc <dcd_event_handler+0x1d0>)
20000d54:	681c      	ldr	r4, [r3, #0]
20000d56:	6962      	ldr	r2, [r4, #20]
20000d58:	f3ef 8110 	mrs	r1, PRIMASK
20000d5c:	b672      	cpsid	i
20000d5e:	6813      	ldr	r3, [r2, #0]
20000d60:	2b00      	cmp	r3, #0
20000d62:	d0fc      	beq.n	20000d5e <dcd_event_handler+0x32>
20000d64:	f3bf 8f5f 	dmb	sy
20000d68:	61a1      	str	r1, [r4, #24]
20000d6a:	0020      	movs	r0, r4
20000d6c:	0029      	movs	r1, r5
20000d6e:	f000 f8db 	bl	20000f28 <__tu_fifo_write_veneer>
20000d72:	6962      	ldr	r2, [r4, #20]
20000d74:	69a3      	ldr	r3, [r4, #24]
20000d76:	f3bf 8f5f 	dmb	sy
20000d7a:	2100      	movs	r1, #0
20000d7c:	6011      	str	r1, [r2, #0]
20000d7e:	f383 8810 	msr	PRIMASK, r3
20000d82:	2800      	cmp	r0, #0
20000d84:	d104      	bne.n	20000d90 <dcd_event_handler+0x64>
20000d86:	b005      	add	sp, #20
20000d88:	bcc0      	pop	{r6, r7}
20000d8a:	46b9      	mov	r9, r7
20000d8c:	46b0      	mov	r8, r6
20000d8e:	bdf0      	pop	{r4, r5, r6, r7, pc}
20000d90:	0032      	movs	r2, r6
20000d92:	7869      	ldrb	r1, [r5, #1]
20000d94:	7828      	ldrb	r0, [r5, #0]
20000d96:	f000 f8e7 	bl	20000f68 <__tud_event_hook_cb_veneer>
20000d9a:	e7f4      	b.n	20000d86 <dcd_event_handler+0x5a>
20000d9c:	2101      	movs	r1, #1
20000d9e:	4b58      	ldr	r3, [pc, #352]	@ (20000f00 <dcd_event_handler+0x1d4>)
20000da0:	781a      	ldrb	r2, [r3, #0]
20000da2:	438a      	bics	r2, r1
20000da4:	701a      	strb	r2, [r3, #0]
20000da6:	781a      	ldrb	r2, [r3, #0]
20000da8:	3101      	adds	r1, #1
20000daa:	438a      	bics	r2, r1
20000dac:	701a      	strb	r2, [r3, #0]
20000dae:	2200      	movs	r2, #0
20000db0:	705a      	strb	r2, [r3, #1]
20000db2:	781a      	ldrb	r2, [r3, #0]
20000db4:	3102      	adds	r1, #2
20000db6:	438a      	bics	r2, r1
20000db8:	701a      	strb	r2, [r3, #0]
20000dba:	e7ca      	b.n	20000d52 <dcd_event_handler+0x26>
20000dbc:	4951      	ldr	r1, [pc, #324]	@ (20000f04 <dcd_event_handler+0x1d8>)
20000dbe:	4f52      	ldr	r7, [pc, #328]	@ (20000f08 <dcd_event_handler+0x1dc>)
20000dc0:	4689      	mov	r9, r1
20000dc2:	4952      	ldr	r1, [pc, #328]	@ (20000f0c <dcd_event_handler+0x1e0>)
20000dc4:	2400      	movs	r4, #0
20000dc6:	2300      	movs	r3, #0
20000dc8:	4688      	mov	r8, r1
20000dca:	783a      	ldrb	r2, [r7, #0]
20000dcc:	e012      	b.n	20000df4 <dcd_event_handler+0xc8>
20000dce:	4643      	mov	r3, r8
20000dd0:	681b      	ldr	r3, [r3, #0]
20000dd2:	0161      	lsls	r1, r4, #5
20000dd4:	185b      	adds	r3, r3, r1
20000dd6:	2b00      	cmp	r3, #0
20000dd8:	d006      	beq.n	20000de8 <dcd_event_handler+0xbc>
20000dda:	69db      	ldr	r3, [r3, #28]
20000ddc:	2b00      	cmp	r3, #0
20000dde:	d003      	beq.n	20000de8 <dcd_event_handler+0xbc>
20000de0:	6869      	ldr	r1, [r5, #4]
20000de2:	7828      	ldrb	r0, [r5, #0]
20000de4:	4798      	blx	r3
20000de6:	783a      	ldrb	r2, [r7, #0]
20000de8:	3401      	adds	r4, #1
20000dea:	b2e4      	uxtb	r4, r4
20000dec:	1c51      	adds	r1, r2, #1
20000dee:	0023      	movs	r3, r4
20000df0:	42a1      	cmp	r1, r4
20000df2:	db17      	blt.n	20000e24 <dcd_event_handler+0xf8>
20000df4:	42a2      	cmp	r2, r4
20000df6:	d8ea      	bhi.n	20000dce <dcd_event_handler+0xa2>
20000df8:	1a9b      	subs	r3, r3, r2
20000dfa:	015b      	lsls	r3, r3, #5
20000dfc:	444b      	add	r3, r9
20000dfe:	e7ec      	b.n	20000dda <dcd_event_handler+0xae>
20000e00:	4b3f      	ldr	r3, [pc, #252]	@ (20000f00 <dcd_event_handler+0x1d4>)
20000e02:	781a      	ldrb	r2, [r3, #0]
20000e04:	07d2      	lsls	r2, r2, #31
20000e06:	d5be      	bpl.n	20000d86 <dcd_event_handler+0x5a>
20000e08:	2104      	movs	r1, #4
20000e0a:	781a      	ldrb	r2, [r3, #0]
20000e0c:	430a      	orrs	r2, r1
20000e0e:	701a      	strb	r2, [r3, #0]
20000e10:	e79f      	b.n	20000d52 <dcd_event_handler+0x26>
20000e12:	4b3b      	ldr	r3, [pc, #236]	@ (20000f00 <dcd_event_handler+0x1d4>)
20000e14:	781a      	ldrb	r2, [r3, #0]
20000e16:	07d2      	lsls	r2, r2, #31
20000e18:	d5b5      	bpl.n	20000d86 <dcd_event_handler+0x5a>
20000e1a:	2104      	movs	r1, #4
20000e1c:	781a      	ldrb	r2, [r3, #0]
20000e1e:	438a      	bics	r2, r1
20000e20:	701a      	strb	r2, [r3, #0]
20000e22:	e796      	b.n	20000d52 <dcd_event_handler+0x26>
20000e24:	4f36      	ldr	r7, [pc, #216]	@ (20000f00 <dcd_event_handler+0x1d4>)
20000e26:	783b      	ldrb	r3, [r7, #0]
20000e28:	075b      	lsls	r3, r3, #29
20000e2a:	d52b      	bpl.n	20000e84 <dcd_event_handler+0x158>
20000e2c:	2204      	movs	r2, #4
20000e2e:	783b      	ldrb	r3, [r7, #0]
20000e30:	2100      	movs	r1, #0
20000e32:	4393      	bics	r3, r2
20000e34:	703b      	strb	r3, [r7, #0]
20000e36:	466b      	mov	r3, sp
20000e38:	3206      	adds	r2, #6
20000e3a:	1d98      	adds	r0, r3, #6
20000e3c:	f000 f87c 	bl	20000f38 <____wrap_memset_veneer>
20000e40:	782b      	ldrb	r3, [r5, #0]
20000e42:	ac01      	add	r4, sp, #4
20000e44:	7023      	strb	r3, [r4, #0]
20000e46:	2305      	movs	r3, #5
20000e48:	7063      	strb	r3, [r4, #1]
20000e4a:	4b2c      	ldr	r3, [pc, #176]	@ (20000efc <dcd_event_handler+0x1d0>)
20000e4c:	681b      	ldr	r3, [r3, #0]
20000e4e:	4698      	mov	r8, r3
20000e50:	695a      	ldr	r2, [r3, #20]
20000e52:	f3ef 8110 	mrs	r1, PRIMASK
20000e56:	b672      	cpsid	i
20000e58:	6813      	ldr	r3, [r2, #0]
20000e5a:	2b00      	cmp	r3, #0
20000e5c:	d0fc      	beq.n	20000e58 <dcd_event_handler+0x12c>
20000e5e:	f3bf 8f5f 	dmb	sy
20000e62:	4643      	mov	r3, r8
20000e64:	4640      	mov	r0, r8
20000e66:	6199      	str	r1, [r3, #24]
20000e68:	0021      	movs	r1, r4
20000e6a:	f000 f85d 	bl	20000f28 <__tu_fifo_write_veneer>
20000e6e:	4643      	mov	r3, r8
20000e70:	695a      	ldr	r2, [r3, #20]
20000e72:	699b      	ldr	r3, [r3, #24]
20000e74:	f3bf 8f5f 	dmb	sy
20000e78:	2100      	movs	r1, #0
20000e7a:	6011      	str	r1, [r2, #0]
20000e7c:	f383 8810 	msr	PRIMASK, r3
20000e80:	2800      	cmp	r0, #0
20000e82:	d131      	bne.n	20000ee8 <dcd_event_handler+0x1bc>
20000e84:	78fb      	ldrb	r3, [r7, #3]
20000e86:	07db      	lsls	r3, r3, #31
20000e88:	d400      	bmi.n	20000e8c <dcd_event_handler+0x160>
20000e8a:	e77c      	b.n	20000d86 <dcd_event_handler+0x5a>
20000e8c:	466b      	mov	r3, sp
20000e8e:	220a      	movs	r2, #10
20000e90:	2100      	movs	r1, #0
20000e92:	1d98      	adds	r0, r3, #6
20000e94:	f000 f850 	bl	20000f38 <____wrap_memset_veneer>
20000e98:	782b      	ldrb	r3, [r5, #0]
20000e9a:	ac01      	add	r4, sp, #4
20000e9c:	7023      	strb	r3, [r4, #0]
20000e9e:	2303      	movs	r3, #3
20000ea0:	7063      	strb	r3, [r4, #1]
20000ea2:	686b      	ldr	r3, [r5, #4]
20000ea4:	6063      	str	r3, [r4, #4]
20000ea6:	4b15      	ldr	r3, [pc, #84]	@ (20000efc <dcd_event_handler+0x1d0>)
20000ea8:	681d      	ldr	r5, [r3, #0]
20000eaa:	696a      	ldr	r2, [r5, #20]
20000eac:	f3ef 8110 	mrs	r1, PRIMASK
20000eb0:	b672      	cpsid	i
20000eb2:	6813      	ldr	r3, [r2, #0]
20000eb4:	2b00      	cmp	r3, #0
20000eb6:	d0fc      	beq.n	20000eb2 <dcd_event_handler+0x186>
20000eb8:	f3bf 8f5f 	dmb	sy
20000ebc:	61a9      	str	r1, [r5, #24]
20000ebe:	0028      	movs	r0, r5
20000ec0:	0021      	movs	r1, r4
20000ec2:	f000 f831 	bl	20000f28 <__tu_fifo_write_veneer>
20000ec6:	696a      	ldr	r2, [r5, #20]
20000ec8:	69ab      	ldr	r3, [r5, #24]
20000eca:	f3bf 8f5f 	dmb	sy
20000ece:	2100      	movs	r1, #0
20000ed0:	6011      	str	r1, [r2, #0]
20000ed2:	f383 8810 	msr	PRIMASK, r3
20000ed6:	2800      	cmp	r0, #0
20000ed8:	d100      	bne.n	20000edc <dcd_event_handler+0x1b0>
20000eda:	e754      	b.n	20000d86 <dcd_event_handler+0x5a>
20000edc:	0032      	movs	r2, r6
20000ede:	7861      	ldrb	r1, [r4, #1]
20000ee0:	7820      	ldrb	r0, [r4, #0]
20000ee2:	f000 f841 	bl	20000f68 <__tud_event_hook_cb_veneer>
20000ee6:	e74e      	b.n	20000d86 <dcd_event_handler+0x5a>
20000ee8:	0032      	movs	r2, r6
20000eea:	7861      	ldrb	r1, [r4, #1]
20000eec:	7820      	ldrb	r0, [r4, #0]
20000eee:	f000 f83b 	bl	20000f68 <__tud_event_hook_cb_veneer>
20000ef2:	e7c7      	b.n	20000e84 <dcd_event_handler+0x158>
20000ef4:	10004b1c 	.word	0x10004b1c
20000ef8:	200020cf 	.word	0x200020cf
20000efc:	2000166c 	.word	0x2000166c
20000f00:	20001614 	.word	0x20001614
20000f04:	10004b38 	.word	0x10004b38
20000f08:	200020cd 	.word	0x200020cd
20000f0c:	200012e8 	.word	0x200012e8

20000f10 <__aeabi_idiv0>:
20000f10:	4770      	bx	lr
20000f12:	46c0      	nop			@ (mov r8, r8)
20000f14:	0000      	movs	r0, r0
	...

20000f18 <__time_us_64_veneer>:
20000f18:	b401      	push	{r0}
20000f1a:	4802      	ldr	r0, [pc, #8]	@ (20000f24 <__time_us_64_veneer+0xc>)
20000f1c:	4684      	mov	ip, r0
20000f1e:	bc01      	pop	{r0}
20000f20:	4760      	bx	ip
20000f22:	bf00      	nop
20000f24:	10001351 	.word	0x10001351

20000f28 <__tu_fifo_write_veneer>:
20000f28:	b401      	push	{r0}
20000f2a:	4802      	ldr	r0, [pc, #8]	@ (20000f34 <__tu_fifo_write_veneer+0xc>)
20000f2c:	4684      	mov	ip, r0
20000f2e:	bc01      	pop	{r0}
20000f30:	4760      	bx	ip
20000f32:	bf00      	nop
20000f34:	10004331 	.word	0x10004331

20000f38 <____wrap_memset_veneer>:
20000f38:	b401      	push	{r0}
20000f3a:	4802      	ldr	r0, [pc, #8]	@ (20000f44 <____wrap_memset_veneer+0xc>)
20000f3c:	4684      	mov	ip, r0
20000f3e:	bc01      	pop	{r0}
20000f40:	4760      	bx	ip
20000f42:	bf00      	nop
20000f44:	10001b01 	.word	0x10001b01

20000f48 <__rp2040_chip_version_veneer>:
20000f48:	b401      	push	{r0}
20000f4a:	4802      	ldr	r0, [pc, #8]	@ (20000f54 <__rp2040_chip_version_veneer+0xc>)
20000f4c:	4684      	mov	ip, r0
20000f4e:	bc01      	pop	{r0}
20000f50:	4760      	bx	ip
20000f52:	bf00      	nop
20000f54:	1000054d 	.word	0x1000054d

20000f58 <__best_effort_wfe_or_timeout_veneer>:
20000f58:	b401      	push	{r0}
20000f5a:	4802      	ldr	r0, [pc, #8]	@ (20000f64 <__best_effort_wfe_or_timeout_veneer+0xc>)
20000f5c:	4684      	mov	ip, r0
20000f5e:	bc01      	pop	{r0}
20000f60:	4760      	bx	ip
20000f62:	bf00      	nop
20000f64:	1000124d 	.word	0x1000124d

20000f68 <__tud_event_hook_cb_veneer>:
20000f68:	b401      	push	{r0}
20000f6a:	4802      	ldr	r0, [pc, #8]	@ (20000f74 <__tud_event_hook_cb_veneer+0xc>)
20000f6c:	4684      	mov	ip, r0
20000f6e:	bc01      	pop	{r0}
20000f70:	4760      	bx	ip
20000f72:	bf00      	nop
20000f74:	100028e5 	.word	0x100028e5

20000f78 <____wrap___aeabi_lmul_veneer>:
20000f78:	b401      	push	{r0}
20000f7a:	4802      	ldr	r0, [pc, #8]	@ (20000f84 <____wrap___aeabi_lmul_veneer+0xc>)
20000f7c:	4684      	mov	ip, r0
20000f7e:	bc01      	pop	{r0}
20000f80:	4760      	bx	ip
20000f82:	bf00      	nop
20000f84:	10001a55 	.word	0x10001a55

20000f88 <__panic_veneer>:
20000f88:	b401      	push	{r0}
20000f8a:	4802      	ldr	r0, [pc, #8]	@ (20000f94 <__panic_veneer+0xc>)
20000f8c:	4684      	mov	ip, r0
20000f8e:	bc01      	pop	{r0}
20000f90:	4760      	bx	ip
20000f92:	bf00      	nop
20000f94:	10000559 	.word	0x10000559

20000f98 <striped_spin_lock_num>:
20000f98:	00000010                                ....

20000f9c <irq_handler_chain_slots>:
20000f9c:	00000000 	.word	0x00000000
20000fa0:	00010000 	.word	0x00010000
	...
20000fac:	00020000 	.word	0x00020000
	...
20000fb8:	00030000 	.word	0x00030000
	...
20000fc4:	00ff0000 	.word	0x00ff0000
20000fc8:	00000000 	.word	0x00000000

20000fcc <irq_handler_chain_first_slot>:
20000fcc:	b501      	push	{r0, lr}
20000fce:	6848      	ldr	r0, [r1, #4]
20000fd0:	3101      	adds	r1, #1
20000fd2:	468e      	mov	lr, r1
20000fd4:	4700      	bx	r0

20000fd6 <irq_handler_chain_remove_tail>:
20000fd6:	4670      	mov	r0, lr
20000fd8:	3809      	subs	r0, #9
20000fda:	4901      	ldr	r1, [pc, #4]	@ (20000fe0 <irq_handler_chain_remove_tail+0xa>)
20000fdc:	4788      	blx	r1
20000fde:	bd01      	pop	{r0, pc}
20000fe0:	100009a5 	.word	0x100009a5

20000fe4 <default_alarm_pool>:
	...
20000ff8:	20001060 00000000                       `.. ....

20001000 <aeabi_bits_funcs>:
20001000:	00003350 	.word	0x00003350
20001004:	0000334c 	.word	0x0000334c
20001008:	00003354 	.word	0x00003354
2000100c:	00003352 	.word	0x00003352

20001010 <aeabi_bits_funcs_end>:
20001010:	0000534d 	.word	0x0000534d
20001014:	0000434d 	.word	0x0000434d
20001018:	00003453 	.word	0x00003453
2000101c:	00003443 	.word	0x00003443

20001020 <stdio_usb>:
20001020:	100020b5 10002065 10001fd5 10001f4d     . ..e ......M...
20001030:	00000000 00000100                       ........

20001038 <_usbd_qdef>:
20001038:	20001670 000c0010 00000000 00000000     p.. ............
	...

20001054 <_usbd_rhport>:
20001054:	000000ff                                ....

20001058 <print_mutex>:
	...
